ASxxxx Linker V03.00 + NoICE + sdld,  page 1.
Hexadecimal  [32-Bits]

Area                       Addr        Size        Decimal Bytes (Attributes)
--------------------       ----        ----        ------- ----- ------------
.  .ABS.               00000000    00000000 =           0. bytes (ABS,CON)

        Value  Global            Value  Global            Value  Global    
        -----  ------            -----  ------            -----  ------    
     00000000  .__.ABS.  |    00000000  l__CABS   |    00000000  l__CODE_0
     00000000  l__DABS   |    00000000  l__EMU_HE |    00000000  l__GSFINA
     00000000  l__HEADER |    00000000  l__HEAP   |    00000000  l__HRAM  
     00000000  l__LIT    |    00000000  l__SFR    |    00000000  s__CABS  
     00000000  s__DABS   |    00000000  s__EMU_HE |    00000000  s__EMU_HE
     00000000  s__HEADER |    00000000  s__HEADER |    00000000  s__HEADER
     00000000  s__HEADER |    00000000  s__HEADER |    00000000  s__HEADER
     00000000  s__HEADER |    00000000  s__HEADER |    00000000  s__HEADER
     00000000  s__HEADER |    00000000  s__HEADER |    00000000  s__HEADER
     00000000  s__HEADER |    00000000  s__HEADER |    00000000  s__HEADER
     00000000  s__HEADER |    00000000  s__HEADER |    00000000  s__HRAM  
     00000000  s__HRAM10 |    00000000  s__SFR    |    00000000  s__SFR0  
     00000000  s__SFR1   |    00000000  s__SFR10  |    00000000  s__SFR11 
     00000000  s__SFR12  |    00000000  s__SFR13  |    00000000  s__SFR14 
     00000000  s__SFR15  |    00000000  s__SFR16  |    00000000  s__SFR17 
     00000000  s__SFR18  |    00000000  s__SFR19  |    00000000  s__SFR1a 
     00000000  s__SFR1b  |    00000000  s__SFR1c  |    00000000  s__SFR1d 
     00000000  s__SFR1e  |    00000000  s__SFR1f  |    00000000  s__SFR2  
     00000000  s__SFR20  |    00000000  s__SFR21  |    00000000  s__SFR22 
     00000000  s__SFR23  |    00000000  s__SFR24  |    00000000  s__SFR25 
     00000000  s__SFR26  |    00000000  s__SFR27  |    00000000  s__SFR28 
     00000000  s__SFR29  |    00000000  s__SFR2a  |    00000000  s__SFR2b 
     00000000  s__SFR2c  |    00000000  s__SFR2d  |    00000000  s__SFR2e 
     00000000  s__SFR2f  |    00000000  s__SFR3   |    00000000  s__SFR30 
     00000000  s__SFR31  |    00000000  s__SFR32  |    00000000  s__SFR33 
     00000000  s__SFR34  |    00000000  s__SFR35  |    00000000  s__SFR36 
     00000000  s__SFR4   |    00000000  s__SFR5   |    00000000  s__SFR6  
     00000000  s__SFR7   |    00000000  s__SFR8   |    00000000  s__SFR9  
     00000000  s__SFRa   |    00000000  s__SFRb   |    00000000  s__SFRc  
     00000000  s__SFRd   |    00000000  s__SFRe   |    00000000  s__SFRf  
     00000001  l__GSINIT |    00000001  l__HEADER |    00000001  l__HEADER
     00000001  l__HEADER |    00000001  l__HEADER |    00000001  l__HEADER
     00000001  l__HEADER |    00000001  l__HEADER |    00000001  l__HEADER
     00000001  l__HRAM10 |    00000001  l__SFR0   |    00000001  l__SFR1  
     00000001  l__SFR10  |    00000001  l__SFR11  |    00000001  l__SFR12 
     00000001  l__SFR13  |    00000001  l__SFR14  |    00000001  l__SFR15 
     00000001  l__SFR16  |    00000001  l__SFR17  |    00000001  l__SFR18 
     00000001  l__SFR19  |    00000001  l__SFR1a  |    00000001  l__SFR1b 
     00000001  l__SFR1c  |    00000001  l__SFR1d  |    00000001  l__SFR1e 
     00000001  l__SFR1f  |    00000001  l__SFR2   |    00000001  l__SFR20 
     00000001  l__SFR21  |    00000001  l__SFR22  |    00000001  l__SFR23 
     00000001  l__SFR24  |    00000001  l__SFR25  |    00000001  l__SFR26 
     00000001  l__SFR27  |    00000001  l__SFR28  |    00000001  l__SFR29 
     00000001  l__SFR2a  |    00000001  l__SFR2b  |    00000001  l__SFR2c 
     00000001  l__SFR2d  |    00000001  l__SFR2e  |    00000001  l__SFR2f 
     00000001  l__SFR3   |    00000001  l__SFR30  |    00000001  l__SFR31 
     00000001  l__SFR32  |    00000001  l__SFR33  |    00000001  l__SFR34 
     00000001  l__SFR35  |    00000001  l__SFR36  |    00000001  l__SFR4  
     00000001  l__SFR5   |    00000001  l__SFR6   |    00000001  l__SFR7  
     00000001  l__SFR8   |    00000001  l__SFR9   |    00000001  l__SFRa  
ASxxxx Linker V03.00 + NoICE + sdld,  page 2.
Hexadecimal  [32-Bits]

Area                       Addr        Size        Decimal Bytes (Attributes)
--------------------       ----        ----        ------- ----- ------------
.  .ABS.               00000000    00000000 =           0. bytes (ABS,CON)

        Value  Global            Value  Global            Value  Global    
        -----  ------            -----  ------            -----  ------    
     00000001  l__SFRb   |    00000001  l__SFRc   |    00000001  l__SFRd  
     00000001  l__SFRe   |    00000001  l__SFRf   |    00000002  l__HEADER
     00000002  l__HEADER |    00000003  l__EMU_HE |    00000003  l__HEADER
     00000006  l__HEADER |    00000008  l__HEADER |    00000017  l__BSS   
     0000001A  l__HEADER |    00000034  l__HEADER |    00000075  l__HEADER
     00000169  l__HOME   |    000001C9  l__BASE   |    000001CE  l__CODE_9
     00000200  s__CODE   |    0000051C  l__GSINIT |    00000C40  l__CODE_7
     00000C8A  l__CODE_8 |    00000E16  l__DATA   |    00001B2F  l__CODE_5
     0000227C  l__CODE   |    0000247C  s__HOME   |    000025E5  s__BASE  
     000027AE  s__CODE_0 |    000027AE  s__GSINIT |    000027AE  s__LIT   
     00002CCA  s__GSINIT |    00002CCB  s__GSFINA |    00002CEA  l__CODE_4
     000032A5  l__CODE_1 |    00003DD1  l__CODE_6 |    0000C000  _shadow_O
     0000C0A0  s__DATA   |    0000CEB6  s__BSS    |    0000CECD  s__HEAP  
     0000DEFF  .STACK    |    0000FF80  .refresh_ |    00014000  s__CODE_1
     00044000  s__CODE_4 |    00054000  s__CODE_5 |    00064000  s__CODE_6
     00074000  s__CODE_7 |    00084000  s__CODE_8 |    00094000  s__CODE_9
ASxxxx Linker V03.00 + NoICE + sdld,  page 3.
Hexadecimal  [32-Bits]

Area                       Addr        Size        Decimal Bytes (Attributes)
--------------------       ----        ----        ------- ----- ------------
_CODE                  00000200    0000227C =        8828. bytes (REL,CON)

        Value  Global            Value  Global            Value  Global    
        -----  ------            -----  ------            -----  ------    
     00000200  A$main$73 |    00000200  C$main.c$ |    00000200  C$main.c$
     00000200  G$main$0$ |    00000200  _main     |    00000203  A$main$77
     00000203  C$main.c$ |    00000206  A$main$81 |    00000206  C$main.c$
     00000208  A$main$82 |    0000020A  A$main$86 |    0000020A  C$main.c$
     0000020C  A$main$87 |    0000020E  A$main$88 |    00000210  A$main$89
     00000212  A$main$90 |    00000214  A$main$91 |    00000216  A$main$95
     00000216  C$main.c$ |    00000219  A$main$96 |    0000021A  A$main$97
     0000021C  A$main$98 |    0000021D  A$main$99 |    0000021E  A$main$10
     0000021F  A$main$10 |    00000220  A$main$10 |    00000221  A$main$10
     00000224  A$main$10 |    00000226  A$main$10 |    00000226  C$gb.h$63
     00000229  A$main$10 |    0000022B  A$main$11 |    0000022E  A$main$11
     00000230  A$main$11 |    00000230  C$main.c$ |    00000233  A$main$11
     00000234  A$main$12 |    00000234  C$gb.h$61 |    00000237  A$main$12
     00000238  A$main$12 |    00000238  C$main.c$ |    0000023B  A$main$12
     0000023C  A$main$13 |    0000023C  C$gb.h$61 |    0000023F  A$main$13
     00000240  A$main$13 |    00000240  C$gb.h$65 |    00000243  A$main$13
     00000243  C$gb.h$65 |    00000245  A$main$14 |    00000246  A$main$14
     00000248  A$main$14 |    00000248  C$gb.h$65 |    0000024B  A$main$14
     0000024B  C$gb.h$65 |    0000024D  A$main$15 |    0000024E  A$main$15
     00000250  A$main$15 |    00000250  C$main.c$ |    00000253  A$main$15
     00000254  A$main$15 |    00000257  A$main$15 |    00000259  A$main$16
     00000259  C$main.c$ |    0000025B  A$main$16 |    0000025D  A$main$16
     0000025F  A$main$16 |    0000025F  C$main.c$ |    00000262  A$main$17
     00000262  C$main.c$ |    00000264  A$main$17 |    00000264  C$main.c$
     00000267  A$main$18 |    00000267  C$main.c$ |    00000268  A$main$18
     00000268  C$gb.h$65 |    0000026B  A$main$18 |    0000026B  C$gb.h$65
     0000026D  A$main$19 |    0000026E  A$main$19 |    0000026F  A$main$19
     0000026F  C$main.c$ |    00000270  A$main$19 |    00000272  A$main$19
     00000273  A$main$20 |    00000273  C$gb.h$65 |    00000276  A$main$20
     00000276  C$gb.h$65 |    00000278  A$main$20 |    00000279  A$main$20
     0000027A  A$main$22 |    0000027A  C$main.c$ |    0000027A  C$main.c$
     0000027A  C$main.c$ |    0000027A  XG$main$0 |    0000027C  G$startFu
     0000027C  _startFun |    00000288  G$updateF |    00000288  _updateFu
     00000294  G$stateBa |    00000294  _stateBan |    0000029A  G$earth_d
     0000029A  _earth_da |    0000045A  G$earth_t |    0000045A  _earth_ti
     00000497  _UpdateAc |    0000070F  _UpdateCa |    0000084C  _SetTile 
     00000863  _WaitForM |    00000889  gbt_get_p |    000008A8  _gbt_play
     00000963  _gbt_paus |    00000974  _gbt_loop |    0000097B  _gbt_stop
     00000986  _gbt_enab |    0000098D  _gbt_upda |    00000A92  A$Actor$1
     00000A92  C$Actor.c |    00000A92  G$ActorsI |    00000A92  _ActorsIn
     00000A93  A$Actor$1 |    00000A93  C$Actor.c |    00000A94  A$Actor$1
     00000A96  A$Actor$1 |    00000A97  A$Actor$1 |    00000A97  C$Actor.c
     00000A99  A$Actor$1 |    00000A9A  A$Actor$1 |    00000A9C  A$Actor$1
     00000A9D  A$Actor$1 |    00000A9E  A$Actor$1 |    00000A9F  A$Actor$1
     00000AA1  A$Actor$1 |    00000AA2  A$Actor$1 |    00000AA3  A$Actor$1
     00000AA5  A$Actor$1 |    00000AA6  A$Actor$1 |    00000AA7  A$Actor$1
     00000AA9  A$Actor$1 |    00000AAA  A$Actor$1 |    00000AAC  A$Actor$1
     00000AAD  A$Actor$1 |    00000AAE  A$Actor$1 |    00000AAF  A$Actor$1
     00000AB0  A$Actor$1 |    00000AB1  A$Actor$1 |    00000AB2  A$Actor$1
     00000AB3  A$Actor$1 |    00000AB4  A$Actor$1 |    00000AB5  A$Actor$1
ASxxxx Linker V03.00 + NoICE + sdld,  page 4.
Hexadecimal  [32-Bits]

Area                       Addr        Size        Decimal Bytes (Attributes)
--------------------       ----        ----        ------- ----- ------------
_CODE                  00000200    0000227C =        8828. bytes (REL,CON)

        Value  Global            Value  Global            Value  Global    
        -----  ------            -----  ------            -----  ------    
     00000AB6  A$Actor$1 |    00000AB9  A$Actor$1 |    00000ABA  A$Actor$1
     00000ABB  A$Actor$1 |    00000ABC  A$Actor$1 |    00000ABD  A$Actor$1
     00000ABE  A$Actor$1 |    00000ABF  A$Actor$1 |    00000AC0  A$Actor$1
     00000AC1  A$Actor$1 |    00000AC1  C$Actor.c |    00000AC3  A$Actor$1
     00000AC4  A$Actor$1 |    00000AC5  A$Actor$1 |    00000AC7  A$Actor$1
     00000AC9  A$Actor$1 |    00000ACA  A$Actor$1 |    00000ACA  C$Actor.c
     00000ACA  XG$Actors |    00000ACB  A$Actor$1 |    00000ACB  C$Actor.c
     00000ACB  C$Actor.c |    00000ACB  G$Activat |    00000ACB  _Activate
     00000ACD  A$Actor$2 |    00000ACE  A$Actor$2 |    00000ACF  A$Actor$2
     00000AD2  A$Actor$2 |    00000AD3  A$Actor$2 |    00000AD3  C$Actor.c
     00000AD5  A$Actor$2 |    00000AD6  A$Actor$2 |    00000AD7  A$Actor$2
     00000AD8  A$Actor$2 |    00000ADB  A$Actor$2 |    00000ADC  A$Actor$2
     00000ADC  C$Actor.c |    00000ADC  C$Actor.c |    00000ADC  XG$Activa
     00000ADF  A$Actor$2 |    00000ADF  C$Actor.c |    00000ADF  C$Actor.c
     00000ADF  G$Deactiv |    00000ADF  _Deactiva |    00000AE1  A$Actor$2
     00000AE2  A$Actor$2 |    00000AE3  A$Actor$2 |    00000AE6  A$Actor$2
     00000AE7  A$Actor$2 |    00000AE7  C$Actor.c |    00000AE9  A$Actor$2
     00000AEA  A$Actor$2 |    00000AEB  A$Actor$2 |    00000AEC  A$Actor$2
     00000AEF  A$Actor$2 |    00000AF0  A$Actor$2 |    00000AF0  C$Actor.c
     00000AF0  C$Actor.c |    00000AF0  XG$Deacti |    00000AF3  A$Actor$2
     00000AF3  C$Actor.c |    00000AF3  G$Deactiv |    00000AF3  _Deactiva
     00000AF5  A$Actor$2 |    00000AF5  C$Actor.c |    00000AF7  A$Actor$2
     00000AF8  A$Actor$2 |    00000AFB  A$Actor$2 |    00000AFC  A$Actor$2
     00000AFD  A$Actor$2 |    00000AFE  A$Actor$2 |    00000B00  A$Actor$2
     00000B02  A$Actor$2 |    00000B02  C$Actor.c |    00000B05  A$Actor$2
     00000B07  A$Actor$2 |    00000B08  A$Actor$2 |    00000B0A  A$Actor$2
     00000B0B  A$Actor$2 |    00000B0C  A$Actor$2 |    00000B0D  A$Actor$2
     00000B0E  A$Actor$2 |    00000B0F  A$Actor$2 |    00000B10  A$Actor$2
     00000B11  A$Actor$2 |    00000B13  A$Actor$3 |    00000B13  C$Actor.c
     00000B14  A$Actor$3 |    00000B15  A$Actor$3 |    00000B15  C$Actor.c
     00000B17  A$Actor$3 |    00000B17  C$Actor.c |    00000B1A  A$Actor$3
     00000B1C  A$Actor$3 |    00000B1D  A$Actor$3 |    00000B1F  A$Actor$3
     00000B20  A$Actor$3 |    00000B21  A$Actor$3 |    00000B22  A$Actor$3
     00000B23  A$Actor$3 |    00000B24  A$Actor$3 |    00000B25  A$Actor$3
     00000B26  A$Actor$3 |    00000B27  A$Actor$3 |    00000B28  A$Actor$3
     00000B29  A$Actor$3 |    00000B2A  A$Actor$3 |    00000B2B  A$Actor$3
     00000B2C  A$Actor$3 |    00000B2F  A$Actor$3 |    00000B30  A$Actor$3
     00000B31  A$Actor$3 |    00000B32  A$Actor$3 |    00000B33  A$Actor$3
     00000B34  A$Actor$3 |    00000B35  A$Actor$3 |    00000B36  A$Actor$3
     00000B37  A$Actor$3 |    00000B3A  A$Actor$3 |    00000B3B  A$Actor$3
     00000B3C  A$Actor$3 |    00000B3D  A$Actor$3 |    00000B3D  C$Actor.c
     00000B3E  A$Actor$3 |    00000B3F  A$Actor$3 |    00000B3F  C$Actor.c
     00000B42  A$Actor$3 |    00000B43  A$Actor$3 |    00000B44  A$Actor$3
     00000B45  A$Actor$3 |    00000B47  A$Actor$3 |    00000B47  C$Actor.c
     00000B49  A$Actor$3 |    00000B4A  A$Actor$3 |    00000B4B  A$Actor$3
     00000B4C  A$Actor$3 |    00000B4D  A$Actor$3 |    00000B4E  A$Actor$3
     00000B51  A$Actor$3 |    00000B53  A$Actor$3 |    00000B53  C$Actor.c
     00000B56  A$Actor$3 |    00000B57  A$Actor$3 |    00000B59  A$Actor$3
     00000B5A  A$Actor$3 |    00000B5B  A$Actor$3 |    00000B5D  A$Actor$3
     00000B5F  A$Actor$3 |    00000B60  A$Actor$3 |    00000B61  A$Actor$3
     00000B62  A$Actor$3 |    00000B63  A$Actor$3 |    00000B64  A$Actor$3
ASxxxx Linker V03.00 + NoICE + sdld,  page 5.
Hexadecimal  [32-Bits]

Area                       Addr        Size        Decimal Bytes (Attributes)
--------------------       ----        ----        ------- ----- ------------
_CODE                  00000200    0000227C =        8828. bytes (REL,CON)

        Value  Global            Value  Global            Value  Global    
        -----  ------            -----  ------            -----  ------    
     00000B65  A$Actor$3 |    00000B67  A$Actor$3 |    00000B67  C$Actor.c
     00000B67  XG$Deacti |    00000B68  A$Actor$4 |    00000B68  C$Actor.c
     00000B68  C$Actor.c |    00000B68  G$ActorAt |    00000B68  _ActorAtT
     00000B6A  A$Actor$4 |    00000B6B  A$Actor$4 |    00000B6C  A$Actor$4
     00000B6F  A$Actor$4 |    00000B70  A$Actor$4 |    00000B70  C$Actor.c
     00000B72  A$Actor$4 |    00000B73  A$Actor$4 |    00000B74  A$Actor$4
     00000B75  A$Actor$4 |    00000B76  A$Actor$4 |    00000B77  A$Actor$4
     00000B78  A$Actor$4 |    00000B79  A$Actor$4 |    00000B7A  A$Actor$4
     00000B7B  A$Actor$4 |    00000B7C  A$Actor$4 |    00000B7D  A$Actor$4
     00000B80  A$Actor$4 |    00000B82  A$Actor$4 |    00000B82  C$Actor.c
     00000B83  A$Actor$4 |    00000B86  A$Actor$4 |    00000B87  A$Actor$4
     00000B87  C$Actor.c |    00000B87  C$Actor.c |    00000B87  XG$ActorA
     00000B88  A$Actor$4 |    00000B88  C$Actor.c |    00000B88  C$Actor.c
     00000B88  G$ActorAt |    00000B88  _ActorAt1 |    00000B8A  A$Actor$4
     00000B8B  A$Actor$4 |    00000B8C  A$Actor$4 |    00000B8F  A$Actor$4
     00000B90  A$Actor$4 |    00000B90  C$Actor.c |    00000B92  A$Actor$4
     00000B93  A$Actor$4 |    00000B94  A$Actor$4 |    00000B95  A$Actor$4
     00000B96  A$Actor$4 |    00000B97  A$Actor$4 |    00000B98  A$Actor$4
     00000B99  A$Actor$4 |    00000B9A  A$Actor$4 |    00000B9B  A$Actor$4
     00000B9C  A$Actor$4 |    00000B9D  A$Actor$4 |    00000BA0  A$Actor$4
     00000BA2  A$Actor$4 |    00000BA2  C$Actor.c |    00000BA3  A$Actor$4
     00000BA6  A$Actor$4 |    00000BA7  A$Actor$4 |    00000BA7  C$Actor.c
     00000BA7  C$Actor.c |    00000BA7  XG$ActorA |    00000BA8  A$Actor$5
     00000BA8  C$Actor.c |    00000BA8  C$Actor.c |    00000BA8  G$ActorAt
     00000BA8  _ActorAt1 |    00000BAA  A$Actor$5 |    00000BAB  A$Actor$5
     00000BAC  A$Actor$5 |    00000BAF  A$Actor$5 |    00000BB0  A$Actor$5
     00000BB0  C$Actor.c |    00000BB2  A$Actor$5 |    00000BB3  A$Actor$5
     00000BB4  A$Actor$5 |    00000BB5  A$Actor$5 |    00000BB6  A$Actor$5
     00000BB7  A$Actor$5 |    00000BB8  A$Actor$5 |    00000BB9  A$Actor$5
     00000BBA  A$Actor$5 |    00000BBB  A$Actor$5 |    00000BBC  A$Actor$5
     00000BBD  A$Actor$5 |    00000BC0  A$Actor$5 |    00000BC2  A$Actor$5
     00000BC2  C$Actor.c |    00000BC3  A$Actor$5 |    00000BC6  A$Actor$5
     00000BC7  A$Actor$5 |    00000BC7  C$Actor.c |    00000BC7  C$Actor.c
     00000BC7  XG$ActorA |    00000BC8  A$Actor$5 |    00000BC8  C$Actor.c
     00000BC8  C$Actor.c |    00000BC8  G$ActorAt |    00000BC8  _ActorAt3
     00000BCA  A$Actor$5 |    00000BCB  A$Actor$5 |    00000BCC  A$Actor$5
     00000BCF  A$Actor$5 |    00000BD0  A$Actor$5 |    00000BD0  C$Actor.c
     00000BD2  A$Actor$5 |    00000BD3  A$Actor$5 |    00000BD4  A$Actor$5
     00000BD5  A$Actor$5 |    00000BD6  A$Actor$5 |    00000BD7  A$Actor$5
     00000BD8  A$Actor$5 |    00000BD9  A$Actor$5 |    00000BDA  A$Actor$5
     00000BDB  A$Actor$5 |    00000BDC  A$Actor$5 |    00000BDD  A$Actor$5
     00000BE0  A$Actor$5 |    00000BE2  A$Actor$5 |    00000BE2  C$Actor.c
     00000BE3  A$Actor$5 |    00000BE6  A$Actor$5 |    00000BE7  A$Actor$5
     00000BE7  C$Actor.c |    00000BE7  C$Actor.c |    00000BE7  XG$ActorA
     00000BE8  A$Actor$6 |    00000BE8  C$Actor.c |    00000BE8  C$Actor.c
     00000BE8  G$ActorOv |    00000BE8  _ActorOve |    00000BEA  A$Actor$6
     00000BEB  A$Actor$6 |    00000BEC  A$Actor$6 |    00000BEF  A$Actor$6
     00000BF0  A$Actor$6 |    00000BF0  C$Actor.c |    00000BF2  A$Actor$6
     00000BF3  A$Actor$6 |    00000BF4  A$Actor$6 |    00000BF5  A$Actor$6
     00000BF8  A$Actor$6 |    00000BF9  A$Actor$6 |    00000BF9  C$Actor.c
     00000BFA  A$Actor$6 |    00000BFD  A$Actor$6 |    00000BFE  A$Actor$6
ASxxxx Linker V03.00 + NoICE + sdld,  page 6.
Hexadecimal  [32-Bits]

Area                       Addr        Size        Decimal Bytes (Attributes)
--------------------       ----        ----        ------- ----- ------------
_CODE                  00000200    0000227C =        8828. bytes (REL,CON)

        Value  Global            Value  Global            Value  Global    
        -----  ------            -----  ------            -----  ------    
     00000BFE  C$Actor.c |    00000BFE  C$Actor.c |    00000BFE  XG$ActorO
     00000BFF  A$Actor$6 |    00000BFF  C$Actor.c |    00000BFF  C$Actor.c
     00000BFF  G$ActorIn |    00000BFF  _ActorInF |    00000C01  A$Actor$6
     00000C02  A$Actor$6 |    00000C03  A$Actor$6 |    00000C06  A$Actor$6
     00000C07  A$Actor$6 |    00000C07  C$Actor.c |    00000C09  A$Actor$6
     00000C0A  A$Actor$6 |    00000C0B  A$Actor$6 |    00000C0C  A$Actor$6
     00000C0F  A$Actor$6 |    00000C10  A$Actor$6 |    00000C10  C$Actor.c
     00000C11  A$Actor$6 |    00000C14  A$Actor$6 |    00000C15  A$Actor$6
     00000C15  C$Actor.c |    00000C15  C$Actor.c |    00000C15  XG$ActorI
     00000C16  A$Actor$6 |    00000C16  C$Actor.c |    00000C16  C$Actor.c
     00000C16  G$CheckCo |    00000C16  _CheckCol |    00000C18  A$Actor$6
     00000C19  A$Actor$6 |    00000C1A  A$Actor$6 |    00000C1D  A$Actor$6
     00000C1E  A$Actor$7 |    00000C1E  C$Actor.c |    00000C20  A$Actor$7
     00000C21  A$Actor$7 |    00000C22  A$Actor$7 |    00000C23  A$Actor$7
     00000C24  A$Actor$7 |    00000C25  A$Actor$7 |    00000C26  A$Actor$7
     00000C27  A$Actor$7 |    00000C28  A$Actor$7 |    00000C29  A$Actor$7
     00000C2A  A$Actor$7 |    00000C2B  A$Actor$7 |    00000C2C  A$Actor$7
     00000C2D  A$Actor$7 |    00000C2E  A$Actor$7 |    00000C2F  A$Actor$7
     00000C32  A$Actor$7 |    00000C34  A$Actor$7 |    00000C34  C$Actor.c
     00000C35  A$Actor$7 |    00000C38  A$Actor$7 |    00000C39  A$Actor$7
     00000C39  C$Actor.c |    00000C39  C$Actor.c |    00000C39  XG$CheckC
     00000C3A  A$Actor$7 |    00000C3A  C$Actor.c |    00000C3A  C$Actor.c
     00000C3A  G$InitPla |    00000C3A  _InitPlay |    00000C3C  A$Actor$7
     00000C3D  A$Actor$7 |    00000C3E  A$Actor$7 |    00000C41  A$Actor$7
     00000C42  A$Actor$7 |    00000C42  C$Actor.c |    00000C45  A$Actor$7
     00000C45  C$Actor.c |    00000C45  C$Actor.c |    00000C45  XG$InitPl
     00000C48  A$Actor$7 |    00000C48  C$Actor.c |    00000C48  C$Actor.c
     00000C48  G$ActorRu |    00000C48  _ActorRun |    00000C4A  A$Actor$7
     00000C4B  A$Actor$7 |    00000C4E  A$Actor$7 |    00000C4F  A$Actor$7
     00000C4F  C$Actor.c |    00000C51  A$Actor$7 |    00000C52  A$Actor$7
     00000C53  A$Actor$7 |    00000C54  A$Actor$7 |    00000C55  A$Actor$7
     00000C56  A$Actor$7 |    00000C57  A$Actor$7 |    00000C58  A$Actor$7
     00000C59  A$Actor$7 |    00000C5A  A$Actor$7 |    00000C5B  A$Actor$7
     00000C5D  A$Actor$7 |    00000C5E  A$Actor$7 |    00000C5F  A$Actor$8
     00000C61  A$Actor$8 |    00000C62  A$Actor$8 |    00000C63  A$Actor$8
     00000C66  A$Actor$8 |    00000C67  A$Actor$8 |    00000C69  A$Actor$8
     00000C69  C$Actor.c |    00000C6C  A$Actor$8 |    00000C6D  A$Actor$8
     00000C6E  A$Actor$8 |    00000C71  A$Actor$8 |    00000C73  A$Actor$8
     00000C73  C$Actor.c |    00000C73  XG$ActorR |    00000C74  A$Actor$8
     00000C74  C$Actor.c |    00000C74  C$Actor.c |    00000C74  G$ActorRu
     00000C74  _ActorRun |    00000C76  A$Actor$8 |    00000C77  A$Actor$8
     00000C78  A$Actor$8 |    00000C7B  A$Actor$8 |    00000C7C  A$Actor$8
     00000C7C  C$Actor.c |    00000C7F  A$Actor$8 |    00000C7F  C$Actor.c
     00000C7F  C$Actor.c |    00000C7F  XG$ActorR |    00000C82  A$BankDat
     00000C82  C$BankDat |    00000C82  C$BankDat |    00000C82  G$SetBank
     00000C82  _SetBanke |    00000C84  A$BankDat |    00000C85  A$BankDat
     00000C86  A$BankDat |    00000C87  A$BankDat |    00000C8A  A$BankDat
     00000C8B  A$BankDat |    00000C8B  C$BankDat |    00000C8E  A$BankDat
     00000C8E  C$BankDat |    00000C90  A$BankDat |    00000C91  A$BankDat
     00000C92  A$BankDat |    00000C93  A$BankDat |    00000C94  A$BankDat
     00000C96  A$BankDat |    00000C97  A$BankDat |    00000C98  A$BankDat
ASxxxx Linker V03.00 + NoICE + sdld,  page 7.
Hexadecimal  [32-Bits]

Area                       Addr        Size        Decimal Bytes (Attributes)
--------------------       ----        ----        ------- ----- ------------
_CODE                  00000200    0000227C =        8828. bytes (REL,CON)

        Value  Global            Value  Global            Value  Global    
        -----  ------            -----  ------            -----  ------    
     00000C99  A$BankDat |    00000C9A  A$BankDat |    00000C9B  A$BankDat
     00000C9C  A$BankDat |    00000C9D  A$BankDat |    00000CA0  A$BankDat
     00000CA2  A$BankDat |    00000CA2  C$BankDat |    00000CA2  C$BankDat
     00000CA2  XG$SetBan |    00000CA5  A$BankDat |    00000CA5  C$BankDat
     00000CA5  C$BankDat |    00000CA5  G$SetBank |    00000CA5  _SetBanke
     00000CA7  A$BankDat |    00000CA8  A$BankDat |    00000CA9  A$BankDat
     00000CAA  A$BankDat |    00000CAD  A$BankDat |    00000CAE  A$BankDat
     00000CAE  C$BankDat |    00000CB0  A$BankDat |    00000CB1  A$BankDat
     00000CB2  A$BankDat |    00000CB3  A$BankDat |    00000CB4  A$BankDat
     00000CB6  A$BankDat |    00000CB7  A$BankDat |    00000CB8  A$BankDat
     00000CB9  A$BankDat |    00000CBA  A$BankDat |    00000CBB  A$BankDat
     00000CBC  A$BankDat |    00000CBD  A$BankDat |    00000CC0  A$BankDat
     00000CC2  A$BankDat |    00000CC2  C$BankDat |    00000CC2  C$BankDat
     00000CC2  XG$SetBan |    00000CC5  A$BankDat |    00000CC5  C$BankDat
     00000CC5  C$BankDat |    00000CC5  G$ReadBan |    00000CC5  _ReadBank
     00000CC7  A$BankDat |    00000CC8  A$BankDat |    00000CC9  A$BankDat
     00000CCA  A$BankDat |    00000CCD  A$BankDat |    00000CCE  A$BankDat
     00000CCE  C$BankDat |    00000CD0  A$BankDat |    00000CD1  A$BankDat
     00000CD2  A$BankDat |    00000CD3  A$BankDat |    00000CD4  A$BankDat
     00000CD5  A$BankDat |    00000CD5  C$BankDat |    00000CD6  A$BankDat
     00000CD9  A$BankDat |    00000CDA  A$BankDat |    00000CDA  C$BankDat
     00000CDA  C$BankDat |    00000CDA  XG$ReadBa |    00000CDB  A$BankDat
     00000CDB  C$BankDat |    00000CDB  G$ReadBan |    00000CDB  _ReadBank
     00000CDD  A$BankDat |    00000CDD  C$BankDat |    00000CDF  A$BankDat
     00000CE0  A$BankDat |    00000CE1  A$BankDat |    00000CE2  A$BankDat
     00000CE5  A$BankDat |    00000CE6  A$BankDat |    00000CE6  C$BankDat
     00000CE8  A$BankDat |    00000CE9  A$BankDat |    00000CEA  A$BankDat
     00000CEB  A$BankDat |    00000CED  A$BankDat |    00000CEE  A$BankDat
     00000CEF  A$BankDat |    00000CF0  A$BankDat |    00000CF2  A$BankDat
     00000CF3  A$BankDat |    00000CF4  A$BankDat |    00000CF5  A$BankDat
     00000CF8  A$BankDat |    00000CFA  A$BankDat |    00000CFD  A$BankDat
     00000CFE  A$BankDat |    00000CFE  C$BankDat |    00000D00  A$BankDat
     00000D01  A$BankDat |    00000D02  A$BankDat |    00000D03  A$BankDat
     00000D06  A$BankDat |    00000D07  A$BankDat |    00000D08  A$BankDat
     00000D09  A$BankDat |    00000D0C  A$BankDat |    00000D0E  A$BankDat
     00000D10  A$BankDat |    00000D10  C$BankDat |    00000D10  XG$ReadBa
     00000D11  A$BankDat |    00000D11  C$BankDat |    00000D11  C$BankDat
     00000D11  G$MemcpyB |    00000D11  _MemcpyBa |    00000D13  A$BankDat
     00000D14  A$BankDat |    00000D15  A$BankDat |    00000D16  A$BankDat
     00000D19  A$BankDat |    00000D1A  A$BankDat |    00000D1A  C$BankDat
     00000D1C  A$BankDat |    00000D1D  A$BankDat |    00000D1E  A$BankDat
     00000D1F  A$BankDat |    00000D20  A$BankDat |    00000D22  A$BankDat
     00000D23  A$BankDat |    00000D24  A$BankDat |    00000D25  A$BankDat
     00000D26  A$BankDat |    00000D28  A$BankDat |    00000D29  A$BankDat
     00000D2A  A$BankDat |    00000D2B  A$BankDat |    00000D2C  A$BankDat
     00000D2F  A$BankDat |    00000D31  A$BankDat |    00000D31  C$BankDat
     00000D31  C$BankDat |    00000D31  XG$Memcpy |    00000D34  A$BankMan
     00000D34  C$BankMan |    00000D34  C$BankMan |    00000D34  G$PushBan
     00000D34  _PushBank |    00000D36  A$BankMan |    00000D37  A$BankMan
     00000D38  A$BankMan |    00000D39  A$BankMan |    00000D3C  A$BankMan
     00000D3D  A$BankMan |    00000D40  A$BankMan |    00000D42  A$BankMan
ASxxxx Linker V03.00 + NoICE + sdld,  page 8.
Hexadecimal  [32-Bits]

Area                       Addr        Size        Decimal Bytes (Attributes)
--------------------       ----        ----        ------- ----- ------------
_CODE                  00000200    0000227C =        8828. bytes (REL,CON)

        Value  Global            Value  Global            Value  Global    
        -----  ------            -----  ------            -----  ------    
     00000D42  C$BankMan |    00000D44  A$BankMan |    00000D45  A$BankMan
     00000D47  A$BankMan |    00000D48  A$BankMan |    00000D4A  A$BankMan
     00000D4D  A$BankMan |    00000D4E  A$BankMan |    00000D51  A$BankMan
     00000D53  A$BankMan |    00000D54  A$BankMan |    00000D55  A$BankMan
     00000D55  C$BankMan |    00000D55  XG$PushBa |    00000D56  A$BankMan
     00000D56  C$BankMan |    00000D56  C$BankMan |    00000D56  G$PopBank
     00000D56  _PopBank  |    00000D59  A$BankMan |    00000D5A  A$BankMan
     00000D5B  A$BankMan |    00000D5C  A$BankMan |    00000D5D  A$BankMan
     00000D60  A$BankMan |    00000D62  A$BankMan |    00000D63  A$BankMan
     00000D63  C$BankMan |    00000D64  A$BankMan |    00000D65  A$BankMan
     00000D67  A$BankMan |    00000D68  A$BankMan |    00000D69  A$BankMan
     00000D6B  A$BankMan |    00000D6D  A$BankMan |    00000D70  A$BankMan
     00000D71  A$BankMan |    00000D72  A$BankMan |    00000D74  A$BankMan
     00000D75  A$BankMan |    00000D76  A$BankMan |    00000D79  A$BankMan
     00000D79  C$BankMan |    00000D79  XG$PopBan |    00000D7A  A$Collisi
     00000D7A  C$Collisi |    00000D7A  C$Collisi |    00000D7A  G$TileAt$
     00000D7A  _TileAt   |    00000D7C  A$Collisi |    00000D7D  A$Collisi
     00000D7E  A$Collisi |    00000D80  A$Collisi |    00000D82  A$Collisi
     00000D83  A$Collisi |    00000D86  A$Collisi |    00000D87  A$Collisi
     00000D89  A$Collisi |    00000D8B  A$Collisi |    00000D8C  A$Collisi
     00000D8F  A$Collisi |    00000D90  A$Collisi |    00000D92  A$Collisi
     00000D94  A$Collisi |    00000D95  A$Collisi |    00000D96  A$Collisi
     00000D98  A$Collisi |    00000D98  C$Collisi |    00000D9A  A$Collisi
     00000D9B  A$Collisi |    00000D9B  C$Collisi |    00000D9E  A$Collisi
     00000D9F  A$Collisi |    00000DA1  A$Collisi |    00000DA3  A$Collisi
     00000DA4  A$Collisi |    00000DA6  A$Collisi |    00000DA7  A$Collisi
     00000DA8  A$Collisi |    00000DAB  A$Collisi |    00000DAD  A$Collisi
     00000DAD  C$Collisi |    00000DAE  A$Collisi |    00000DB1  A$Collisi
     00000DB2  A$Collisi |    00000DB3  A$Collisi |    00000DB6  A$Collisi
     00000DB7  A$Collisi |    00000DB8  A$Collisi |    00000DB8  C$Collisi
     00000DB9  A$Collisi |    00000DBC  A$Collisi |    00000DBD  A$Collisi
     00000DBE  A$Collisi |    00000DBF  A$Collisi |    00000DC0  A$Collisi
     00000DC1  A$Collisi |    00000DC2  A$Collisi |    00000DC4  A$Collisi
     00000DC5  A$Collisi |    00000DC7  A$Collisi |    00000DC8  A$Collisi
     00000DC9  A$Collisi |    00000DCA  A$Collisi |    00000DCB  A$Collisi
     00000DCC  A$Collisi |    00000DCC  C$Collisi |    00000DCD  A$Collisi
     00000DD0  A$Collisi |    00000DD1  A$Collisi |    00000DD1  C$Collisi
     00000DD1  C$Collisi |    00000DD1  XG$TileAt |    00000DD2  A$Collisi
     00000DD2  C$Collisi |    00000DD2  C$Collisi |    00000DD2  G$TileAt2
     00000DD2  _TileAt2x |    00000DD4  A$Collisi |    00000DD5  A$Collisi
     00000DD6  A$Collisi |    00000DD8  A$Collisi |    00000DDA  A$Collisi
     00000DDB  A$Collisi |    00000DDE  A$Collisi |    00000DDF  A$Collisi
     00000DE1  A$Collisi |    00000DE3  A$Collisi |    00000DE4  A$Collisi
     00000DE7  A$Collisi |    00000DE8  A$Collisi |    00000DEA  A$Collisi
     00000DEC  A$Collisi |    00000DED  A$Collisi |    00000DEE  A$Collisi
     00000DF0  A$Collisi |    00000DF0  C$Collisi |    00000DF2  A$Collisi
     00000DF3  A$Collisi |    00000DF3  C$Collisi |    00000DF6  A$Collisi
     00000DF7  A$Collisi |    00000DF9  A$Collisi |    00000DFB  A$Collisi
     00000DFC  A$Collisi |    00000DFE  A$Collisi |    00000DFF  A$Collisi
     00000E00  A$Collisi |    00000E03  A$Collisi |    00000E05  A$Collisi
     00000E07  A$Collisi |    00000E08  A$Collisi |    00000E0A  A$Collisi
ASxxxx Linker V03.00 + NoICE + sdld,  page 9.
Hexadecimal  [32-Bits]

Area                       Addr        Size        Decimal Bytes (Attributes)
--------------------       ----        ----        ------- ----- ------------
_CODE                  00000200    0000227C =        8828. bytes (REL,CON)

        Value  Global            Value  Global            Value  Global    
        -----  ------            -----  ------            -----  ------    
     00000E0B  A$Collisi |    00000E0C  A$Collisi |    00000E0D  A$Collisi
     00000E0E  A$Collisi |    00000E0F  A$Collisi |    00000E10  A$Collisi
     00000E11  A$Collisi |    00000E14  A$Collisi |    00000E15  A$Collisi
     00000E16  A$Collisi |    00000E17  A$Collisi |    00000E18  A$Collisi
     00000E19  A$Collisi |    00000E1A  A$Collisi |    00000E1A  C$Collisi
     00000E1B  A$Collisi |    00000E1E  A$Collisi |    00000E1F  A$Collisi
     00000E20  A$Collisi |    00000E23  A$Collisi |    00000E24  A$Collisi
     00000E25  A$Collisi |    00000E25  C$Collisi |    00000E26  A$Collisi
     00000E27  A$Collisi |    00000E28  A$Collisi |    00000E29  A$Collisi
     00000E2A  A$Collisi |    00000E2B  A$Collisi |    00000E2B  C$Collisi
     00000E2C  A$Collisi |    00000E2F  A$Collisi |    00000E30  A$Collisi
     00000E30  C$Collisi |    00000E30  C$Collisi |    00000E30  XG$TileAt
     00000E31  A$Collisi |    00000E31  C$Collisi |    00000E31  C$Collisi
     00000E31  G$TileAt2 |    00000E31  _TileAt2x |    00000E33  A$Collisi
     00000E34  A$Collisi |    00000E35  A$Collisi |    00000E37  A$Collisi
     00000E39  A$Collisi |    00000E3A  A$Collisi |    00000E3D  A$Collisi
     00000E3E  A$Collisi |    00000E40  A$Collisi |    00000E42  A$Collisi
     00000E43  A$Collisi |    00000E46  A$Collisi |    00000E47  A$Collisi
     00000E49  A$Collisi |    00000E4B  A$Collisi |    00000E4C  A$Collisi
     00000E4D  A$Collisi |    00000E4F  A$Collisi |    00000E4F  C$Collisi
     00000E51  A$Collisi |    00000E52  A$Collisi |    00000E52  C$Collisi
     00000E55  A$Collisi |    00000E56  A$Collisi |    00000E58  A$Collisi
     00000E5A  A$Collisi |    00000E5B  A$Collisi |    00000E5D  A$Collisi
     00000E5E  A$Collisi |    00000E5F  A$Collisi |    00000E62  A$Collisi
     00000E64  A$Collisi |    00000E66  A$Collisi |    00000E67  A$Collisi
     00000E69  A$Collisi |    00000E6A  A$Collisi |    00000E6B  A$Collisi
     00000E6C  A$Collisi |    00000E6D  A$Collisi |    00000E6E  A$Collisi
     00000E6F  A$Collisi |    00000E70  A$Collisi |    00000E73  A$Collisi
     00000E74  A$Collisi |    00000E75  A$Collisi |    00000E76  A$Collisi
     00000E77  A$Collisi |    00000E78  A$Collisi |    00000E79  A$Collisi
     00000E79  C$Collisi |    00000E7A  A$Collisi |    00000E7D  A$Collisi
     00000E7E  A$Collisi |    00000E7F  A$Collisi |    00000E82  A$Collisi
     00000E83  A$Collisi |    00000E84  A$Collisi |    00000E84  C$Collisi
     00000E85  A$Collisi |    00000E85  C$Collisi |    00000E86  A$Collisi
     00000E87  A$Collisi |    00000E89  A$Collisi |    00000E89  C$Collisi
     00000E8A  A$Collisi |    00000E8B  A$Collisi |    00000E8C  A$Collisi
     00000E8D  A$Collisi |    00000E8D  C$Collisi |    00000E8E  A$Collisi
     00000E8F  A$Collisi |    00000E91  A$Collisi |    00000E91  C$Collisi
     00000E94  A$Collisi |    00000E95  A$Collisi |    00000E97  A$Collisi
     00000E98  A$Collisi |    00000E99  A$Collisi |    00000E9A  A$Collisi
     00000E9A  C$Collisi |    00000E9B  A$Collisi |    00000E9B  C$Collisi
     00000E9C  A$Collisi |    00000E9D  A$Collisi |    00000E9F  A$Collisi
     00000E9F  C$Collisi |    00000EA0  A$Collisi |    00000EA1  A$Collisi
     00000EA1  C$Collisi |    00000EA2  A$Collisi |    00000EA5  A$Collisi
     00000EA6  A$Collisi |    00000EA6  C$Collisi |    00000EA6  C$Collisi
     00000EA6  XG$TileAt |    00000EA7  A$Core_Ma |    00000EA7  C$Core_Ma
     00000EA7  C$Core_Ma |    00000EA7  G$tile_sp |    00000EA7  _tile_spr
     00000EAA  A$Core_Ma |    00000EAB  A$Core_Ma |    00000EAB  C$gb.h$61
     00000EAE  A$Core_Ma |    00000EAF  A$Core_Ma |    00000EAF  C$Core_Ma
     00000EB2  A$Core_Ma |    00000EB3  A$Core_Ma |    00000EB3  C$gb.h$61
     00000EB6  A$Core_Ma |    00000EB7  A$Core_Ma |    00000EB7  C$Core_Ma
ASxxxx Linker V03.00 + NoICE + sdld,  page 10.
Hexadecimal  [32-Bits]

Area                       Addr        Size        Decimal Bytes (Attributes)
--------------------       ----        ----        ------- ----- ------------
_CODE                  00000200    0000227C =        8828. bytes (REL,CON)

        Value  Global            Value  Global            Value  Global    
        -----  ------            -----  ------            -----  ------    
     00000EB7  C$Core_Ma |    00000EB7  XG$tile_s |    00000EB8  G$earth_d
     00000EB8  _earth_da |    00001078  G$earth_t |    00001078  _earth_ti
     00001086  A$Core_Ma |    00001086  C$Core_Ma |    00001086  C$gb.h$65
     00001086  G$place_s |    00001086  _place_sp |    00001089  A$Core_Ma
     00001089  C$gb.h$65 |    0000108B  A$Core_Ma |    0000108C  A$Core_Ma
     0000108E  A$Core_Ma |    0000108E  C$gb.h$65 |    00001091  A$Core_Ma
     00001091  C$gb.h$65 |    00001093  A$Core_Ma |    00001094  A$Core_Ma
     00001096  A$Core_Ma |    00001096  C$Core_Ma |    00001096  C$Core_Ma
     00001096  XG$place_ |    00001097  A$Core_Ma |    00001097  C$Core_Ma
     00001097  C$Core_Ma |    00001097  G$SetScen |    00001097  _SetScene
     0000109A  A$Core_Ma |    0000109C  A$Core_Ma |    0000109C  C$Core_Ma
     0000109E  A$Core_Ma |    0000109F  A$Core_Ma |    000010A0  A$Core_Ma
     000010A3  A$Core_Ma |    000010A4  A$Core_Ma |    000010A5  A$Core_Ma
     000010A5  C$Core_Ma |    000010A5  XG$SetSce |    000010A6  A$Core_Ma
     000010A6  C$Core_Ma |    000010A6  C$Core_Ma |    000010A6  G$core_st
     000010A6  _core_sta |    000010A9  A$Core_Ma |    000010A9  C$Core_Ma
     000010AC  A$Core_Ma |    000010AC  C$Core_Ma |    000010AE  A$Core_Ma
     000010B0  A$Core_Ma |    000010B0  C$Core_Ma |    000010B2  A$Core_Ma
     000010B4  A$Core_Ma |    000010B6  A$Core_Ma |    000010B8  A$Core_Ma
     000010BA  A$Core_Ma |    000010BC  A$Core_Ma |    000010BC  C$Core_Ma
     000010BF  A$Core_Ma |    000010C0  A$Core_Ma |    000010C2  A$Core_Ma
     000010C3  A$Core_Ma |    000010C4  A$Core_Ma |    000010C5  A$Core_Ma
     000010C6  A$Core_Ma |    000010C7  A$Core_Ma |    000010CA  A$Core_Ma
     000010CC  A$Core_Ma |    000010CC  C$gb.h$63 |    000010CF  A$Core_Ma
     000010D1  A$Core_Ma |    000010D4  A$Core_Ma |    000010D6  A$Core_Ma
     000010D6  C$Core_Ma |    000010D9  A$Core_Ma |    000010D9  C$Core_Ma
     000010DC  A$Core_Ma |    000010DC  C$Core_Ma |    000010DE  A$Core_Ma
     000010E0  A$Core_Ma |    000010E2  A$Core_Ma |    000010E2  C$Core_Ma
     000010E5  A$Core_Ma |    000010E5  C$Core_Ma |    000010E8  A$Core_Ma
     000010E9  A$Core_Ma |    000010EB  A$Core_Ma |    000010EB  C$Core_Ma
     000010EE  A$Core_Ma |    000010EF  A$Core_Ma |    000010F1  A$Core_Ma
     000010F1  C$Core_Ma |    000010F4  A$Core_Ma |    000010F4  C$Core_Ma
     000010F7  A$Core_Ma |    000010F8  A$Core_Ma |    000010FA  A$Core_Ma
     000010FD  A$Core_Ma |    000010FF  A$Core_Ma |    00001102  A$Core_Ma
     00001105  A$Core_Ma |    00001106  A$Core_Ma |    00001106  C$Core_Ma
     00001109  A$Core_Ma |    0000110B  A$Core_Ma |    0000110B  C$Core_Ma
     0000110E  A$Core_Ma |    00001111  A$Core_Ma |    00001111  C$Core_Ma
     00001114  A$Core_Ma |    00001117  A$Core_Ma |    00001118  A$Core_Ma
     00001118  C$Core_Ma |    00001119  A$Core_Ma |    0000111B  A$Core_Ma
     0000111C  A$Core_Ma |    0000111E  A$Core_Ma |    00001121  A$Core_Ma
     00001122  A$Core_Ma |    00001124  A$Core_Ma |    00001125  A$Core_Ma
     00001127  A$Core_Ma |    00001128  A$Core_Ma |    00001129  A$Core_Ma
     0000112B  A$Core_Ma |    0000112C  A$Core_Ma |    0000112D  A$Core_Ma
     0000112F  A$Core_Ma |    0000112F  C$Core_Ma |    00001130  A$Core_Ma
     00001131  A$Core_Ma |    00001134  A$Core_Ma |    00001135  A$Core_Ma
     00001138  A$Core_Ma |    00001138  C$Core_Ma |    0000113B  A$Core_Ma
     0000113D  A$Core_Ma |    0000113F  A$Core_Ma |    00001140  A$Core_Ma
     00001140  C$gb.h$65 |    00001143  A$Core_Ma |    00001143  C$gb.h$65
     00001145  A$Core_Ma |    00001146  A$Core_Ma |    00001147  A$Core_Ma
     00001147  C$Core_Ma |    0000114A  A$Core_Ma |    0000114C  A$Core_Ma
     0000114E  A$Core_Ma |    00001150  A$Core_Ma |    00001151  A$Core_Ma
ASxxxx Linker V03.00 + NoICE + sdld,  page 11.
Hexadecimal  [32-Bits]

Area                       Addr        Size        Decimal Bytes (Attributes)
--------------------       ----        ----        ------- ----- ------------
_CODE                  00000200    0000227C =        8828. bytes (REL,CON)

        Value  Global            Value  Global            Value  Global    
        -----  ------            -----  ------            -----  ------    
     00001151  C$gb.h$65 |    00001154  A$Core_Ma |    00001154  C$gb.h$65
     00001156  A$Core_Ma |    00001157  A$Core_Ma |    00001158  A$Core_Ma
     00001158  C$Core_Ma |    0000115A  A$Core_Ma |    0000115A  C$Core_Ma
     0000115D  A$Core_Ma |    0000115F  A$Core_Ma |    0000115F  C$Core_Ma
     0000115F  XG$core_s |    00001161  A$DataMan |    00001161  C$DataMan
     00001161  C$DataMan |    00001161  G$LoadTil |    00001161  _LoadTile
     00001163  A$DataMan |    00001164  A$DataMan |    00001165  A$DataMan
     00001168  A$DataMan |    00001169  A$DataMan |    00001169  C$DataMan
     0000116B  A$DataMan |    0000116C  A$DataMan |    0000116D  A$DataMan
     0000116E  A$DataMan |    0000116F  A$DataMan |    00001170  A$DataMan
     00001171  A$DataMan |    00001172  A$DataMan |    00001175  A$DataMan
     00001176  A$DataMan |    00001176  C$DataMan |    00001177  A$DataMan
     00001178  A$DataMan |    00001179  A$DataMan |    0000117A  A$DataMan
     0000117B  A$DataMan |    0000117C  A$DataMan |    0000117E  A$DataMan
     0000117F  A$DataMan |    0000117F  C$DataMan |    00001180  A$DataMan
     00001181  A$DataMan |    00001184  A$DataMan |    00001185  A$DataMan
     00001186  A$DataMan |    00001186  C$DataMan |    00001187  A$DataMan
     00001188  A$DataMan |    00001189  A$DataMan |    0000118C  A$DataMan
     0000118D  A$DataMan |    0000118E  A$DataMan |    0000118E  C$DataMan
     0000118F  A$DataMan |    00001190  A$DataMan |    00001190  C$DataMan
     00001191  A$DataMan |    00001192  A$DataMan |    00001193  A$DataMan
     00001194  A$DataMan |    00001195  A$DataMan |    00001196  A$DataMan
     00001199  A$DataMan |    0000119B  A$DataMan |    0000119B  C$DataMan
     0000119B  C$DataMan |    0000119B  XG$LoadTi |    0000119E  A$DataMan
     0000119E  C$DataMan |    0000119E  C$DataMan |    0000119E  G$LoadIma
     0000119E  _LoadImag |    000011A0  A$DataMan |    000011A1  A$DataMan
     000011A2  A$DataMan |    000011A5  A$DataMan |    000011A6  A$DataMan
     000011A6  C$DataMan |    000011A8  A$DataMan |    000011A9  A$DataMan
     000011AA  A$DataMan |    000011AB  A$DataMan |    000011AC  A$DataMan
     000011AD  A$DataMan |    000011AE  A$DataMan |    000011AF  A$DataMan
     000011B2  A$DataMan |    000011B3  A$DataMan |    000011B4  A$DataMan
     000011B5  A$DataMan |    000011B6  A$DataMan |    000011B9  A$DataMan
     000011B9  C$DataMan |    000011BA  A$DataMan |    000011BB  A$DataMan
     000011BC  A$DataMan |    000011BD  A$DataMan |    000011BE  A$DataMan
     000011BF  A$DataMan |    000011C1  A$DataMan |    000011C2  A$DataMan
     000011C2  C$DataMan |    000011C3  A$DataMan |    000011C6  A$DataMan
     000011C9  A$DataMan |    000011CA  A$DataMan |    000011CB  A$DataMan
     000011CE  A$DataMan |    000011CF  A$DataMan |    000011D0  A$DataMan
     000011D0  C$DataMan |    000011D1  A$DataMan |    000011D2  A$DataMan
     000011D3  A$DataMan |    000011D5  A$DataMan |    000011D6  A$DataMan
     000011D7  A$DataMan |    000011DA  A$DataMan |    000011DC  A$DataMan
     000011DD  A$DataMan |    000011DD  C$DataMan |    000011DE  A$DataMan
     000011E1  A$DataMan |    000011E2  A$DataMan |    000011E2  C$DataMan
     000011E3  A$DataMan |    000011E6  A$DataMan |    000011E7  A$DataMan
     000011EA  A$DataMan |    000011EB  A$DataMan |    000011EC  A$DataMan
     000011ED  A$DataMan |    000011ED  C$DataMan |    000011F0  A$DataMan
     000011F1  A$DataMan |    000011F3  A$DataMan |    000011F5  A$DataMan
     000011F7  A$DataMan |    000011F9  A$DataMan |    000011FB  A$DataMan
     000011FD  A$DataMan |    000011FF  A$DataMan |    00001202  A$DataMan
     00001203  A$DataMan |    00001204  A$DataMan |    00001204  C$DataMan
     00001205  A$DataMan |    00001206  A$DataMan |    00001207  A$DataMan
ASxxxx Linker V03.00 + NoICE + sdld,  page 12.
Hexadecimal  [32-Bits]

Area                       Addr        Size        Decimal Bytes (Attributes)
--------------------       ----        ----        ------- ----- ------------
_CODE                  00000200    0000227C =        8828. bytes (REL,CON)

        Value  Global            Value  Global            Value  Global    
        -----  ------            -----  ------            -----  ------    
     00001209  A$DataMan |    0000120C  A$DataMan |    0000120F  A$DataMan
     00001211  A$DataMan |    00001214  A$DataMan |    00001214  C$DataMan
     00001217  A$DataMan |    00001218  A$DataMan |    0000121A  A$DataMan
     0000121C  A$DataMan |    0000121E  A$DataMan |    00001220  A$DataMan
     00001222  A$DataMan |    00001224  A$DataMan |    00001226  A$DataMan
     00001229  A$DataMan |    0000122A  A$DataMan |    0000122B  A$DataMan
     0000122B  C$DataMan |    0000122C  A$DataMan |    0000122D  A$DataMan
     0000122E  A$DataMan |    00001230  A$DataMan |    00001233  A$DataMan
     00001236  A$DataMan |    00001238  A$DataMan |    0000123B  A$DataMan
     0000123B  C$DataMan |    0000123B  C$DataMan |    0000123B  XG$LoadIm
     0000123E  A$DataMan |    0000123E  C$DataMan |    0000123E  C$DataMan
     0000123E  G$LoadIma |    0000123E  _LoadImag |    00001240  A$DataMan
     00001241  A$DataMan |    00001242  A$DataMan |    00001245  A$DataMan
     00001246  A$DataMan |    00001246  C$DataMan |    00001248  A$DataMan
     00001249  A$DataMan |    0000124A  A$DataMan |    0000124B  A$DataMan
     0000124C  A$DataMan |    0000124D  A$DataMan |    0000124E  A$DataMan
     0000124F  A$DataMan |    00001252  A$DataMan |    00001253  A$DataMan
     00001254  A$DataMan |    00001255  A$DataMan |    00001256  A$DataMan
     00001259  A$DataMan |    00001259  C$DataMan |    0000125A  A$DataMan
     0000125B  A$DataMan |    0000125C  A$DataMan |    0000125D  A$DataMan
     0000125E  A$DataMan |    0000125F  A$DataMan |    00001262  A$DataMan
     00001263  A$DataMan |    00001264  A$DataMan |    00001266  A$DataMan
     00001267  A$DataMan |    00001268  A$DataMan |    00001268  C$DataMan
     00001268  C$DataMan |    00001268  XG$LoadIm |    0000126B  A$DataMan
     0000126B  C$DataMan |    0000126B  C$DataMan |    0000126B  G$LoadPal
     0000126B  _LoadPale |    0000126D  A$DataMan |    0000126E  A$DataMan
     0000126F  A$DataMan |    00001272  A$DataMan |    00001273  A$DataMan
     00001273  C$DataMan |    00001275  A$DataMan |    00001276  A$DataMan
     00001277  A$DataMan |    00001278  A$DataMan |    00001279  A$DataMan
     0000127A  A$DataMan |    0000127B  A$DataMan |    0000127C  A$DataMan
     0000127F  A$DataMan |    00001280  A$DataMan |    00001280  C$DataMan
     00001281  A$DataMan |    00001282  A$DataMan |    00001283  A$DataMan
     00001284  A$DataMan |    00001285  A$DataMan |    00001286  A$DataMan
     00001288  A$DataMan |    00001289  A$DataMan |    00001289  C$DataMan
     0000128A  A$DataMan |    0000128B  A$DataMan |    0000128E  A$DataMan
     0000128F  A$DataMan |    00001290  A$DataMan |    00001290  C$DataMan
     00001291  A$DataMan |    00001292  A$DataMan |    00001293  A$DataMan
     00001296  A$DataMan |    00001297  A$DataMan |    00001298  A$DataMan
     00001298  C$DataMan |    0000129B  A$DataMan |    0000129C  A$DataMan
     0000129D  A$DataMan |    000012A0  A$DataMan |    000012A1  A$DataMan
     000012A4  A$DataMan |    000012A6  A$DataMan |    000012A6  C$DataMan
     000012A6  C$DataMan |    000012A6  XG$LoadPa |    000012A9  A$DataMan
     000012A9  C$DataMan |    000012A9  C$DataMan |    000012A9  G$LoadUIP
     000012A9  _LoadUIPa |    000012AB  A$DataMan |    000012AC  A$DataMan
     000012AD  A$DataMan |    000012B0  A$DataMan |    000012B1  A$DataMan
     000012B1  C$DataMan |    000012B3  A$DataMan |    000012B4  A$DataMan
     000012B5  A$DataMan |    000012B6  A$DataMan |    000012B7  A$DataMan
     000012B8  A$DataMan |    000012B9  A$DataMan |    000012BA  A$DataMan
     000012BD  A$DataMan |    000012BE  A$DataMan |    000012BE  C$DataMan
     000012BF  A$DataMan |    000012C0  A$DataMan |    000012C1  A$DataMan
     000012C2  A$DataMan |    000012C3  A$DataMan |    000012C4  A$DataMan
ASxxxx Linker V03.00 + NoICE + sdld,  page 13.
Hexadecimal  [32-Bits]

Area                       Addr        Size        Decimal Bytes (Attributes)
--------------------       ----        ----        ------- ----- ------------
_CODE                  00000200    0000227C =        8828. bytes (REL,CON)

        Value  Global            Value  Global            Value  Global    
        -----  ------            -----  ------            -----  ------    
     000012C6  A$DataMan |    000012C7  A$DataMan |    000012C7  C$DataMan
     000012C8  A$DataMan |    000012C9  A$DataMan |    000012CC  A$DataMan
     000012CD  A$DataMan |    000012CE  A$DataMan |    000012CE  C$DataMan
     000012CF  A$DataMan |    000012D0  A$DataMan |    000012D1  A$DataMan
     000012D4  A$DataMan |    000012D5  A$DataMan |    000012D6  A$DataMan
     000012D6  C$DataMan |    000012D9  A$DataMan |    000012DA  A$DataMan
     000012DB  A$DataMan |    000012DE  A$DataMan |    000012DF  A$DataMan
     000012E2  A$DataMan |    000012E4  A$DataMan |    000012E4  C$DataMan
     000012E4  C$DataMan |    000012E4  XG$LoadUI |    000012E7  A$DataMan
     000012E7  C$DataMan |    000012E7  C$DataMan |    000012E7  G$LoadSpr
     000012E7  _LoadSpri |    000012E9  A$DataMan |    000012EA  A$DataMan
     000012EB  A$DataMan |    000012EE  A$DataMan |    000012EF  A$DataMan
     000012EF  C$DataMan |    000012F1  A$DataMan |    000012F2  A$DataMan
     000012F3  A$DataMan |    000012F4  A$DataMan |    000012F5  A$DataMan
     000012F6  A$DataMan |    000012F7  A$DataMan |    000012F8  A$DataMan
     000012FB  A$DataMan |    000012FC  A$DataMan |    000012FC  C$DataMan
     000012FD  A$DataMan |    000012FE  A$DataMan |    000012FF  A$DataMan
     00001300  A$DataMan |    00001301  A$DataMan |    00001302  A$DataMan
     00001304  A$DataMan |    00001305  A$DataMan |    00001305  C$DataMan
     00001306  A$DataMan |    00001307  A$DataMan |    0000130A  A$DataMan
     0000130B  A$DataMan |    0000130C  A$DataMan |    0000130C  C$DataMan
     0000130D  A$DataMan |    0000130E  A$DataMan |    0000130F  A$DataMan
     00001312  A$DataMan |    00001313  A$DataMan |    00001314  A$DataMan
     00001314  C$DataMan |    00001317  A$DataMan |    00001318  A$DataMan
     00001319  A$DataMan |    0000131C  A$DataMan |    0000131D  A$DataMan
     00001320  A$DataMan |    00001322  A$DataMan |    00001322  C$DataMan
     00001322  C$DataMan |    00001322  XG$LoadSp |    00001325  A$DataMan
     00001325  C$DataMan |    00001325  C$DataMan |    00001325  G$LoadPla
     00001325  _LoadPlay |    00001327  A$DataMan |    00001328  A$DataMan
     00001329  A$DataMan |    0000132C  A$DataMan |    0000132D  A$DataMan
     0000132D  C$DataMan |    0000132F  A$DataMan |    00001330  A$DataMan
     00001331  A$DataMan |    00001332  A$DataMan |    00001333  A$DataMan
     00001334  A$DataMan |    00001335  A$DataMan |    00001336  A$DataMan
     00001339  A$DataMan |    0000133A  A$DataMan |    0000133A  C$DataMan
     0000133B  A$DataMan |    0000133C  A$DataMan |    0000133D  A$DataMan
     0000133E  A$DataMan |    0000133F  A$DataMan |    00001340  A$DataMan
     00001342  A$DataMan |    00001343  A$DataMan |    00001343  C$DataMan
     00001344  A$DataMan |    00001345  A$DataMan |    00001348  A$DataMan
     00001349  A$DataMan |    0000134A  A$DataMan |    0000134A  C$DataMan
     0000134B  A$DataMan |    0000134C  A$DataMan |    0000134D  A$DataMan
     00001350  A$DataMan |    00001351  A$DataMan |    00001352  A$DataMan
     00001352  C$DataMan |    00001355  A$DataMan |    00001356  A$DataMan
     00001357  A$DataMan |    0000135A  A$DataMan |    0000135B  A$DataMan
     0000135E  A$DataMan |    00001360  A$DataMan |    00001360  C$DataMan
     00001360  C$DataMan |    00001360  XG$LoadPl |    00001363  A$DataMan
     00001363  C$DataMan |    00001363  C$DataMan |    00001363  G$LoadSpr
     00001363  _LoadSpri |    00001365  A$DataMan |    00001366  A$DataMan
     00001367  A$DataMan |    0000136A  A$DataMan |    0000136B  A$DataMan
     0000136B  C$DataMan |    0000136D  A$DataMan |    0000136E  A$DataMan
     0000136F  A$DataMan |    00001370  A$DataMan |    00001371  A$DataMan
     00001372  A$DataMan |    00001373  A$DataMan |    00001374  A$DataMan
ASxxxx Linker V03.00 + NoICE + sdld,  page 14.
Hexadecimal  [32-Bits]

Area                       Addr        Size        Decimal Bytes (Attributes)
--------------------       ----        ----        ------- ----- ------------
_CODE                  00000200    0000227C =        8828. bytes (REL,CON)

        Value  Global            Value  Global            Value  Global    
        -----  ------            -----  ------            -----  ------    
     00001377  A$DataMan |    00001378  A$DataMan |    00001378  C$DataMan
     00001379  A$DataMan |    0000137A  A$DataMan |    0000137B  A$DataMan
     0000137C  A$DataMan |    0000137D  A$DataMan |    0000137E  A$DataMan
     00001380  A$DataMan |    00001381  A$DataMan |    00001381  C$DataMan
     00001382  A$DataMan |    00001383  A$DataMan |    00001386  A$DataMan
     00001387  A$DataMan |    00001388  A$DataMan |    00001388  C$DataMan
     00001389  A$DataMan |    0000138A  A$DataMan |    0000138B  A$DataMan
     0000138E  A$DataMan |    0000138F  A$DataMan |    00001390  A$DataMan
     00001390  C$DataMan |    00001391  A$DataMan |    00001392  A$DataMan
     00001393  A$DataMan |    00001393  C$DataMan |    00001394  A$DataMan
     00001395  A$DataMan |    00001396  A$DataMan |    00001397  A$DataMan
     00001397  C$DataMan |    00001399  A$DataMan |    0000139A  A$DataMan
     0000139B  A$DataMan |    0000139D  A$DataMan |    0000139F  A$DataMan
     000013A0  A$DataMan |    000013A2  A$DataMan |    000013A2  C$DataMan
     000013A4  A$DataMan |    000013A6  A$DataMan |    000013A6  C$DataMan
     000013A7  A$DataMan |    000013A7  C$DataMan |    000013A8  A$DataMan
     000013A9  A$DataMan |    000013AA  A$DataMan |    000013AC  A$DataMan
     000013AD  A$DataMan |    000013AE  A$DataMan |    000013AF  A$DataMan
     000013B2  A$DataMan |    000013B4  A$DataMan |    000013B4  C$DataMan
     000013B5  A$DataMan |    000013B8  A$DataMan |    000013B9  A$DataMan
     000013B9  C$DataMan |    000013BA  A$DataMan |    000013BA  C$DataMan
     000013BA  XG$LoadSp |    000013BB  A$DataMan |    000013BB  C$DataMan
     000013BB  C$DataMan |    000013BB  G$LoadSce |    000013BB  _LoadScen
     000013BD  A$DataMan |    000013BE  A$DataMan |    000013BF  A$DataMan
     000013C2  A$DataMan |    000013C3  A$DataMan |    000013C3  C$DataMan
     000013C6  A$DataMan |    000013C7  A$DataMan |    000013CA  A$DataMan
     000013CB  A$DataMan |    000013CE  A$DataMan |    000013D0  A$DataMan
     000013D0  C$gb.h$63 |    000013D3  A$DataMan |    000013D5  A$DataMan
     000013D8  A$DataMan |    000013DA  A$DataMan |    000013DA  C$DataMan
     000013DD  A$DataMan |    000013DE  A$DataMan |    000013DE  C$gb.h$61
     000013E1  A$DataMan |    000013E2  A$DataMan |    000013E2  C$DataMan
     000013E5  A$DataMan |    000013E6  A$DataMan |    000013E6  C$gb.h$61
     000013E9  A$DataMan |    000013EA  A$DataMan |    000013EA  C$gb.h$65
     000013ED  A$DataMan |    000013ED  C$gb.h$65 |    000013EF  A$DataMan
     000013F0  A$DataMan |    000013F2  A$DataMan |    000013F2  C$gb.h$65
     000013F5  A$DataMan |    000013F5  C$gb.h$65 |    000013F7  A$DataMan
     000013F8  A$DataMan |    000013FA  A$DataMan |    000013FA  C$DataMan
     000013FA  C$DataMan |    000013FA  XG$LoadSc |    000013FD  A$FadeMan
     000013FD  C$FadeMan |    000013FD  C$FadeMan |    000013FD  G$FadeIni
     000013FD  _FadeInit |    00001400  A$FadeMan |    00001403  A$FadeMan
     00001403  C$FadeMan |    00001403  XG$FadeIn |    00001404  G$fade_sp
     00001404  _fade_spe |    0000140B  A$FadeMan |    0000140B  C$FadeMan
     0000140B  C$FadeMan |    0000140B  G$FadeIn$ |    0000140B  _FadeIn  
     0000140D  A$FadeMan |    0000140E  A$FadeMan |    0000140F  A$FadeMan
     00001412  A$FadeMan |    00001413  A$FadeMan |    00001413  C$FadeMan
     00001416  A$FadeMan |    00001416  C$FadeMan |    00001416  C$FadeMan
     00001416  XG$FadeIn |    00001419  A$FadeMan |    00001419  C$FadeMan
     00001419  C$FadeMan |    00001419  G$FadeOut |    00001419  _FadeOut 
     0000141B  A$FadeMan |    0000141C  A$FadeMan |    0000141D  A$FadeMan
     00001420  A$FadeMan |    00001421  A$FadeMan |    00001421  C$FadeMan
     00001424  A$FadeMan |    00001424  C$FadeMan |    00001424  C$FadeMan
ASxxxx Linker V03.00 + NoICE + sdld,  page 15.
Hexadecimal  [32-Bits]

Area                       Addr        Size        Decimal Bytes (Attributes)
--------------------       ----        ----        ------- ----- ------------
_CODE                  00000200    0000227C =        8828. bytes (REL,CON)

        Value  Global            Value  Global            Value  Global    
        -----  ------            -----  ------            -----  ------    
     00001424  XG$FadeOu |    00001427  A$FadeMan |    00001427  C$FadeMan
     00001427  C$FadeMan |    00001427  G$FadeUpd |    00001427  _FadeUpda
     00001429  A$FadeMan |    0000142A  A$FadeMan |    0000142B  A$FadeMan
     0000142E  A$FadeMan |    0000142F  A$FadeMan |    0000142F  C$FadeMan
     00001432  A$FadeMan |    00001432  C$FadeMan |    00001432  C$FadeMan
     00001432  XG$FadeUp |    00001435  A$FadeMan |    00001435  C$FadeMan
     00001435  C$FadeMan |    00001435  G$ApplyPa |    00001435  _ApplyPal
     00001437  A$FadeMan |    00001438  A$FadeMan |    00001439  A$FadeMan
     0000143C  A$FadeMan |    0000143D  A$FadeMan |    0000143D  C$FadeMan
     00001440  A$FadeMan |    00001440  C$FadeMan |    00001440  C$FadeMan
     00001440  XG$ApplyP |    00001443  A$FadeMan |    00001443  C$FadeMan
     00001443  C$FadeMan |    00001443  G$FadeSet |    00001443  _FadeSetS
     00001446  A$FadeMan |    00001448  A$FadeMan |    00001449  A$FadeMan
     0000144B  A$FadeMan |    0000144C  A$FadeMan |    0000144D  A$FadeMan
     0000144E  A$FadeMan |    0000144F  A$FadeMan |    00001452  A$FadeMan
     00001452  C$FadeMan |    00001452  XG$FadeSe |    00001453  A$FadeMan
     00001453  C$FadeMan |    00001453  C$FadeMan |    00001453  G$IsFadin
     00001453  _IsFading |    00001456  A$FadeMan |    00001457  A$FadeMan
     00001457  C$FadeMan |    00001457  XG$IsFadi |    00001458  A$Input$8
     00001458  C$Input.c |    00001458  G$HandleI |    00001458  _HandleIn
     00001459  A$Input$8 |    00001459  C$Input.c |    0000145C  A$Input$8
     0000145D  A$Input$8 |    0000145E  A$Input$9 |    00001460  A$Input$9
     00001460  C$Input.c |    00001461  A$Input$9 |    00001461  C$Input.c
     00001463  A$Input$1 |    00001463  C$Input.c |    00001466  A$Input$1
     00001467  A$Input$1 |    00001469  A$Input$1 |    0000146C  A$Input$1
     0000146D  A$Input$1 |    0000146E  A$Input$1 |    00001470  A$Input$1
     00001471  A$Input$1 |    00001474  A$Input$1 |    00001475  A$Input$1
     00001477  A$Input$1 |    00001477  C$Input.c |    0000147A  A$Input$1
     0000147C  A$Input$1 |    0000147D  A$Input$1 |    0000147E  A$Input$1
     0000147E  C$Input.c |    00001480  A$Input$1 |    00001480  C$Input.c
     00001482  A$Input$1 |    00001484  A$Input$1 |    00001484  C$Input.c
     00001485  A$Input$1 |    00001487  A$Input$1 |    00001488  A$Input$1
     00001489  A$Input$1 |    0000148A  A$Input$1 |    0000148B  A$Input$1
     0000148D  A$Input$1 |    0000148E  A$Input$1 |    0000148F  A$Input$1
     00001491  A$Input$1 |    00001492  A$Input$1 |    00001493  A$Input$1
     00001494  A$Input$1 |    00001495  A$Input$1 |    00001497  A$Input$1
     00001497  C$Input.c |    00001499  A$Input$1 |    0000149A  A$Input$1
     0000149D  A$Input$1 |    0000149D  C$Input.c |    000014A0  A$Input$1
     000014A2  A$Input$1 |    000014A2  C$Input.c |    000014A4  A$Input$1
     000014A5  A$Input$1 |    000014A6  A$Input$1 |    000014A7  A$Input$1
     000014AA  A$Input$1 |    000014AC  A$Input$1 |    000014AC  C$Input.c
     000014AE  A$Input$1 |    000014AE  C$Input.c |    000014B0  A$Input$1
     000014B0  C$Input.c |    000014B1  A$Input$1 |    000014B2  A$Input$1
     000014B4  A$Input$1 |    000014B6  A$Input$1 |    000014B7  A$Input$1
     000014B7  C$Input.c |    000014B7  XG$Handle |    000014B8  A$Input$2
     000014B8  C$Input.c |    000014B8  C$Input.c |    000014B8  G$RemoveI
     000014B8  _RemoveIn |    000014BA  A$Input$2 |    000014BA  C$Input.c
     000014BB  A$Input$2 |    000014BC  A$Input$2 |    000014BF  A$Input$2
     000014C0  A$Input$2 |    000014C1  A$Input$2 |    000014C3  A$Input$2
     000014C5  A$Input$2 |    000014C7  A$Input$2 |    000014C8  A$Input$2
     000014CA  A$Input$2 |    000014CD  A$Input$2 |    000014CE  A$Input$2
ASxxxx Linker V03.00 + NoICE + sdld,  page 16.
Hexadecimal  [32-Bits]

Area                       Addr        Size        Decimal Bytes (Attributes)
--------------------       ----        ----        ------- ----- ------------
_CODE                  00000200    0000227C =        8828. bytes (REL,CON)

        Value  Global            Value  Global            Value  Global    
        -----  ------            -----  ------            -----  ------    
     000014CF  A$Input$2 |    000014D0  A$Input$2 |    000014D1  A$Input$2
     000014D2  A$Input$2 |    000014D3  A$Input$2 |    000014D4  A$Input$2
     000014D5  A$Input$2 |    000014D5  C$Input.c |    000014D6  A$Input$2
     000014D8  A$Input$2 |    000014D9  A$Input$2 |    000014DA  A$Input$2
     000014DB  A$Input$2 |    000014DC  A$Input$2 |    000014DD  A$Input$2
     000014E0  A$Input$2 |    000014E1  A$Input$2 |    000014E3  A$Input$2
     000014E3  C$Input.c |    000014E4  A$Input$2 |    000014E5  A$Input$2
     000014E7  A$Input$2 |    000014E9  A$Input$2 |    000014E9  C$Input.c
     000014E9  XG$Remove |    000014EA  A$Math$55 |    000014EA  C$Math.c$
     000014EA  C$Math.c$ |    000014EA  G$DespRig |    000014EA  _DespRigh
     000014EC  A$Math$56 |    000014ED  A$Math$57 |    000014EE  A$Math$58
     000014EF  A$Math$59 |    000014F0  A$Math$60 |    000014F1  A$Math$61
     000014F2  A$Math$62 |    000014F3  A$Math$63 |    000014F4  A$Math$64
     000014F5  A$Math$65 |    000014F7  A$Math$67 |    000014F9  A$Math$68
     000014FB  A$Math$70 |    000014FC  A$Math$71 |    000014FE  A$Math$79
     000014FE  C$Math.c$ |    000014FE  XG$DespRi |    000014FF  A$Math$89
     000014FF  C$Math.c$ |    000014FF  G$Lt16$0$ |    000014FF  _Lt16    
     00001500  A$Math$93 |    00001500  C$Math.c$ |    00001502  A$Math$97
     00001502  C$Math.c$ |    00001503  A$Math$98 |    00001504  A$Math$99
     00001505  A$Math$10 |    00001506  A$Math$10 |    00001506  C$Math.c$
     00001508  A$Math$10 |    00001509  A$Math$10 |    0000150B  A$Math$10
     0000150C  A$Math$11 |    0000150C  C$Math.c$ |    0000150E  A$Math$11
     0000150F  A$Math$11 |    0000150F  C$Math.c$ |    00001510  A$Math$11
     00001511  A$Math$11 |    00001513  A$Math$11 |    00001514  A$Math$12
     00001516  A$Math$12 |    00001518  A$Math$12 |    00001519  A$Math$12
     0000151A  A$Math$12 |    0000151C  A$Math$12 |    0000151E  A$Math$12
     00001520  A$Math$12 |    00001522  A$Math$13 |    00001523  A$Math$13
     00001523  C$Math.c$ |    00001523  XG$Lt16$0 |    00001524  A$Math$14
     00001524  C$Math.c$ |    00001524  G$Gt16$0$ |    00001524  _Gt16    
     00001525  A$Math$15 |    00001525  C$Math.c$ |    00001527  A$Math$15
     00001527  C$Math.c$ |    00001528  A$Math$15 |    00001529  A$Math$15
     0000152A  A$Math$16 |    0000152B  A$Math$16 |    0000152B  C$Math.c$
     0000152D  A$Math$16 |    0000152E  A$Math$16 |    00001530  A$Math$16
     00001531  A$Math$17 |    00001531  C$Math.c$ |    00001533  A$Math$17
     00001534  A$Math$17 |    00001534  C$Math.c$ |    00001535  A$Math$17
     00001536  A$Math$17 |    00001538  A$Math$17 |    00001539  A$Math$18
     0000153A  A$Math$18 |    0000153C  A$Math$18 |    0000153D  A$Math$18
     0000153F  A$Math$18 |    00001540  A$Math$18 |    00001542  A$Math$18
     00001544  A$Math$18 |    00001546  A$Math$19 |    00001548  A$Math$19
     00001549  A$Math$20 |    00001549  C$Math.c$ |    00001549  XG$Gt16$0
     0000154A  A$Math$21 |    0000154A  C$Math.c$ |    0000154A  C$Math.c$
     0000154A  G$SeedRan |    0000154A  _SeedRand |    0000154D  A$Math$21
     0000154E  A$Math$21 |    0000154E  C$Math.c$ |    00001550  A$Math$21
     00001551  A$Math$22 |    00001554  A$Math$22 |    00001556  A$Math$22
     00001556  C$Math.c$ |    00001556  XG$SeedRa |    00001557  A$MusicMa
     00001557  C$MusicMa |    00001557  C$MusicMa |    00001557  G$MusicPl
     00001557  _MusicPla |    00001559  A$MusicMa |    0000155A  A$MusicMa
     0000155D  A$MusicMa |    0000155E  A$MusicMa |    0000155F  A$MusicMa
     0000155F  C$MusicMa |    00001561  A$MusicMa |    00001562  A$MusicMa
     00001565  A$MusicMa |    00001566  A$MusicMa |    00001566  C$MusicMa
     00001569  A$MusicMa |    0000156A  A$MusicMa |    0000156C  A$MusicMa
ASxxxx Linker V03.00 + NoICE + sdld,  page 17.
Hexadecimal  [32-Bits]

Area                       Addr        Size        Decimal Bytes (Attributes)
--------------------       ----        ----        ------- ----- ------------
_CODE                  00000200    0000227C =        8828. bytes (REL,CON)

        Value  Global            Value  Global            Value  Global    
        -----  ------            -----  ------            -----  ------    
     0000156D  A$MusicMa |    0000156E  A$MusicMa |    0000156F  A$MusicMa
     00001571  A$MusicMa |    00001572  A$MusicMa |    00001573  A$MusicMa
     00001576  A$MusicMa |    00001578  A$MusicMa |    00001579  A$MusicMa
     0000157A  A$MusicMa |    0000157B  A$MusicMa |    0000157B  C$MusicMa
     0000157C  A$MusicMa |    0000157E  A$MusicMa |    0000157F  A$MusicMa
     00001580  A$MusicMa |    00001581  A$MusicMa |    00001584  A$MusicMa
     00001585  A$MusicMa |    00001587  A$MusicMa |    00001588  A$MusicMa
     00001589  A$MusicMa |    0000158C  A$MusicMa |    0000158D  A$MusicMa
     0000158E  A$MusicMa |    0000158E  C$MusicMa |    00001591  A$MusicMa
     00001592  A$MusicMa |    00001594  A$MusicMa |    00001595  A$MusicMa
     00001596  A$MusicMa |    00001597  A$MusicMa |    00001598  A$MusicMa
     00001599  A$MusicMa |    0000159B  A$MusicMa |    0000159C  A$MusicMa
     0000159D  A$MusicMa |    0000159E  A$MusicMa |    0000159F  A$MusicMa
     000015A0  A$MusicMa |    000015A1  A$MusicMa |    000015A4  A$MusicMa
     000015A6  A$MusicMa |    000015A6  C$MusicMa |    000015A8  A$MusicMa
     000015A9  A$MusicMa |    000015AA  A$MusicMa |    000015AB  A$MusicMa
     000015AE  A$MusicMa |    000015AF  A$MusicMa |    000015AF  C$MusicMa
     000015B2  A$MusicMa |    000015B2  C$MusicMa |    000015B2  C$MusicMa
     000015B2  XG$MusicP |    000015B5  A$MusicMa |    000015B5  C$MusicMa
     000015B5  C$MusicMa |    000015B5  G$MusicSt |    000015B5  _MusicSto
     000015B7  A$MusicMa |    000015B8  A$MusicMa |    000015B9  A$MusicMa
     000015BA  A$MusicMa |    000015BD  A$MusicMa |    000015BE  A$MusicMa
     000015BE  C$MusicMa |    000015C1  A$MusicMa |    000015C1  C$MusicMa
     000015C4  A$MusicMa |    000015C6  A$MusicMa |    000015C6  C$MusicMa
     000015C6  C$MusicMa |    000015C6  XG$MusicS |    000015C9  A$MusicMa
     000015C9  C$MusicMa |    000015C9  C$MusicMa |    000015C9  G$MusicUp
     000015C9  _MusicUpd |    000015CC  A$MusicMa |    000015CC  C$MusicMa
     000015CF  A$MusicMa |    000015D0  A$MusicMa |    000015D1  A$MusicMa
     000015D3  A$MusicMa |    000015D4  A$MusicMa |    000015D5  A$MusicMa
     000015D7  A$MusicMa |    000015D9  A$MusicMa |    000015DC  A$MusicMa
     000015DD  A$MusicMa |    000015DE  A$MusicMa |    000015E0  A$MusicMa
     000015E1  A$MusicMa |    000015E2  A$MusicMa |    000015E5  A$MusicMa
     000015E5  C$MusicMa |    000015E8  A$MusicMa |    000015E9  A$MusicMa
     000015EA  A$MusicMa |    000015EB  A$MusicMa |    000015EB  C$MusicMa
     000015EB  C$MusicMa |    000015EC  A$MusicMa |    000015ED  A$MusicMa
     000015EE  A$MusicMa |    000015EE  C$MusicMa |    000015EE  C$MusicMa
     000015EE  XG$MusicU |    000015F1  A$MusicMa |    000015F1  C$MusicMa
     000015F1  C$MusicMa |    000015F1  G$SoundPl |    000015F1  _SoundPla
     000015F3  A$MusicMa |    000015F4  A$MusicMa |    000015F7  A$MusicMa
     000015F7  C$MusicMa |    000015F9  A$MusicMa |    000015FB  A$MusicMa
     000015FB  C$MusicMa |    000015FD  A$MusicMa |    000015FF  A$MusicMa
     000015FF  C$MusicMa |    00001601  A$MusicMa |    00001603  A$MusicMa
     00001603  C$MusicMa |    00001605  A$MusicMa |    00001607  A$MusicMa
     00001607  C$MusicMa |    00001609  A$MusicMa |    0000160A  A$MusicMa
     0000160C  A$MusicMa |    0000160C  C$MusicMa |    0000160D  A$MusicMa
     0000160E  A$MusicMa |    00001610  A$MusicMa |    00001612  A$MusicMa
     00001614  A$MusicMa |    00001614  C$MusicMa |    00001616  A$MusicMa
     00001618  A$MusicMa |    00001618  C$MusicMa |    0000161A  A$MusicMa
     0000161C  A$MusicMa |    0000161E  A$MusicMa |    0000161E  C$MusicMa
     0000161E  XG$SoundP |    0000161F  A$MusicMa |    0000161F  C$MusicMa
     0000161F  C$MusicMa |    0000161F  G$SoundSt |    0000161F  _SoundSto
ASxxxx Linker V03.00 + NoICE + sdld,  page 18.
Hexadecimal  [32-Bits]

Area                       Addr        Size        Decimal Bytes (Attributes)
--------------------       ----        ----        ------- ----- ------------
_CODE                  00000200    0000227C =        8828. bytes (REL,CON)

        Value  Global            Value  Global            Value  Global    
        -----  ------            -----  ------            -----  ------    
     00001621  A$MusicMa |    00001623  A$MusicMa |    00001623  C$MusicMa
     00001623  XG$SoundS |    00001624  A$MusicMa |    00001624  C$MusicMa
     00001624  C$MusicMa |    00001624  G$SoundPl |    00001624  _SoundPla
     00001626  A$MusicMa |    00001628  A$MusicMa |    00001628  C$MusicMa
     0000162A  A$MusicMa |    0000162C  A$MusicMa |    0000162C  C$MusicMa
     0000162E  A$MusicMa |    00001630  A$MusicMa |    00001630  C$MusicMa
     00001632  A$MusicMa |    00001633  A$MusicMa |    00001635  A$MusicMa
     00001637  A$MusicMa |    00001637  C$MusicMa |    00001639  A$MusicMa
     0000163B  A$MusicMa |    0000163B  C$MusicMa |    0000163D  A$MusicMa
     0000163F  A$MusicMa |    0000163F  C$MusicMa |    00001641  A$MusicMa
     00001643  A$MusicMa |    00001645  A$MusicMa |    00001645  C$MusicMa
     00001645  XG$SoundP |    00001646  A$MusicMa |    00001646  C$MusicMa
     00001646  C$MusicMa |    00001646  G$SoundPl |    00001646  _SoundPla
     00001648  A$MusicMa |    0000164A  A$MusicMa |    0000164A  C$MusicMa
     0000164C  A$MusicMa |    0000164E  A$MusicMa |    0000164E  C$MusicMa
     00001650  A$MusicMa |    00001652  A$MusicMa |    00001652  C$MusicMa
     00001654  A$MusicMa |    00001656  A$MusicMa |    00001656  C$MusicMa
     00001658  A$MusicMa |    0000165A  A$MusicMa |    0000165A  C$MusicMa
     0000165C  A$MusicMa |    0000165E  A$MusicMa |    0000165E  C$MusicMa
     00001660  A$MusicMa |    00001662  A$MusicMa |    00001664  A$MusicMa
     00001664  C$MusicMa |    00001664  XG$SoundP |    00001665  A$Project
     00001665  C$Project |    00001665  C$Project |    00001665  G$Project
     00001665  _Projecti |    00001667  A$Project |    00001668  A$Project
     00001669  A$Project |    0000166C  A$Project |    0000166D  A$Project
     0000166D  C$Project |    00001670  A$Project |    00001670  C$Project
     00001670  C$Project |    00001670  XG$Projec |    00001673  A$Project
     00001673  C$Project |    00001673  C$Project |    00001673  G$WeaponA
     00001673  _WeaponAt |    00001675  A$Project |    00001676  A$Project
     00001677  A$Project |    0000167A  A$Project |    0000167B  A$Project
     0000167B  C$Project |    0000167D  A$Project |    0000167E  A$Project
     0000167F  A$Project |    00001680  A$Project |    00001681  A$Project
     00001682  A$Project |    00001683  A$Project |    00001684  A$Project
     00001685  A$Project |    00001686  A$Project |    00001687  A$Project
     00001688  A$Project |    00001689  A$Project |    0000168A  A$Project
     0000168B  A$Project |    0000168C  A$Project |    0000168D  A$Project
     0000168E  A$Project |    0000168F  A$Project |    00001690  A$Project
     00001693  A$Project |    00001695  A$Project |    00001695  C$Project
     00001695  C$Project |    00001695  XG$Weapon |    00001698  A$Project
     00001698  C$Project |    00001698  C$Project |    00001698  G$Project
     00001698  _Projecti |    0000169A  A$Project |    0000169B  A$Project
     0000169C  A$Project |    0000169F  A$Project |    000016A0  A$Project
     000016A0  C$Project |    000016A2  A$Project |    000016A3  A$Project
     000016A4  A$Project |    000016A5  A$Project |    000016A6  A$Project
     000016A7  A$Project |    000016A8  A$Project |    000016A9  A$Project
     000016AA  A$Project |    000016AB  A$Project |    000016AC  A$Project
     000016AD  A$Project |    000016AE  A$Project |    000016AF  A$Project
     000016B0  A$Project |    000016B1  A$Project |    000016B2  A$Project
     000016B3  A$Project |    000016B4  A$Project |    000016B5  A$Project
     000016B6  A$Project |    000016B7  A$Project |    000016B8  A$Project
     000016B9  A$Project |    000016BA  A$Project |    000016BB  A$Project
     000016BC  A$Project |    000016BD  A$Project |    000016BE  A$Project
ASxxxx Linker V03.00 + NoICE + sdld,  page 19.
Hexadecimal  [32-Bits]

Area                       Addr        Size        Decimal Bytes (Attributes)
--------------------       ----        ----        ------- ----- ------------
_CODE                  00000200    0000227C =        8828. bytes (REL,CON)

        Value  Global            Value  Global            Value  Global    
        -----  ------            -----  ------            -----  ------    
     000016BF  A$Project |    000016C0  A$Project |    000016C1  A$Project
     000016C2  A$Project |    000016C3  A$Project |    000016C5  A$Project
     000016C6  A$Project |    000016C7  A$Project |    000016C8  A$Project
     000016C9  A$Project |    000016CB  A$Project |    000016CC  A$Project
     000016CD  A$Project |    000016CE  A$Project |    000016CF  A$Project
     000016D0  A$Project |    000016D1  A$Project |    000016D2  A$Project
     000016D5  A$Project |    000016D7  A$Project |    000016D7  C$Project
     000016D7  C$Project |    000016D7  XG$Projec |    000016DA  A$Project
     000016DA  C$Project |    000016DA  C$Project |    000016DA  G$UpdateP
     000016DA  _UpdatePr |    000016DC  A$Project |    000016DD  A$Project
     000016DE  A$Project |    000016E1  A$Project |    000016E2  A$Project
     000016E2  C$Project |    000016E5  A$Project |    000016E5  C$Project
     000016E5  C$Project |    000016E5  XG$Update |    000016E8  A$ScriptR
     000016E8  C$ScriptR |    000016E8  C$ScriptR |    000016E8  C$ScriptR
     000016E8  G$ScriptR |    000016E8  XG$Script |    000016E8  _ScriptRu
     000016EB  A$ScriptR |    000016EB  C$ScriptR |    000016EB  C$ScriptR
     000016EB  G$ScriptS |    000016EB  _ScriptSt |    000016EE  A$ScriptR
     000016EE  C$ScriptR |    000016F1  A$ScriptR |    000016F3  A$ScriptR
     000016F3  C$ScriptR |    000016F6  A$ScriptR |    000016F8  A$ScriptR
     000016F8  C$ScriptR |    000016FB  A$ScriptR |    000016FD  A$ScriptR
     000016FD  C$ScriptR |    00001700  A$ScriptR |    00001702  A$ScriptR
     00001703  A$ScriptR |    00001704  A$ScriptR |    00001705  A$ScriptR
     00001706  A$ScriptR |    00001707  A$ScriptR |    00001707  C$ScriptR
     00001708  A$ScriptR |    00001709  A$ScriptR |    0000170A  A$ScriptR
     0000170B  A$ScriptR |    0000170C  A$ScriptR |    0000170D  A$ScriptR
     0000170F  A$ScriptR |    00001710  A$ScriptR |    00001713  A$ScriptR
     00001714  A$ScriptR |    00001715  A$ScriptR |    00001716  A$ScriptR
     00001716  C$ScriptR |    00001719  A$ScriptR |    0000171A  A$ScriptR
     0000171B  A$ScriptR |    0000171C  A$ScriptR |    0000171C  C$ScriptR
     0000171F  A$ScriptR |    00001720  A$ScriptR |    00001721  A$ScriptR
     00001722  A$ScriptR |    00001722  C$ScriptR |    00001722  XG$Script
     00001723  A$ScriptR |    00001723  C$ScriptR |    00001723  G$ScriptS
     00001723  _ScriptSt |    00001725  A$ScriptR |    00001725  C$ScriptR
     00001728  A$ScriptR |    00001728  C$ScriptR |    0000172B  A$ScriptR
     0000172C  A$ScriptR |    0000172E  A$ScriptR |    0000172E  C$ScriptR
     00001730  A$ScriptR |    00001731  A$ScriptR |    00001731  C$ScriptR
     00001732  A$ScriptR |    00001733  A$ScriptR |    00001736  A$ScriptR
     00001736  C$ScriptR |    00001739  A$ScriptR |    0000173B  A$ScriptR
     0000173B  C$ScriptR |    0000173E  A$ScriptR |    00001740  A$ScriptR
     00001740  C$ScriptR |    00001741  A$ScriptR |    00001742  A$ScriptR
     00001743  A$ScriptR |    00001744  A$ScriptR |    00001745  A$ScriptR
     00001746  A$ScriptR |    00001747  A$ScriptR |    0000174A  A$ScriptR
     0000174B  A$ScriptR |    0000174C  A$ScriptR |    0000174D  A$ScriptR
     0000174F  A$ScriptR |    00001750  A$ScriptR |    00001751  A$ScriptR
     00001752  A$ScriptR |    00001753  A$ScriptR |    00001754  A$ScriptR
     00001755  A$ScriptR |    00001758  A$ScriptR |    00001759  A$ScriptR
     0000175A  A$ScriptR |    0000175B  A$ScriptR |    0000175D  A$ScriptR
     0000175E  A$ScriptR |    0000175F  A$ScriptR |    00001760  A$ScriptR
     00001761  A$ScriptR |    00001762  A$ScriptR |    00001763  A$ScriptR
     00001765  A$ScriptR |    00001765  C$ScriptR |    00001767  A$ScriptR
     00001768  A$ScriptR |    00001769  A$ScriptR |    0000176A  A$ScriptR
ASxxxx Linker V03.00 + NoICE + sdld,  page 20.
Hexadecimal  [32-Bits]

Area                       Addr        Size        Decimal Bytes (Attributes)
--------------------       ----        ----        ------- ----- ------------
_CODE                  00000200    0000227C =        8828. bytes (REL,CON)

        Value  Global            Value  Global            Value  Global    
        -----  ------            -----  ------            -----  ------    
     0000176D  A$ScriptR |    0000176E  A$ScriptR |    0000176F  A$ScriptR
     00001770  A$ScriptR |    00001772  A$ScriptR |    00001773  A$ScriptR
     00001774  A$ScriptR |    00001775  A$ScriptR |    00001776  A$ScriptR
     00001777  A$ScriptR |    00001777  C$ScriptR |    00001779  A$ScriptR
     0000177A  A$ScriptR |    0000177B  A$ScriptR |    0000177C  A$ScriptR
     0000177F  A$ScriptR |    00001780  A$ScriptR |    00001781  A$ScriptR
     00001782  A$ScriptR |    00001784  A$ScriptR |    00001785  A$ScriptR
     00001786  A$ScriptR |    00001786  C$ScriptR |    00001787  A$ScriptR
     00001788  A$ScriptR |    00001789  A$ScriptR |    0000178A  A$ScriptR
     0000178B  A$ScriptR |    0000178C  A$ScriptR |    0000178E  A$ScriptR
     0000178F  A$ScriptR |    00001791  A$ScriptR |    00001792  A$ScriptR
     00001793  A$ScriptR |    00001794  A$ScriptR |    00001795  A$ScriptR
     00001796  A$ScriptR |    00001797  A$ScriptR |    00001797  C$ScriptR
     00001799  A$ScriptR |    0000179A  A$ScriptR |    0000179B  A$ScriptR
     0000179C  A$ScriptR |    0000179F  A$ScriptR |    000017A0  A$ScriptR
     000017A1  A$ScriptR |    000017A2  A$ScriptR |    000017A3  A$ScriptR
     000017A4  A$ScriptR |    000017A5  A$ScriptR |    000017A6  A$ScriptR
     000017A6  C$ScriptR |    000017A8  A$ScriptR |    000017A9  A$ScriptR
     000017AA  A$ScriptR |    000017AB  A$ScriptR |    000017AE  A$ScriptR
     000017AF  A$ScriptR |    000017B0  A$ScriptR |    000017B1  A$ScriptR
     000017B2  A$ScriptR |    000017B3  A$ScriptR |    000017B4  A$ScriptR
     000017B5  A$ScriptR |    000017B6  A$ScriptR |    000017B6  C$ScriptR
     000017B8  A$ScriptR |    000017B9  A$ScriptR |    000017BA  A$ScriptR
     000017BB  A$ScriptR |    000017BD  A$ScriptR |    000017BE  A$ScriptR
     000017BF  A$ScriptR |    000017BF  C$ScriptR |    000017C1  A$ScriptR
     000017C2  A$ScriptR |    000017C3  A$ScriptR |    000017C4  A$ScriptR
     000017C7  A$ScriptR |    000017C8  A$ScriptR |    000017C8  C$ScriptR
     000017CA  A$ScriptR |    000017CB  A$ScriptR |    000017CD  A$ScriptR
     000017CD  C$ScriptR |    000017CF  A$ScriptR |    000017D0  A$ScriptR
     000017D2  A$ScriptR |    000017D2  C$ScriptR |    000017D2  XG$Script
     000017D3  A$ScriptR |    000017D3  C$ScriptR |    000017D3  G$ScriptR
     000017D3  _ScriptRu |    000017D5  A$ScriptR |    000017D5  C$ScriptR
     000017D8  A$ScriptR |    000017DA  A$ScriptR |    000017DA  C$ScriptR
     000017DD  A$ScriptR |    000017DE  A$ScriptR |    000017DF  A$ScriptR
     000017E1  A$ScriptR |    000017E1  C$ScriptR |    000017E3  A$ScriptR
     000017E4  A$ScriptR |    000017E5  A$ScriptR |    000017E8  A$ScriptR
     000017E9  A$ScriptR |    000017E9  C$ScriptR |    000017EC  A$ScriptR
     000017ED  A$ScriptR |    000017EE  A$ScriptR |    000017EF  A$ScriptR
     000017F0  A$ScriptR |    000017F3  A$ScriptR |    000017F4  A$ScriptR
     000017F4  C$ScriptR |    000017F5  A$ScriptR |    000017F7  A$ScriptR
     000017F7  C$ScriptR |    000017FA  A$ScriptR |    000017FB  A$ScriptR
     000017FC  A$ScriptR |    000017FD  A$ScriptR |    000017FD  C$ScriptR
     00001800  A$ScriptR |    00001803  A$ScriptR |    00001804  A$ScriptR
     00001804  C$ScriptR |    00001804  C$ScriptR |    00001805  A$ScriptR
     00001806  A$ScriptR |    00001808  A$ScriptR |    0000180B  A$ScriptR
     0000180C  A$ScriptR |    0000180D  A$ScriptR |    0000180E  A$ScriptR
     00001810  A$ScriptR |    00001810  C$ScriptR |    00001813  A$ScriptR
     00001813  C$ScriptR |    00001816  A$ScriptR |    00001817  A$ScriptR
     00001818  A$ScriptR |    00001819  A$ScriptR |    00001819  C$ScriptR
     0000181C  A$ScriptR |    0000181C  C$ScriptR |    0000181D  A$ScriptR
     0000181E  A$ScriptR |    00001821  A$ScriptR |    00001822  A$ScriptR
ASxxxx Linker V03.00 + NoICE + sdld,  page 21.
Hexadecimal  [32-Bits]

Area                       Addr        Size        Decimal Bytes (Attributes)
--------------------       ----        ----        ------- ----- ------------
_CODE                  00000200    0000227C =        8828. bytes (REL,CON)

        Value  Global            Value  Global            Value  Global    
        -----  ------            -----  ------            -----  ------    
     00001822  C$ScriptR |    00001825  A$ScriptR |    00001826  A$ScriptR
     00001828  A$ScriptR |    00001829  A$ScriptR |    0000182A  A$ScriptR
     0000182B  A$ScriptR |    0000182C  A$ScriptR |    0000182D  A$ScriptR
     0000182E  A$ScriptR |    0000182F  A$ScriptR |    00001830  A$ScriptR
     00001831  A$ScriptR |    00001832  A$ScriptR |    00001833  A$ScriptR
     00001833  C$ScriptR |    00001834  A$ScriptR |    00001836  A$ScriptR
     00001836  C$ScriptR |    00001839  A$ScriptR |    00001839  C$ScriptR
     0000183C  A$ScriptR |    0000183D  A$ScriptR |    0000183F  A$ScriptR
     0000183F  C$ScriptR |    00001841  A$ScriptR |    00001842  A$ScriptR
     00001843  A$ScriptR |    00001846  A$ScriptR |    00001847  A$ScriptR
     00001847  C$ScriptR |    0000184A  A$ScriptR |    0000184A  C$ScriptR
     0000184D  A$ScriptR |    0000184D  C$ScriptR |    00001850  A$ScriptR
     00001850  C$ScriptR |    00001853  A$ScriptR |    00001854  A$ScriptR
     00001855  A$ScriptR |    00001856  A$ScriptR |    00001856  C$ScriptR
     00001859  A$ScriptR |    00001859  C$ScriptR |    0000185C  A$ScriptR
     0000185E  A$ScriptR |    0000185E  C$ScriptR |    00001861  A$ScriptR
     00001862  A$ScriptR |    00001863  A$ScriptR |    00001864  A$ScriptR
     00001864  C$ScriptR |    00001867  A$ScriptR |    00001869  A$ScriptR
     00001869  C$ScriptR |    0000186C  A$ScriptR |    0000186C  C$ScriptR
     0000186F  A$ScriptR |    00001870  A$ScriptR |    00001871  A$ScriptR
     00001873  A$ScriptR |    00001873  C$ScriptR |    00001874  A$ScriptR
     00001876  A$ScriptR |    00001877  A$ScriptR |    00001878  A$ScriptR
     00001879  A$ScriptR |    0000187A  A$ScriptR |    0000187B  A$ScriptR
     0000187C  A$ScriptR |    0000187D  A$ScriptR |    00001880  A$ScriptR
     00001881  A$ScriptR |    00001884  A$ScriptR |    00001885  A$ScriptR
     00001886  A$ScriptR |    00001887  A$ScriptR |    00001888  A$ScriptR
     0000188B  A$ScriptR |    0000188C  A$ScriptR |    0000188D  A$ScriptR
     00001890  A$ScriptR |    00001892  A$ScriptR |    00001895  A$ScriptR
     00001895  C$ScriptR |    00001898  A$ScriptR |    0000189A  A$ScriptR
     0000189A  C$ScriptR |    0000189D  A$ScriptR |    0000189D  C$ScriptR
     0000189F  A$ScriptR |    000018A0  A$ScriptR |    000018A1  A$ScriptR
     000018A2  A$ScriptR |    000018A3  A$ScriptR |    000018A6  A$ScriptR
     000018A7  A$ScriptR |    000018A8  A$ScriptR |    000018AB  A$ScriptR
     000018AC  A$ScriptR |    000018AF  A$ScriptR |    000018B1  A$ScriptR
     000018B1  C$ScriptR |    000018B4  A$ScriptR |    000018B4  C$ScriptR
     000018B6  A$ScriptR |    000018B7  A$ScriptR |    000018B8  A$ScriptR
     000018BB  A$ScriptR |    000018BC  A$ScriptR |    000018BC  C$ScriptR
     000018BF  A$ScriptR |    000018C0  A$ScriptR |    000018C2  A$ScriptR
     000018C3  A$ScriptR |    000018C4  A$ScriptR |    000018C5  A$ScriptR
     000018C6  A$ScriptR |    000018C6  C$ScriptR |    000018C9  A$ScriptR
     000018CA  A$ScriptR |    000018CB  A$ScriptR |    000018CC  A$ScriptR
     000018CE  A$ScriptR |    000018CF  A$ScriptR |    000018D0  A$ScriptR
     000018D1  A$ScriptR |    000018D2  A$ScriptR |    000018D3  A$ScriptR
     000018D4  A$ScriptR |    000018D5  A$ScriptR |    000018D6  A$ScriptR
     000018D7  A$ScriptR |    000018D8  A$ScriptR |    000018D9  A$ScriptR
     000018DA  A$ScriptR |    000018DD  A$ScriptR |    000018DD  C$ScriptR
     000018DE  A$ScriptR |    000018DF  A$ScriptR |    000018E0  A$ScriptR
     000018E1  A$ScriptR |    000018E2  A$ScriptR |    000018E3  A$ScriptR
     000018E6  A$ScriptR |    000018E6  C$ScriptR |    000018E9  A$ScriptR
     000018EA  A$ScriptR |    000018EB  A$ScriptR |    000018EC  A$ScriptR
     000018EE  A$ScriptR |    000018EF  A$ScriptR |    000018F0  A$ScriptR
ASxxxx Linker V03.00 + NoICE + sdld,  page 22.
Hexadecimal  [32-Bits]

Area                       Addr        Size        Decimal Bytes (Attributes)
--------------------       ----        ----        ------- ----- ------------
_CODE                  00000200    0000227C =        8828. bytes (REL,CON)

        Value  Global            Value  Global            Value  Global    
        -----  ------            -----  ------            -----  ------    
     000018F2  A$ScriptR |    000018F3  A$ScriptR |    000018F4  A$ScriptR
     000018F5  A$ScriptR |    000018F7  A$ScriptR |    000018F7  C$ScriptR
     000018FA  A$ScriptR |    000018FB  A$ScriptR |    000018FD  A$ScriptR
     000018FE  A$ScriptR |    000018FF  A$ScriptR |    00001900  A$ScriptR
     00001901  A$ScriptR |    00001902  A$ScriptR |    00001903  A$ScriptR
     00001904  A$ScriptR |    00001907  A$ScriptR |    00001908  A$ScriptR
     00001909  A$ScriptR |    0000190A  A$ScriptR |    0000190A  C$ScriptR
     0000190D  A$ScriptR |    0000190D  C$ScriptR |    00001910  A$ScriptR
     00001911  A$ScriptR |    00001913  A$ScriptR |    00001916  A$ScriptR
     00001917  A$ScriptR |    00001918  A$ScriptR |    0000191A  A$ScriptR
     0000191D  A$ScriptR |    0000191E  A$ScriptR |    0000191F  A$ScriptR
     00001921  A$ScriptR |    00001921  C$ScriptR |    00001922  A$ScriptR
     00001922  C$ScriptR |    00001925  A$ScriptR |    00001925  C$ScriptR
     00001927  A$ScriptR |    00001927  C$ScriptR |    0000192A  A$ScriptR
     0000192C  A$ScriptR |    0000192C  C$ScriptR |    0000192C  XG$Script
     0000192D  A$ScriptR |    0000192D  C$ScriptR |    0000192D  C$ScriptR
     0000192D  G$ScriptT |    0000192D  _ScriptTi |    0000192F  A$ScriptR
     00001930  A$ScriptR |    00001931  A$ScriptR |    00001934  A$ScriptR
     00001935  A$ScriptR |    00001935  C$ScriptR |    00001938  A$ScriptR
     00001938  C$ScriptR |    00001938  C$ScriptR |    00001938  XG$Script
     0000193B  A$ScriptR |    0000193B  C$ScriptR |    0000193B  C$ScriptR
     0000193B  G$ScriptS |    0000193B  _ScriptSa |    0000193E  A$ScriptR
     0000193F  A$ScriptR |    00001941  A$ScriptR |    00001942  A$ScriptR
     00001943  A$ScriptR |    00001944  A$ScriptR |    00001945  A$ScriptR
     00001946  A$ScriptR |    00001947  A$ScriptR |    00001948  A$ScriptR
     0000194B  A$ScriptR |    0000194C  A$ScriptR |    0000194D  A$ScriptR
     0000194E  A$ScriptR |    00001951  A$ScriptR |    00001952  A$ScriptR
     00001953  A$ScriptR |    00001953  C$ScriptR |    00001956  A$ScriptR
     00001959  A$ScriptR |    0000195A  A$ScriptR |    0000195B  A$ScriptR
     0000195C  A$ScriptR |    0000195D  A$ScriptR |    00001960  A$ScriptR
     00001961  A$ScriptR |    00001962  A$ScriptR |    00001963  A$ScriptR
     00001966  A$ScriptR |    00001968  A$ScriptR |    00001968  C$ScriptR
     0000196B  A$ScriptR |    0000196C  A$ScriptR |    0000196D  A$ScriptR
     0000196E  A$ScriptR |    0000196F  A$ScriptR |    00001971  A$ScriptR
     00001972  A$ScriptR |    00001974  A$ScriptR |    00001975  A$ScriptR
     00001978  A$ScriptR |    00001979  A$ScriptR |    00001979  C$ScriptR
     0000197A  A$ScriptR |    0000197B  A$ScriptR |    0000197C  A$ScriptR
     0000197D  A$ScriptR |    0000197E  A$ScriptR |    00001980  A$ScriptR
     00001981  A$ScriptR |    00001983  A$ScriptR |    00001984  A$ScriptR
     00001987  A$ScriptR |    00001988  A$ScriptR |    00001988  C$ScriptR
     00001988  XG$Script |    00001989  A$ScriptR |    00001989  C$ScriptR
     00001989  C$ScriptR |    00001989  G$ScriptR |    00001989  _ScriptRe
     0000198B  A$ScriptR |    0000198C  A$ScriptR |    0000198E  A$ScriptR
     0000198F  A$ScriptR |    00001990  A$ScriptR |    00001991  A$ScriptR
     00001992  A$ScriptR |    00001993  A$ScriptR |    00001994  A$ScriptR
     00001995  A$ScriptR |    00001998  A$ScriptR |    00001999  A$ScriptR
     0000199C  A$ScriptR |    0000199D  A$ScriptR |    0000199E  A$ScriptR
     0000199F  A$ScriptR |    000019A0  A$ScriptR |    000019A2  A$ScriptR
     000019A3  A$ScriptR |    000019A4  A$ScriptR |    000019A6  A$ScriptR
     000019A9  A$ScriptR |    000019AA  A$ScriptR |    000019AA  C$ScriptR
     000019AB  A$ScriptR |    000019AB  C$ScriptR |    000019AD  A$ScriptR
ASxxxx Linker V03.00 + NoICE + sdld,  page 23.
Hexadecimal  [32-Bits]

Area                       Addr        Size        Decimal Bytes (Attributes)
--------------------       ----        ----        ------- ----- ------------
_CODE                  00000200    0000227C =        8828. bytes (REL,CON)

        Value  Global            Value  Global            Value  Global    
        -----  ------            -----  ------            -----  ------    
     000019AE  A$ScriptR |    000019AF  A$ScriptR |    000019B1  A$ScriptR
     000019B1  C$ScriptR |    000019B4  A$ScriptR |    000019B6  A$ScriptR
     000019B8  A$ScriptR |    000019B8  C$ScriptR |    000019BB  A$ScriptR
     000019BD  A$ScriptR |    000019BD  C$ScriptR |    000019BF  A$ScriptR
     000019C0  A$ScriptR |    000019C3  A$ScriptR |    000019C4  A$ScriptR
     000019C4  C$ScriptR |    000019C6  A$ScriptR |    000019C7  A$ScriptR
     000019C8  A$ScriptR |    000019C9  A$ScriptR |    000019CA  A$ScriptR
     000019CB  A$ScriptR |    000019CC  A$ScriptR |    000019CD  A$ScriptR
     000019CE  A$ScriptR |    000019D0  A$ScriptR |    000019D1  A$ScriptR
     000019D2  A$ScriptR |    000019D4  A$ScriptR |    000019D5  A$ScriptR
     000019D6  A$ScriptR |    000019D7  A$ScriptR |    000019D8  A$ScriptR
     000019DB  A$ScriptR |    000019DC  A$ScriptR |    000019DD  A$ScriptR
     000019E0  A$ScriptR |    000019E1  A$ScriptR |    000019E4  A$ScriptR
     000019E6  A$ScriptR |    000019E7  A$ScriptR |    000019E7  C$ScriptR
     000019EA  A$ScriptR |    000019ED  A$ScriptR |    000019EE  A$ScriptR
     000019EF  A$ScriptR |    000019F0  A$ScriptR |    000019F0  C$ScriptR
     000019F3  A$ScriptR |    000019F6  A$ScriptR |    000019F7  A$ScriptR
     000019F8  A$ScriptR |    000019F9  A$ScriptR |    000019F9  C$ScriptR
     000019F9  C$ScriptR |    000019F9  XG$Script |    000019FC  A$ScriptR
     000019FC  C$ScriptR |    000019FC  C$ScriptR |    000019FC  G$ScriptC
     000019FC  _ScriptCt |    000019FF  A$ScriptR |    00001A00  A$ScriptR
     00001A01  A$ScriptR |    00001A03  A$ScriptR |    00001A03  C$ScriptR
     00001A04  A$ScriptR |    00001A07  A$ScriptR |    00001A09  A$ScriptR
     00001A09  C$ScriptR |    00001A0A  A$ScriptR |    00001A0A  C$ScriptR
     00001A0C  A$ScriptR |    00001A0C  C$ScriptR |    00001A0C  XG$Script
     00001A0D  A$ScriptR |    00001A0D  C$ScriptR |    00001A0D  C$ScriptR
     00001A0D  G$ScriptC |    00001A0D  _ScriptCt |    00001A0F  A$ScriptR
     00001A10  A$ScriptR |    00001A12  A$ScriptR |    00001A13  A$ScriptR
     00001A14  A$ScriptR |    00001A15  A$ScriptR |    00001A16  A$ScriptR
     00001A17  A$ScriptR |    00001A18  A$ScriptR |    00001A19  A$ScriptR
     00001A1C  A$ScriptR |    00001A1D  A$ScriptR |    00001A1E  A$ScriptR
     00001A1F  A$ScriptR |    00001A22  A$ScriptR |    00001A23  A$ScriptR
     00001A24  A$ScriptR |    00001A26  A$ScriptR |    00001A27  A$ScriptR
     00001A28  A$ScriptR |    00001A29  A$ScriptR |    00001A29  C$ScriptR
     00001A2C  A$ScriptR |    00001A2D  A$ScriptR |    00001A2F  A$ScriptR
     00001A2F  C$ScriptR |    00001A31  A$ScriptR |    00001A32  A$ScriptR
     00001A33  A$ScriptR |    00001A34  A$ScriptR |    00001A37  A$ScriptR
     00001A38  A$ScriptR |    00001A3B  A$ScriptR |    00001A3D  A$ScriptR
     00001A3D  C$ScriptR |    00001A3D  XG$Script |    00001A3E  A$ScriptR
     00001A3E  C$ScriptR |    00001A3E  C$ScriptR |    00001A3E  G$ScriptC
     00001A3E  _ScriptCt |    00001A40  A$ScriptR |    00001A40  C$ScriptR
     00001A43  A$ScriptR |    00001A45  A$ScriptR |    00001A46  A$ScriptR
     00001A47  A$ScriptR |    00001A47  C$ScriptR |    00001A49  A$ScriptR
     00001A4A  A$ScriptR |    00001A4B  A$ScriptR |    00001A4C  A$ScriptR
     00001A4D  A$ScriptR |    00001A4E  A$ScriptR |    00001A4F  A$ScriptR
     00001A50  A$ScriptR |    00001A53  A$ScriptR |    00001A54  A$ScriptR
     00001A57  A$ScriptR |    00001A58  A$ScriptR |    00001A5A  A$ScriptR
     00001A5A  C$ScriptR |    00001A5B  A$ScriptR |    00001A5C  A$ScriptR
     00001A5E  A$ScriptR |    00001A60  A$ScriptR |    00001A60  C$ScriptR
     00001A63  A$ScriptR |    00001A65  A$ScriptR |    00001A65  C$ScriptR
     00001A65  XG$Script |    00001A66  A$Scroll$ |    00001A66  C$Scroll.
ASxxxx Linker V03.00 + NoICE + sdld,  page 24.
Hexadecimal  [32-Bits]

Area                       Addr        Size        Decimal Bytes (Attributes)
--------------------       ----        ----        ------- ----- ------------
_CODE                  00000200    0000227C =        8828. bytes (REL,CON)

        Value  Global            Value  Global            Value  Global    
        -----  ------            -----  ------            -----  ------    
     00001A66  G$ScrollU |    00001A66  _ScrollUp |    00001A68  A$Scroll$
     00001A68  C$Scroll. |    00001A6B  A$Scroll$ |    00001A6D  A$Scroll$
     00001A6F  A$Scroll$ |    00001A70  A$Scroll$ |    00001A70  C$Scroll.
     00001A73  A$Scroll$ |    00001A74  A$Scroll$ |    00001A75  A$Scroll$
     00001A78  A$Scroll$ |    00001A79  A$Scroll$ |    00001A79  C$Scroll.
     00001A7A  A$Scroll$ |    00001A7C  A$Scroll$ |    00001A7D  A$Scroll$
     00001A7F  A$Scroll$ |    00001A80  A$Scroll$ |    00001A82  A$Scroll$
     00001A84  A$Scroll$ |    00001A87  A$Scroll$ |    00001A88  A$Scroll$
     00001A8A  A$Scroll$ |    00001A8A  C$Scroll. |    00001A8D  A$Scroll$
     00001A8E  A$Scroll$ |    00001A8F  A$Scroll$ |    00001A90  A$Scroll$
     00001A91  A$Scroll$ |    00001A92  A$Scroll$ |    00001A94  A$Scroll$
     00001A95  A$Scroll$ |    00001A96  A$Scroll$ |    00001A97  A$Scroll$
     00001A99  A$Scroll$ |    00001A9B  A$Scroll$ |    00001A9C  A$Scroll$
     00001A9D  A$Scroll$ |    00001A9F  A$Scroll$ |    00001AA0  A$Scroll$
     00001AA2  A$Scroll$ |    00001AA3  A$Scroll$ |    00001AA5  A$Scroll$
     00001AA6  A$Scroll$ |    00001AA7  A$Scroll$ |    00001AA8  A$Scroll$
     00001AA9  A$Scroll$ |    00001AAA  A$Scroll$ |    00001AAB  A$Scroll$
     00001AAC  A$Scroll$ |    00001AAD  A$Scroll$ |    00001AAE  A$Scroll$
     00001AAF  A$Scroll$ |    00001AAF  C$Scroll. |    00001AB2  A$Scroll$
     00001AB3  A$Scroll$ |    00001AB4  A$Scroll$ |    00001AB5  A$Scroll$
     00001AB6  A$Scroll$ |    00001AB7  A$Scroll$ |    00001AB8  A$Scroll$
     00001AB9  A$Scroll$ |    00001ABA  A$Scroll$ |    00001ABD  A$Scroll$
     00001ABF  A$Scroll$ |    00001ABF  C$Scroll. |    00001AC2  A$Scroll$
     00001AC3  A$Scroll$ |    00001AC5  A$Scroll$ |    00001AC6  A$Scroll$
     00001AC7  A$Scroll$ |    00001AC7  C$Scroll. |    00001AC9  A$Scroll$
     00001ACA  A$Scroll$ |    00001ACD  A$Scroll$ |    00001ACE  A$Scroll$
     00001AD0  A$Scroll$ |    00001AD0  C$Scroll. |    00001AD3  A$Scroll$
     00001AD5  A$Scroll$ |    00001AD5  C$Scroll. |    00001AD5  XG$Scroll
     00001AD6  A$Scroll$ |    00001AD6  C$Scroll. |    00001AD6  G$ScrollU
     00001AD6  _ScrollUp |    00001AD8  A$Scroll$ |    00001AD8  C$Scroll.
     00001ADB  A$Scroll$ |    00001ADC  A$Scroll$ |    00001ADE  A$Scroll$
     00001ADE  C$Scroll. |    00001AE1  A$Scroll$ |    00001AE3  A$Scroll$
     00001AE3  C$Scroll. |    00001AE5  A$Scroll$ |    00001AE6  A$Scroll$
     00001AE7  A$Scroll$ |    00001AEA  A$Scroll$ |    00001AEB  A$Scroll$
     00001AEC  A$Scroll$ |    00001AEC  C$Scroll. |    00001AEE  A$Scroll$
     00001AEF  A$Scroll$ |    00001AF0  A$Scroll$ |    00001AF3  A$Scroll$
     00001AF4  A$Scroll$ |    00001AF5  A$Scroll$ |    00001AF5  C$Scroll.
     00001AF8  A$Scroll$ |    00001AFA  A$Scroll$ |    00001AFA  C$Scroll.
     00001AFD  A$Scroll$ |    00001AFE  A$Scroll$ |    00001B00  A$Scroll$
     00001B02  A$Scroll$ |    00001B03  A$Scroll$ |    00001B04  A$Scroll$
     00001B05  A$Scroll$ |    00001B06  A$Scroll$ |    00001B07  A$Scroll$
     00001B0A  A$Scroll$ |    00001B0C  A$Scroll$ |    00001B0D  A$Scroll$
     00001B10  A$Scroll$ |    00001B11  A$Scroll$ |    00001B12  A$Scroll$
     00001B13  A$Scroll$ |    00001B14  A$Scroll$ |    00001B15  A$Scroll$
     00001B16  A$Scroll$ |    00001B18  A$Scroll$ |    00001B19  A$Scroll$
     00001B1A  A$Scroll$ |    00001B1B  A$Scroll$ |    00001B1C  A$Scroll$
     00001B1D  A$Scroll$ |    00001B1E  A$Scroll$ |    00001B21  A$Scroll$
     00001B22  A$Scroll$ |    00001B23  A$Scroll$ |    00001B23  C$Scroll.
     00001B25  A$Scroll$ |    00001B26  A$Scroll$ |    00001B27  A$Scroll$
     00001B28  A$Scroll$ |    00001B2B  A$Scroll$ |    00001B2C  A$Scroll$
     00001B2D  A$Scroll$ |    00001B2E  A$Scroll$ |    00001B2F  A$Scroll$
ASxxxx Linker V03.00 + NoICE + sdld,  page 25.
Hexadecimal  [32-Bits]

Area                       Addr        Size        Decimal Bytes (Attributes)
--------------------       ----        ----        ------- ----- ------------
_CODE                  00000200    0000227C =        8828. bytes (REL,CON)

        Value  Global            Value  Global            Value  Global    
        -----  ------            -----  ------            -----  ------    
     00001B31  A$Scroll$ |    00001B33  A$Scroll$ |    00001B36  A$Scroll$
     00001B38  A$Scroll$ |    00001B39  A$Scroll$ |    00001B3C  A$Scroll$
     00001B3C  C$Scroll. |    00001B3E  A$Scroll$ |    00001B3F  A$Scroll$
     00001B41  A$Scroll$ |    00001B42  A$Scroll$ |    00001B43  A$Scroll$
     00001B44  A$Scroll$ |    00001B45  A$Scroll$ |    00001B46  A$Scroll$
     00001B47  A$Scroll$ |    00001B48  A$Scroll$ |    00001B49  A$Scroll$
     00001B4A  A$Scroll$ |    00001B4B  A$Scroll$ |    00001B4C  A$Scroll$
     00001B4D  A$Scroll$ |    00001B4F  A$Scroll$ |    00001B50  A$Scroll$
     00001B51  A$Scroll$ |    00001B52  A$Scroll$ |    00001B53  A$Scroll$
     00001B54  A$Scroll$ |    00001B55  A$Scroll$ |    00001B58  A$Scroll$
     00001B59  A$Scroll$ |    00001B5A  A$Scroll$ |    00001B5B  A$Scroll$
     00001B5D  A$Scroll$ |    00001B5E  A$Scroll$ |    00001B5F  A$Scroll$
     00001B60  A$Scroll$ |    00001B61  A$Scroll$ |    00001B62  A$Scroll$
     00001B63  A$Scroll$ |    00001B64  A$Scroll$ |    00001B65  A$Scroll$
     00001B66  A$Scroll$ |    00001B67  A$Scroll$ |    00001B68  A$Scroll$
     00001B6A  A$Scroll$ |    00001B6C  A$Scroll$ |    00001B6E  A$Scroll$
     00001B70  A$Scroll$ |    00001B72  A$Scroll$ |    00001B74  A$Scroll$
     00001B76  A$Scroll$ |    00001B77  A$Scroll$ |    00001B78  A$Scroll$
     00001B7A  A$Scroll$ |    00001B7B  A$Scroll$ |    00001B7C  A$Scroll$
     00001B7D  A$Scroll$ |    00001B7F  A$Scroll$ |    00001B7F  C$Scroll.
     00001B81  A$Scroll$ |    00001B82  A$Scroll$ |    00001B83  A$Scroll$
     00001B84  A$Scroll$ |    00001B85  A$Scroll$ |    00001B86  A$Scroll$
     00001B87  A$Scroll$ |    00001B88  A$Scroll$ |    00001B89  A$Scroll$
     00001B8B  A$Scroll$ |    00001B8D  A$Scroll$ |    00001B8F  A$Scroll$
     00001B91  A$Scroll$ |    00001B93  A$Scroll$ |    00001B95  A$Scroll$
     00001B95  C$Scroll. |    00001B97  A$Scroll$ |    00001B98  A$Scroll$
     00001B99  A$Scroll$ |    00001B9A  A$Scroll$ |    00001B9B  A$Scroll$
     00001B9C  A$Scroll$ |    00001B9D  A$Scroll$ |    00001B9E  A$Scroll$
     00001B9F  A$Scroll$ |    00001BA1  A$Scroll$ |    00001BA2  A$Scroll$
     00001BA3  A$Scroll$ |    00001BA4  A$Scroll$ |    00001BA6  A$Scroll$
     00001BA8  A$Scroll$ |    00001BA9  A$Scroll$ |    00001BAA  A$Scroll$
     00001BAB  A$Scroll$ |    00001BAC  A$Scroll$ |    00001BAD  A$Scroll$
     00001BAE  A$Scroll$ |    00001BB0  A$Scroll$ |    00001BB2  A$Scroll$
     00001BB2  C$Scroll. |    00001BB4  A$Scroll$ |    00001BB5  A$Scroll$
     00001BB6  A$Scroll$ |    00001BB7  A$Scroll$ |    00001BBA  A$Scroll$
     00001BBB  A$Scroll$ |    00001BBB  C$Scroll. |    00001BBD  A$Scroll$
     00001BBE  A$Scroll$ |    00001BC1  A$Scroll$ |    00001BC3  A$Scroll$
     00001BC3  C$Scroll. |    00001BC3  XG$Scroll |    00001BC4  A$Scroll$
     00001BC4  C$Scroll. |    00001BC4  G$ScrollU |    00001BC4  _ScrollUp
     00001BC6  A$Scroll$ |    00001BC6  C$Scroll. |    00001BC9  A$Scroll$
     00001BCA  A$Scroll$ |    00001BCC  A$Scroll$ |    00001BCE  A$Scroll$
     00001BCF  A$Scroll$ |    00001BD0  A$Scroll$ |    00001BD1  A$Scroll$
     00001BD2  A$Scroll$ |    00001BD3  A$Scroll$ |    00001BD6  A$Scroll$
     00001BD8  A$Scroll$ |    00001BD9  A$Scroll$ |    00001BDC  A$Scroll$
     00001BDD  A$Scroll$ |    00001BDE  A$Scroll$ |    00001BDF  A$Scroll$
     00001BE0  A$Scroll$ |    00001BE1  A$Scroll$ |    00001BE2  A$Scroll$
     00001BE4  A$Scroll$ |    00001BE5  A$Scroll$ |    00001BE6  A$Scroll$
     00001BE7  A$Scroll$ |    00001BE8  A$Scroll$ |    00001BE8  C$Scroll.
     00001BE9  A$Scroll$ |    00001BEC  A$Scroll$ |    00001BED  A$Scroll$
     00001BEE  A$Scroll$ |    00001BF1  A$Scroll$ |    00001BF2  A$Scroll$
     00001BF3  A$Scroll$ |    00001BF3  C$Scroll. |    00001BF5  A$Scroll$
ASxxxx Linker V03.00 + NoICE + sdld,  page 26.
Hexadecimal  [32-Bits]

Area                       Addr        Size        Decimal Bytes (Attributes)
--------------------       ----        ----        ------- ----- ------------
_CODE                  00000200    0000227C =        8828. bytes (REL,CON)

        Value  Global            Value  Global            Value  Global    
        -----  ------            -----  ------            -----  ------    
     00001BF6  A$Scroll$ |    00001BF8  A$Scroll$ |    00001BF9  A$Scroll$
     00001BF9  C$Scroll. |    00001BFB  A$Scroll$ |    00001BFC  A$Scroll$
     00001BFE  A$Scroll$ |    00001C00  A$Scroll$ |    00001C00  C$Scroll.
     00001C01  A$Scroll$ |    00001C02  A$Scroll$ |    00001C03  A$Scroll$
     00001C04  A$Scroll$ |    00001C05  A$Scroll$ |    00001C06  A$Scroll$
     00001C07  A$Scroll$ |    00001C08  A$Scroll$ |    00001C08  C$Scroll.
     00001C0A  A$Scroll$ |    00001C0B  A$Scroll$ |    00001C0C  A$Scroll$
     00001C0D  A$Scroll$ |    00001C0F  A$Scroll$ |    00001C10  A$Scroll$
     00001C12  A$Scroll$ |    00001C13  A$Scroll$ |    00001C14  A$Scroll$
     00001C16  A$Scroll$ |    00001C17  A$Scroll$ |    00001C19  A$Scroll$
     00001C1A  A$Scroll$ |    00001C1C  A$Scroll$ |    00001C1D  A$Scroll$
     00001C1E  A$Scroll$ |    00001C1F  A$Scroll$ |    00001C20  A$Scroll$
     00001C21  A$Scroll$ |    00001C22  A$Scroll$ |    00001C23  A$Scroll$
     00001C24  A$Scroll$ |    00001C25  A$Scroll$ |    00001C26  A$Scroll$
     00001C26  C$Scroll. |    00001C28  A$Scroll$ |    00001C29  A$Scroll$
     00001C2A  A$Scroll$ |    00001C2B  A$Scroll$ |    00001C2C  A$Scroll$
     00001C2D  A$Scroll$ |    00001C2E  A$Scroll$ |    00001C30  A$Scroll$
     00001C31  A$Scroll$ |    00001C32  A$Scroll$ |    00001C33  A$Scroll$
     00001C34  A$Scroll$ |    00001C35  A$Scroll$ |    00001C38  A$Scroll$
     00001C3A  A$Scroll$ |    00001C3A  C$Scroll. |    00001C3C  A$Scroll$
     00001C3D  A$Scroll$ |    00001C3E  A$Scroll$ |    00001C40  A$Scroll$
     00001C42  A$Scroll$ |    00001C42  C$Scroll. |    00001C44  A$Scroll$
     00001C45  A$Scroll$ |    00001C46  A$Scroll$ |    00001C47  A$Scroll$
     00001C4A  A$Scroll$ |    00001C4B  A$Scroll$ |    00001C4C  A$Scroll$
     00001C4D  A$Scroll$ |    00001C4E  A$Scroll$ |    00001C50  A$Scroll$
     00001C52  A$Scroll$ |    00001C55  A$Scroll$ |    00001C57  A$Scroll$
     00001C58  A$Scroll$ |    00001C5B  A$Scroll$ |    00001C5B  C$Scroll.
     00001C5D  A$Scroll$ |    00001C5E  A$Scroll$ |    00001C60  A$Scroll$
     00001C61  A$Scroll$ |    00001C62  A$Scroll$ |    00001C63  A$Scroll$
     00001C64  A$Scroll$ |    00001C65  A$Scroll$ |    00001C66  A$Scroll$
     00001C67  A$Scroll$ |    00001C68  A$Scroll$ |    00001C69  A$Scroll$
     00001C6A  A$Scroll$ |    00001C6B  A$Scroll$ |    00001C6C  A$Scroll$
     00001C6E  A$Scroll$ |    00001C6F  A$Scroll$ |    00001C70  A$Scroll$
     00001C71  A$Scroll$ |    00001C72  A$Scroll$ |    00001C73  A$Scroll$
     00001C74  A$Scroll$ |    00001C77  A$Scroll$ |    00001C78  A$Scroll$
     00001C79  A$Scroll$ |    00001C7A  A$Scroll$ |    00001C7C  A$Scroll$
     00001C7D  A$Scroll$ |    00001C7E  A$Scroll$ |    00001C7F  A$Scroll$
     00001C80  A$Scroll$ |    00001C81  A$Scroll$ |    00001C82  A$Scroll$
     00001C83  A$Scroll$ |    00001C84  A$Scroll$ |    00001C85  A$Scroll$
     00001C86  A$Scroll$ |    00001C87  A$Scroll$ |    00001C89  A$Scroll$
     00001C8B  A$Scroll$ |    00001C8D  A$Scroll$ |    00001C8F  A$Scroll$
     00001C91  A$Scroll$ |    00001C93  A$Scroll$ |    00001C95  A$Scroll$
     00001C96  A$Scroll$ |    00001C97  A$Scroll$ |    00001C99  A$Scroll$
     00001C9A  A$Scroll$ |    00001C9B  A$Scroll$ |    00001C9C  A$Scroll$
     00001C9E  A$Scroll$ |    00001C9E  C$Scroll. |    00001CA0  A$Scroll$
     00001CA1  A$Scroll$ |    00001CA2  A$Scroll$ |    00001CA3  A$Scroll$
     00001CA4  A$Scroll$ |    00001CA5  A$Scroll$ |    00001CA6  A$Scroll$
     00001CA7  A$Scroll$ |    00001CA8  A$Scroll$ |    00001CAA  A$Scroll$
     00001CAC  A$Scroll$ |    00001CAE  A$Scroll$ |    00001CB0  A$Scroll$
     00001CB2  A$Scroll$ |    00001CB4  A$Scroll$ |    00001CB4  C$Scroll.
     00001CB7  A$Scroll$ |    00001CB8  A$Scroll$ |    00001CB9  A$Scroll$
ASxxxx Linker V03.00 + NoICE + sdld,  page 27.
Hexadecimal  [32-Bits]

Area                       Addr        Size        Decimal Bytes (Attributes)
--------------------       ----        ----        ------- ----- ------------
_CODE                  00000200    0000227C =        8828. bytes (REL,CON)

        Value  Global            Value  Global            Value  Global    
        -----  ------            -----  ------            -----  ------    
     00001CBA  A$Scroll$ |    00001CBC  A$Scroll$ |    00001CBD  A$Scroll$
     00001CBE  A$Scroll$ |    00001CC0  A$Scroll$ |    00001CC1  A$Scroll$
     00001CC2  A$Scroll$ |    00001CC3  A$Scroll$ |    00001CC5  A$Scroll$
     00001CC6  A$Scroll$ |    00001CC7  A$Scroll$ |    00001CC8  A$Scroll$
     00001CC9  A$Scroll$ |    00001CCA  A$Scroll$ |    00001CCB  A$Scroll$
     00001CCC  A$Scroll$ |    00001CCD  A$Scroll$ |    00001CCF  A$Scroll$
     00001CD0  A$Scroll$ |    00001CD1  A$Scroll$ |    00001CD2  A$Scroll$
     00001CD4  A$Scroll$ |    00001CD6  A$Scroll$ |    00001CD7  A$Scroll$
     00001CD8  A$Scroll$ |    00001CD9  A$Scroll$ |    00001CDA  A$Scroll$
     00001CDB  A$Scroll$ |    00001CDC  A$Scroll$ |    00001CDE  A$Scroll$
     00001CE0  A$Scroll$ |    00001CE0  C$Scroll. |    00001CE2  A$Scroll$
     00001CE3  A$Scroll$ |    00001CE4  A$Scroll$ |    00001CE5  A$Scroll$
     00001CE8  A$Scroll$ |    00001CE9  A$Scroll$ |    00001CE9  C$Scroll.
     00001CEB  A$Scroll$ |    00001CEC  A$Scroll$ |    00001CEF  A$Scroll$
     00001CEF  C$Scroll. |    00001CF2  A$Scroll$ |    00001CF4  A$Scroll$
     00001CF4  C$Scroll. |    00001CF4  XG$Scroll |    00001CF5  A$Scroll$
     00001CF5  C$Scroll. |    00001CF5  G$ScrollU |    00001CF5  _ScrollUp
     00001CF7  A$Scroll$ |    00001CF7  C$Scroll. |    00001CFA  A$Scroll$
     00001CFB  A$Scroll$ |    00001CFC  A$Scroll$ |    00001CFF  A$Scroll$
     00001D00  A$Scroll$ |    00001D00  C$Scroll. |    00001D03  A$Scroll$
     00001D05  A$Scroll$ |    00001D07  A$Scroll$ |    00001D08  A$Scroll$
     00001D08  C$Scroll. |    00001D09  A$Scroll$ |    00001D0A  A$Scroll$
     00001D0B  A$Scroll$ |    00001D0D  A$Scroll$ |    00001D0E  A$Scroll$
     00001D10  A$Scroll$ |    00001D12  A$Scroll$ |    00001D15  A$Scroll$
     00001D16  A$Scroll$ |    00001D18  A$Scroll$ |    00001D18  C$Scroll.
     00001D1A  A$Scroll$ |    00001D1B  A$Scroll$ |    00001D1D  A$Scroll$
     00001D1F  A$Scroll$ |    00001D20  A$Scroll$ |    00001D21  A$Scroll$
     00001D23  A$Scroll$ |    00001D24  A$Scroll$ |    00001D27  A$Scroll$
     00001D28  A$Scroll$ |    00001D29  A$Scroll$ |    00001D2A  A$Scroll$
     00001D2B  A$Scroll$ |    00001D2C  A$Scroll$ |    00001D2E  A$Scroll$
     00001D2F  A$Scroll$ |    00001D30  A$Scroll$ |    00001D31  A$Scroll$
     00001D33  A$Scroll$ |    00001D34  A$Scroll$ |    00001D36  A$Scroll$
     00001D37  A$Scroll$ |    00001D38  A$Scroll$ |    00001D39  A$Scroll$
     00001D3A  A$Scroll$ |    00001D3B  A$Scroll$ |    00001D3C  A$Scroll$
     00001D3D  A$Scroll$ |    00001D3E  A$Scroll$ |    00001D3E  C$Scroll.
     00001D41  A$Scroll$ |    00001D42  A$Scroll$ |    00001D43  A$Scroll$
     00001D44  A$Scroll$ |    00001D45  A$Scroll$ |    00001D46  A$Scroll$
     00001D47  A$Scroll$ |    00001D48  A$Scroll$ |    00001D49  A$Scroll$
     00001D4C  A$Scroll$ |    00001D4E  A$Scroll$ |    00001D4E  C$Scroll.
     00001D51  A$Scroll$ |    00001D54  A$Scroll$ |    00001D55  A$Scroll$
     00001D58  A$Scroll$ |    00001D59  A$Scroll$ |    00001D5A  A$Scroll$
     00001D5C  A$Scroll$ |    00001D5D  A$Scroll$ |    00001D5D  C$Scroll.
     00001D5F  A$Scroll$ |    00001D60  A$Scroll$ |    00001D63  A$Scroll$
     00001D64  A$Scroll$ |    00001D66  A$Scroll$ |    00001D66  C$Scroll.
     00001D69  A$Scroll$ |    00001D6B  A$Scroll$ |    00001D6B  C$Scroll.
     00001D6B  XG$Scroll |    00001D6C  A$Scroll$ |    00001D6C  C$Scroll.
     00001D6C  G$ScrollU |    00001D6C  _ScrollUp |    00001D6E  A$Scroll$
     00001D6E  C$Scroll. |    00001D71  A$Scroll$ |    00001D72  A$Scroll$
     00001D74  A$Scroll$ |    00001D74  C$Scroll. |    00001D77  A$Scroll$
     00001D79  A$Scroll$ |    00001D79  C$Scroll. |    00001D7B  A$Scroll$
     00001D7C  A$Scroll$ |    00001D7D  A$Scroll$ |    00001D7E  A$Scroll$
ASxxxx Linker V03.00 + NoICE + sdld,  page 28.
Hexadecimal  [32-Bits]

Area                       Addr        Size        Decimal Bytes (Attributes)
--------------------       ----        ----        ------- ----- ------------
_CODE                  00000200    0000227C =        8828. bytes (REL,CON)

        Value  Global            Value  Global            Value  Global    
        -----  ------            -----  ------            -----  ------    
     00001D81  A$Scroll$ |    00001D82  A$Scroll$ |    00001D83  A$Scroll$
     00001D84  A$Scroll$ |    00001D85  A$Scroll$ |    00001D87  A$Scroll$
     00001D89  A$Scroll$ |    00001D8C  A$Scroll$ |    00001D8E  A$Scroll$
     00001D8F  A$Scroll$ |    00001D92  A$Scroll$ |    00001D92  C$Scroll.
     00001D94  A$Scroll$ |    00001D95  A$Scroll$ |    00001D97  A$Scroll$
     00001D98  A$Scroll$ |    00001D99  A$Scroll$ |    00001D9A  A$Scroll$
     00001D9B  A$Scroll$ |    00001D9C  A$Scroll$ |    00001D9D  A$Scroll$
     00001D9E  A$Scroll$ |    00001D9F  A$Scroll$ |    00001DA0  A$Scroll$
     00001DA1  A$Scroll$ |    00001DA2  A$Scroll$ |    00001DA3  A$Scroll$
     00001DA5  A$Scroll$ |    00001DA6  A$Scroll$ |    00001DA7  A$Scroll$
     00001DA8  A$Scroll$ |    00001DA9  A$Scroll$ |    00001DAA  A$Scroll$
     00001DAB  A$Scroll$ |    00001DAE  A$Scroll$ |    00001DAF  A$Scroll$
     00001DB0  A$Scroll$ |    00001DB1  A$Scroll$ |    00001DB3  A$Scroll$
     00001DB4  A$Scroll$ |    00001DB5  A$Scroll$ |    00001DB6  A$Scroll$
     00001DB7  A$Scroll$ |    00001DB8  A$Scroll$ |    00001DB9  A$Scroll$
     00001DBA  A$Scroll$ |    00001DBB  A$Scroll$ |    00001DBC  A$Scroll$
     00001DBD  A$Scroll$ |    00001DBE  A$Scroll$ |    00001DC0  A$Scroll$
     00001DC2  A$Scroll$ |    00001DC4  A$Scroll$ |    00001DC6  A$Scroll$
     00001DC8  A$Scroll$ |    00001DCA  A$Scroll$ |    00001DCC  A$Scroll$
     00001DCD  A$Scroll$ |    00001DCE  A$Scroll$ |    00001DD0  A$Scroll$
     00001DD1  A$Scroll$ |    00001DD2  A$Scroll$ |    00001DD3  A$Scroll$
     00001DD5  A$Scroll$ |    00001DD5  C$Scroll. |    00001DD7  A$Scroll$
     00001DD8  A$Scroll$ |    00001DD9  A$Scroll$ |    00001DDA  A$Scroll$
     00001DDB  A$Scroll$ |    00001DDC  A$Scroll$ |    00001DDD  A$Scroll$
     00001DDE  A$Scroll$ |    00001DDF  A$Scroll$ |    00001DE1  A$Scroll$
     00001DE3  A$Scroll$ |    00001DE5  A$Scroll$ |    00001DE7  A$Scroll$
     00001DE9  A$Scroll$ |    00001DEB  A$Scroll$ |    00001DEB  C$Scroll.
     00001DED  A$Scroll$ |    00001DEE  A$Scroll$ |    00001DEF  A$Scroll$
     00001DF0  A$Scroll$ |    00001DF1  A$Scroll$ |    00001DF2  A$Scroll$
     00001DF3  A$Scroll$ |    00001DF4  A$Scroll$ |    00001DF5  A$Scroll$
     00001DF7  A$Scroll$ |    00001DF8  A$Scroll$ |    00001DF9  A$Scroll$
     00001DFA  A$Scroll$ |    00001DFC  A$Scroll$ |    00001DFE  A$Scroll$
     00001DFF  A$Scroll$ |    00001E00  A$Scroll$ |    00001E01  A$Scroll$
     00001E02  A$Scroll$ |    00001E03  A$Scroll$ |    00001E04  A$Scroll$
     00001E06  A$Scroll$ |    00001E08  A$Scroll$ |    00001E08  C$Scroll.
     00001E0A  A$Scroll$ |    00001E0B  A$Scroll$ |    00001E0C  A$Scroll$
     00001E0D  A$Scroll$ |    00001E10  A$Scroll$ |    00001E11  A$Scroll$
     00001E11  C$Scroll. |    00001E13  A$Scroll$ |    00001E14  A$Scroll$
     00001E17  A$Scroll$ |    00001E17  C$Scroll. |    00001E19  A$Scroll$
     00001E1A  A$Scroll$ |    00001E1B  A$Scroll$ |    00001E1E  A$Scroll$
     00001E1F  A$Scroll$ |    00001E20  A$Scroll$ |    00001E20  C$Scroll.
     00001E22  A$Scroll$ |    00001E23  A$Scroll$ |    00001E24  A$Scroll$
     00001E25  A$Scroll$ |    00001E28  A$Scroll$ |    00001E29  A$Scroll$
     00001E2A  A$Scroll$ |    00001E2B  A$Scroll$ |    00001E2B  C$Scroll.
     00001E2E  A$Scroll$ |    00001E30  A$Scroll$ |    00001E30  C$Scroll.
     00001E33  A$Scroll$ |    00001E34  A$Scroll$ |    00001E36  A$Scroll$
     00001E37  A$Scroll$ |    00001E38  A$Scroll$ |    00001E3B  A$Scroll$
     00001E3D  A$Scroll$ |    00001E3E  A$Scroll$ |    00001E41  A$Scroll$
     00001E42  A$Scroll$ |    00001E43  A$Scroll$ |    00001E44  A$Scroll$
     00001E45  A$Scroll$ |    00001E46  A$Scroll$ |    00001E47  A$Scroll$
     00001E49  A$Scroll$ |    00001E4A  A$Scroll$ |    00001E4B  A$Scroll$
ASxxxx Linker V03.00 + NoICE + sdld,  page 29.
Hexadecimal  [32-Bits]

Area                       Addr        Size        Decimal Bytes (Attributes)
--------------------       ----        ----        ------- ----- ------------
_CODE                  00000200    0000227C =        8828. bytes (REL,CON)

        Value  Global            Value  Global            Value  Global    
        -----  ------            -----  ------            -----  ------    
     00001E4C  A$Scroll$ |    00001E4D  A$Scroll$ |    00001E4E  A$Scroll$
     00001E4F  A$Scroll$ |    00001E52  A$Scroll$ |    00001E53  A$Scroll$
     00001E54  A$Scroll$ |    00001E56  A$Scroll$ |    00001E56  C$Scroll.
     00001E56  XG$Scroll |    00001E57  A$Scroll$ |    00001E57  C$Scroll.
     00001E57  C$Scroll. |    00001E57  G$Refresh |    00001E57  _RefreshS
     00001E59  A$Scroll$ |    00001E5A  A$Scroll$ |    00001E5B  A$Scroll$
     00001E5E  A$Scroll$ |    00001E5F  A$Scroll$ |    00001E5F  C$Scroll.
     00001E62  A$Scroll$ |    00001E62  C$Scroll. |    00001E62  C$Scroll.
     00001E62  XG$Refres |    00001E65  A$Scroll$ |    00001E65  C$Scroll.
     00001E65  C$Scroll. |    00001E65  G$InitScr |    00001E65  _InitScro
     00001E68  A$Scroll$ |    00001E6A  A$Scroll$ |    00001E6A  C$Scroll.
     00001E6D  A$Scroll$ |    00001E6F  A$Scroll$ |    00001E6F  C$Scroll.
     00001E72  A$Scroll$ |    00001E74  A$Scroll$ |    00001E75  A$Scroll$
     00001E77  A$Scroll$ |    00001E77  C$Scroll. |    00001E7A  A$Scroll$
     00001E7C  A$Scroll$ |    00001E7D  A$Scroll$ |    00001E7F  A$Scroll$
     00001E7F  C$Scroll. |    00001E7F  XG$InitSc |    00001E80  A$Scroll$
     00001E80  C$Scroll. |    00001E80  G$RenderS |    00001E80  _RenderSc
     00001E82  A$Scroll$ |    00001E82  C$Scroll. |    00001E85  A$Scroll$
     00001E86  A$Scroll$ |    00001E88  A$Scroll$ |    00001E88  C$Scroll.
     00001E8B  A$Scroll$ |    00001E8D  A$Scroll$ |    00001E8D  C$Scroll.
     00001E90  A$Scroll$ |    00001E91  A$Scroll$ |    00001E92  A$Scroll$
     00001E94  A$Scroll$ |    00001E94  C$Scroll. |    00001E95  A$Scroll$
     00001E95  C$Scroll. |    00001E97  A$Scroll$ |    00001E97  C$Scroll.
     00001E98  A$Scroll$ |    00001E9B  A$Scroll$ |    00001E9C  A$Scroll$
     00001E9C  C$Scroll. |    00001E9F  A$Scroll$ |    00001EA0  A$Scroll$
     00001EA0  C$Scroll. |    00001EA3  A$Scroll$ |    00001EA5  A$Scroll$
     00001EA5  C$Scroll. |    00001EA8  A$Scroll$ |    00001EAA  A$Scroll$
     00001EAA  C$Scroll. |    00001EAD  A$Scroll$ |    00001EAE  A$Scroll$
     00001EAF  A$Scroll$ |    00001EB2  A$Scroll$ |    00001EB3  A$Scroll$
     00001EB3  C$Scroll. |    00001EB6  A$Scroll$ |    00001EB7  A$Scroll$
     00001EB8  A$Scroll$ |    00001EB9  A$Scroll$ |    00001EBA  A$Scroll$
     00001EBC  A$Scroll$ |    00001EBE  A$Scroll$ |    00001EC0  A$Scroll$
     00001EC2  A$Scroll$ |    00001EC4  A$Scroll$ |    00001EC6  A$Scroll$
     00001EC6  C$Scroll. |    00001EC7  A$Scroll$ |    00001EC9  A$Scroll$
     00001ECA  A$Scroll$ |    00001ECC  A$Scroll$ |    00001ECD  A$Scroll$
     00001ECF  A$Scroll$ |    00001ED1  A$Scroll$ |    00001ED2  A$Scroll$
     00001ED3  A$Scroll$ |    00001ED6  A$Scroll$ |    00001ED7  A$Scroll$
     00001ED8  A$Scroll$ |    00001EDA  A$Scroll$ |    00001EDB  A$Scroll$
     00001EDC  A$Scroll$ |    00001EDD  A$Scroll$ |    00001EDF  A$Scroll$
     00001EDF  C$Scroll. |    00001EE2  A$Scroll$ |    00001EE3  A$Scroll$
     00001EE4  A$Scroll$ |    00001EE5  A$Scroll$ |    00001EE6  A$Scroll$
     00001EE7  A$Scroll$ |    00001EE9  A$Scroll$ |    00001EEA  A$Scroll$
     00001EEB  A$Scroll$ |    00001EEE  A$Scroll$ |    00001EEF  A$Scroll$
     00001EF0  A$Scroll$ |    00001EF1  A$Scroll$ |    00001EF2  A$Scroll$
     00001EF4  A$Scroll$ |    00001EF6  A$Scroll$ |    00001EF8  A$Scroll$
     00001EFA  A$Scroll$ |    00001EFC  A$Scroll$ |    00001EFE  A$Scroll$
     00001EFF  A$Scroll$ |    00001F00  A$Scroll$ |    00001F02  A$Scroll$
     00001F03  A$Scroll$ |    00001F04  A$Scroll$ |    00001F05  A$Scroll$
     00001F06  A$Scroll$ |    00001F07  A$Scroll$ |    00001F0A  A$Scroll$
     00001F0C  A$Scroll$ |    00001F0D  A$Scroll$ |    00001F0D  C$Scroll.
     00001F0F  A$Scroll$ |    00001F10  A$Scroll$ |    00001F11  A$Scroll$
ASxxxx Linker V03.00 + NoICE + sdld,  page 30.
Hexadecimal  [32-Bits]

Area                       Addr        Size        Decimal Bytes (Attributes)
--------------------       ----        ----        ------- ----- ------------
_CODE                  00000200    0000227C =        8828. bytes (REL,CON)

        Value  Global            Value  Global            Value  Global    
        -----  ------            -----  ------            -----  ------    
     00001F13  A$Scroll$ |    00001F13  C$Scroll. |    00001F16  A$Scroll$
     00001F16  C$Scroll. |    00001F19  A$Scroll$ |    00001F1B  A$Scroll$
     00001F1B  C$Scroll. |    00001F1D  A$Scroll$ |    00001F1F  A$Scroll$
     00001F21  A$Scroll$ |    00001F21  C$Scroll. |    00001F24  A$Scroll$
     00001F25  A$Scroll$ |    00001F27  A$Scroll$ |    00001F27  C$Scroll.
     00001F2A  A$Scroll$ |    00001F2C  A$Scroll$ |    00001F2C  C$Scroll.
     00001F2C  XG$Render |    00001F2D  A$Sprite$ |    00001F2D  C$Sprite.
     00001F2D  C$Sprite. |    00001F2D  G$SpriteP |    00001F2D  _SpritePo
     00001F2F  A$Sprite$ |    00001F30  A$Sprite$ |    00001F31  A$Sprite$
     00001F34  A$Sprite$ |    00001F35  A$Sprite$ |    00001F35  C$Sprite.
     00001F38  A$Sprite$ |    00001F38  C$Sprite. |    00001F38  C$Sprite.
     00001F38  XG$Sprite |    00001F3B  A$Sprite$ |    00001F3B  C$Sprite.
     00001F3B  C$Sprite. |    00001F3B  G$SpriteP |    00001F3B  _SpritePo
     00001F3D  A$Sprite$ |    00001F3E  A$Sprite$ |    00001F3F  A$Sprite$
     00001F42  A$Sprite$ |    00001F43  A$Sprite$ |    00001F43  C$Sprite.
     00001F45  A$Sprite$ |    00001F46  A$Sprite$ |    00001F47  A$Sprite$
     00001F48  A$Sprite$ |    00001F4B  A$Sprite$ |    00001F4C  A$Sprite$
     00001F4C  C$Sprite. |    00001F4C  C$Sprite. |    00001F4C  XG$Sprite
     00001F4F  A$Sprite$ |    00001F4F  C$Sprite. |    00001F4F  C$Sprite.
     00001F4F  G$SpriteP |    00001F4F  _SpritePo |    00001F51  A$Sprite$
     00001F52  A$Sprite$ |    00001F53  A$Sprite$ |    00001F56  A$Sprite$
     00001F57  A$Sprite$ |    00001F57  C$Sprite. |    00001F5A  A$Sprite$
     00001F5A  C$Sprite. |    00001F5B  A$Sprite$ |    00001F5E  A$Sprite$
     00001F5F  A$Sprite$ |    00001F5F  C$Sprite. |    00001F5F  C$Sprite.
     00001F5F  XG$Sprite |    00001F60  A$Stack$5 |    00001F60  C$Stack.c
     00001F60  C$Stack.c |    00001F60  G$StackPu |    00001F60  _StackPus
     00001F61  A$Stack$5 |    00001F62  A$Stack$5 |    00001F63  A$Stack$5
     00001F64  A$Stack$5 |    00001F65  A$Stack$5 |    00001F66  A$Stack$5
     00001F67  A$Stack$6 |    00001F68  A$Stack$6 |    00001F69  A$Stack$6
     00001F6B  A$Stack$6 |    00001F6C  A$Stack$6 |    00001F6D  A$Stack$6
     00001F6F  A$Stack$6 |    00001F70  A$Stack$6 |    00001F71  A$Stack$7
     00001F71  C$Stack.c |    00001F71  XG$StackP |    00001F72  A$Stack$8
     00001F72  C$Stack.c |    00001F72  C$Stack.c |    00001F72  G$StackPo
     00001F72  _StackPop |    00001F73  A$Stack$8 |    00001F74  A$Stack$9
     00001F75  A$Stack$9 |    00001F76  A$Stack$9 |    00001F77  A$Stack$9
     00001F78  A$Stack$9 |    00001F79  A$Stack$9 |    00001F7A  A$Stack$9
     00001F7B  A$Stack$9 |    00001F7D  A$Stack$9 |    00001F7E  A$Stack$9
     00001F7F  A$Stack$1 |    00001F7F  C$Stack.c |    00001F7F  XG$StackP
     00001F80  A$Stack$1 |    00001F80  C$Stack.c |    00001F80  G$StackSh
     00001F80  _StackShi |    00001F82  A$Stack$1 |    00001F82  C$Stack.c
     00001F84  A$Stack$1 |    00001F85  A$Stack$1 |    00001F86  A$Stack$1
     00001F87  A$Stack$1 |    00001F88  A$Stack$1 |    00001F89  A$Stack$1
     00001F8B  A$Stack$1 |    00001F8C  A$Stack$1 |    00001F8E  A$Stack$1
     00001F8F  A$Stack$1 |    00001F90  A$Stack$1 |    00001F91  A$Stack$1
     00001F92  A$Stack$1 |    00001F94  A$Stack$1 |    00001F95  A$Stack$1
     00001F96  A$Stack$1 |    00001F97  A$Stack$1 |    00001F99  A$Stack$1
     00001F9A  A$Stack$1 |    00001F9B  A$Stack$1 |    00001F9D  A$Stack$1
     00001F9D  C$Stack.c |    00001F9F  A$Stack$1 |    00001FA0  A$Stack$1
     00001FA1  A$Stack$1 |    00001FA2  A$Stack$1 |    00001FA3  A$Stack$1
     00001FA4  A$Stack$1 |    00001FA5  A$Stack$1 |    00001FA6  A$Stack$1
     00001FA7  A$Stack$1 |    00001FA8  A$Stack$1 |    00001FA9  A$Stack$1
ASxxxx Linker V03.00 + NoICE + sdld,  page 31.
Hexadecimal  [32-Bits]

Area                       Addr        Size        Decimal Bytes (Attributes)
--------------------       ----        ----        ------- ----- ------------
_CODE                  00000200    0000227C =        8828. bytes (REL,CON)

        Value  Global            Value  Global            Value  Global    
        -----  ------            -----  ------            -----  ------    
     00001FAA  A$Stack$1 |    00001FAB  A$Stack$1 |    00001FAC  A$Stack$1
     00001FAE  A$Stack$1 |    00001FAF  A$Stack$1 |    00001FB0  A$Stack$1
     00001FB1  A$Stack$1 |    00001FB2  A$Stack$1 |    00001FB3  A$Stack$1
     00001FB4  A$Stack$1 |    00001FB5  A$Stack$1 |    00001FB6  A$Stack$1
     00001FB6  C$Stack.c |    00001FB8  A$Stack$1 |    00001FB9  A$Stack$1
     00001FBB  A$Stack$1 |    00001FBB  C$Stack.c |    00001FBC  A$Stack$1
     00001FBD  A$Stack$1 |    00001FBE  A$Stack$1 |    00001FBE  C$Stack.c
     00001FC0  A$Stack$1 |    00001FC1  A$Stack$1 |    00001FC3  A$Stack$1
     00001FC3  C$Stack.c |    00001FC3  XG$StackS |    00001FC4  A$Trigger
     00001FC4  C$Trigger |    00001FC4  C$Trigger |    00001FC4  G$Trigger
     00001FC4  _TriggerA |    00001FC6  A$Trigger |    00001FC7  A$Trigger
     00001FC8  A$Trigger |    00001FCB  A$Trigger |    00001FCC  A$Trigger
     00001FCC  C$Trigger |    00001FCE  A$Trigger |    00001FCF  A$Trigger
     00001FD0  A$Trigger |    00001FD1  A$Trigger |    00001FD2  A$Trigger
     00001FD3  A$Trigger |    00001FD4  A$Trigger |    00001FD5  A$Trigger
     00001FD8  A$Trigger |    00001FDA  A$Trigger |    00001FDA  C$Trigger
     00001FDB  A$Trigger |    00001FDE  A$Trigger |    00001FDF  A$Trigger
     00001FDF  C$Trigger |    00001FDF  C$Trigger |    00001FDF  XG$Trigge
     00001FE0  A$Trigger |    00001FE0  C$Trigger |    00001FE0  C$Trigger
     00001FE0  G$Trigger |    00001FE0  _TriggerR |    00001FE2  A$Trigger
     00001FE3  A$Trigger |    00001FE5  A$Trigger |    00001FE6  A$Trigger
     00001FE7  A$Trigger |    00001FE8  A$Trigger |    00001FE9  A$Trigger
     00001FEA  A$Trigger |    00001FEB  A$Trigger |    00001FEE  A$Trigger
     00001FEF  A$Trigger |    00001FF2  A$Trigger |    00001FF3  A$Trigger
     00001FF4  A$Trigger |    00001FF7  A$Trigger |    00001FF9  A$Trigger
     00001FF9  C$Trigger |    00001FF9  XG$Trigge |    00001FFA  A$Trigger
     00001FFA  C$Trigger |    00001FFA  C$Trigger |    00001FFA  G$Activat
     00001FFA  _Activate |    00001FFC  A$Trigger |    00001FFD  A$Trigger
     00001FFE  A$Trigger |    00002000  A$Trigger |    00002001  A$Trigger
     00002002  A$Trigger |    00002003  A$Trigger |    00002006  A$Trigger
     00002007  A$Trigger |    00002009  A$Trigger |    0000200B  A$Trigger
     0000200C  A$Trigger |    0000200F  A$Trigger |    0000200F  C$Trigger
     00002010  A$Trigger |    00002012  A$Trigger |    00002013  A$Trigger
     00002014  A$Trigger |    00002014  C$Trigger |    00002016  A$Trigger
     00002017  A$Trigger |    00002018  A$Trigger |    00002019  A$Trigger
     0000201A  A$Trigger |    0000201B  A$Trigger |    0000201C  A$Trigger
     0000201D  A$Trigger |    00002020  A$Trigger |    00002022  A$Trigger
     00002022  C$Trigger |    00002024  A$Trigger |    00002025  A$Trigger
     00002028  A$Trigger |    00002028  C$Trigger |    0000202A  A$Trigger
     0000202B  A$Trigger |    0000202E  A$Trigger |    0000202E  C$Trigger
     0000202F  A$Trigger |    00002030  A$Trigger |    00002032  A$Trigger
     00002032  C$Trigger |    00002033  A$Trigger |    00002034  A$Trigger
     00002035  A$Trigger |    00002038  A$Trigger |    00002039  A$Trigger
     00002039  C$Trigger |    0000203B  A$Trigger |    0000203C  A$Trigger
     0000203C  C$Trigger |    0000203E  A$Trigger |    0000203E  C$Trigger
     0000203E  XG$Activa |    0000203F  A$UI$600  |    0000203F  C$UI.c$60
     0000203F  C$UI.c$61 |    0000203F  G$UIInit$ |    0000203F  _UIInit  
     00002041  A$UI$601  |    00002042  A$UI$602  |    00002043  A$UI$603 
     00002046  A$UI$604  |    00002047  A$UI$608  |    00002047  C$UI.c$62
     0000204A  A$UI$609  |    0000204C  A$UI$613  |    0000204C  C$UI.c$63
     0000204F  A$UI$614  |    00002051  A$UI$618  |    00002051  C$UI.c$64
ASxxxx Linker V03.00 + NoICE + sdld,  page 32.
Hexadecimal  [32-Bits]

Area                       Addr        Size        Decimal Bytes (Attributes)
--------------------       ----        ----        ------- ----- ------------
_CODE                  00000200    0000227C =        8828. bytes (REL,CON)

        Value  Global            Value  Global            Value  Global    
        -----  ------            -----  ------            -----  ------    
     00002054  A$UI$629  |    00002054  C$UI.c$65 |    00002054  C$UI.c$66
     00002054  XG$UIInit |    00002057  A$UI$642  |    00002057  C$UI.c$68
     00002057  C$UI.c$69 |    00002057  G$UIUpdat |    00002057  _UIUpdate
     00002059  A$UI$643  |    0000205A  A$UI$644  |    0000205B  A$UI$645 
     0000205E  A$UI$646  |    0000205F  A$UI$650  |    0000205F  C$UI.c$70
     00002062  A$UI$661  |    00002062  C$UI.c$71 |    00002062  C$UI.c$72
     00002062  XG$UIUpda |    00002065  A$UI$674  |    00002065  C$UI.c$74
     00002065  C$UI.c$75 |    00002065  G$UIReset |    00002065  _UIReset 
     00002067  A$UI$675  |    00002068  A$UI$676  |    00002069  A$UI$677 
     0000206C  A$UI$678  |    0000206D  A$UI$682  |    0000206D  C$UI.c$76
     00002070  A$UI$693  |    00002070  C$UI.c$77 |    00002070  C$UI.c$78
     00002070  XG$UIRese |    00002073  A$UI$706  |    00002073  C$UI.c$80
     00002073  C$UI.c$81 |    00002073  G$UIDrawF |    00002073  _UIDrawFr
     00002075  A$UI$707  |    00002076  A$UI$708  |    00002077  A$UI$709 
     0000207A  A$UI$710  |    0000207B  A$UI$714  |    0000207B  C$UI.c$82
     0000207D  A$UI$715  |    0000207E  A$UI$716  |    0000207F  A$UI$717 
     00002080  A$UI$718  |    00002081  A$UI$719  |    00002082  A$UI$720 
     00002083  A$UI$721  |    00002084  A$UI$722  |    00002085  A$UI$723 
     00002086  A$UI$724  |    00002087  A$UI$725  |    00002088  A$UI$726 
     00002089  A$UI$727  |    0000208A  A$UI$728  |    0000208B  A$UI$729 
     0000208C  A$UI$730  |    0000208F  A$UI$731  |    00002091  A$UI$742 
     00002091  C$UI.c$83 |    00002091  C$UI.c$84 |    00002091  XG$UIDraw
     00002094  A$UI$755  |    00002094  C$UI.c$86 |    00002094  C$UI.c$87
     00002094  G$UIDrawD |    00002094  _UIDrawDi |    00002096  A$UI$756 
     00002097  A$UI$757  |    00002098  A$UI$758  |    0000209B  A$UI$759 
     0000209C  A$UI$763  |    0000209C  C$UI.c$88 |    0000209E  A$UI$764 
     0000209F  A$UI$765  |    000020A0  A$UI$766  |    000020A1  A$UI$767 
     000020A4  A$UI$768  |    000020A5  A$UI$779  |    000020A5  C$UI.c$89
     000020A5  C$UI.c$90 |    000020A5  XG$UIDraw |    000020A8  A$UI$792 
     000020A8  C$UI.c$92 |    000020A8  C$UI.c$95 |    000020A8  G$UIShowT
     000020A8  _UIShowTe |    000020AB  A$UI$793  |    000020AC  A$UI$794 
     000020AF  A$UI$795  |    000020B0  A$UI$796  |    000020B3  A$UI$797 
     000020B5  A$UI$801  |    000020B5  C$UI.c$97 |    000020B7  A$UI$802 
     000020B8  A$UI$803  |    000020B9  A$UI$804  |    000020BA  A$UI$805 
     000020BD  A$UI$806  |    000020BE  A$UI$810  |    000020BE  C$UI.c$99
     000020BF  A$UI$811  |    000020C1  A$UI$812  |    000020C2  A$UI$813 
     000020C3  A$UI$814  |    000020C4  A$UI$815  |    000020C7  A$UI$816 
     000020C8  A$UI$817  |    000020CB  A$UI$818  |    000020CC  A$UI$819 
     000020CF  A$UI$820  |    000020D1  A$UI$824  |    000020D1  C$UI.c$10
     000020D4  A$UI$828  |    000020D4  C$UI.c$10 |    000020D6  A$UI$829 
     000020D7  A$UI$830  |    000020D8  A$UI$831  |    000020DB  A$UI$832 
     000020DC  A$UI$836  |    000020DC  C$UI.c$10 |    000020DF  A$UI$847 
     000020DF  C$UI.c$10 |    000020DF  C$UI.c$10 |    000020DF  XG$UIShow
     000020E2  FUI$__str |    000020E3  A$UI$860  |    000020E3  C$UI.c$10
     000020E3  G$UIShowA |    000020E3  _UIShowAv |    000020E5  A$UI$861 
     000020E7  A$UI$865  |    000020E7  C$UI.c$11 |    000020EA  A$UI$866 
     000020EB  A$UI$867  |    000020EC  A$UI$868  |    000020EE  A$UI$869 
     000020EF  A$UI$870  |    000020F0  A$UI$871  |    000020F1  A$UI$872 
     000020F2  A$UI$873  |    000020F5  A$UI$874  |    000020F6  A$UI$875 
     000020F7  A$UI$876  |    000020F8  A$UI$877  |    000020FA  A$UI$878 
     000020FB  A$UI$879  |    000020FC  A$UI$880  |    000020FD  A$UI$881 
ASxxxx Linker V03.00 + NoICE + sdld,  page 33.
Hexadecimal  [32-Bits]

Area                       Addr        Size        Decimal Bytes (Attributes)
--------------------       ----        ----        ------- ----- ------------
_CODE                  00000200    0000227C =        8828. bytes (REL,CON)

        Value  Global            Value  Global            Value  Global    
        -----  ------            -----  ------            -----  ------    
     000020FF  A$UI$882  |    00002100  A$UI$883  |    00002101  A$UI$884 
     00002104  A$UI$885  |    00002106  A$UI$886  |    00002107  A$UI$890 
     00002107  C$UI.c$11 |    00002108  A$UI$891  |    00002109  A$UI$892 
     0000210A  A$UI$893  |    0000210B  A$UI$894  |    0000210C  A$UI$895 
     0000210D  A$UI$896  |    0000210E  A$UI$897  |    00002110  A$UI$898 
     00002111  A$UI$902  |    00002111  C$UI.c$11 |    00002112  A$UI$903 
     00002113  A$UI$904  |    00002114  A$UI$905  |    00002115  A$UI$906 
     00002116  A$UI$907  |    00002117  A$UI$908  |    0000211A  A$UI$909 
     0000211C  A$UI$910  |    0000211D  A$UI$911  |    0000211E  A$UI$912 
     0000211F  A$UI$913  |    00002120  A$UI$914  |    00002121  A$UI$915 
     00002124  A$UI$916  |    00002125  A$UI$917  |    00002126  A$UI$921 
     00002126  C$UI.c$12 |    00002127  A$UI$922  |    00002128  A$UI$923 
     00002129  A$UI$924  |    0000212A  A$UI$925  |    0000212D  A$UI$926 
     0000212E  A$UI$927  |    0000212F  A$UI$931  |    0000212F  C$UI.c$12
     00002132  A$UI$932  |    00002133  A$UI$933  |    00002134  A$UI$934 
     00002136  A$UI$935  |    00002138  A$UI$936  |    0000213A  A$UI$937 
     0000213C  A$UI$938  |    0000213E  A$UI$939  |    00002140  A$UI$940 
     00002142  A$UI$941  |    00002144  A$UI$942  |    00002146  A$UI$943 
     00002147  A$UI$944  |    00002148  A$UI$945  |    00002149  A$UI$946 
     0000214A  A$UI$947  |    0000214B  A$UI$948  |    0000214D  A$UI$949 
     0000214E  A$UI$950  |    0000214F  A$UI$951  |    00002152  A$UI$952 
     00002153  A$UI$953  |    00002154  A$UI$954  |    00002155  A$UI$955 
     00002156  A$UI$956  |    00002157  A$UI$957  |    0000215A  A$UI$958 
     0000215B  A$UI$959  |    0000215C  A$UI$960  |    0000215D  A$UI$961 
     0000215E  A$UI$962  |    0000215F  A$UI$963  |    00002160  A$UI$964 
     00002163  A$UI$965  |    00002164  A$UI$966  |    00002165  A$UI$967 
     00002166  A$UI$968  |    00002167  A$UI$969  |    00002168  A$UI$970 
     0000216B  A$UI$971  |    0000216D  A$UI$972  |    00002170  A$UI$973 
     00002173  A$UI$974  |    00002174  A$UI$975  |    00002175  A$UI$976 
     00002177  A$UI$977  |    00002178  A$UI$978  |    0000217A  A$UI$979 
     0000217B  A$UI$980  |    0000217C  A$UI$981  |    0000217F  A$UI$982 
     00002181  A$UI$986  |    00002181  C$UI.c$12 |    00002183  A$UI$990 
     00002183  C$UI.c$12 |    00002185  A$UI$991  |    00002186  A$UI$995 
     00002186  C$UI.c$12 |    00002188  A$UI$996  |    00002189  A$UI$1000
     00002189  C$UI.c$12 |    0000218B  A$UI$1001 |    0000218C  A$UI$1002
     0000218E  A$UI$1006 |    0000218E  C$UI.c$13 |    00002190  A$UI$1007
     00002191  A$UI$1008 |    00002194  A$UI$1009 |    00002195  A$UI$1010
     00002198  A$UI$1011 |    00002199  A$UI$1012 |    0000219C  A$UI$1013
     0000219E  A$UI$1017 |    0000219E  C$UI.c$13 |    000021A0  A$UI$1018
     000021A1  A$UI$1019 |    000021A4  A$UI$1020 |    000021A5  A$UI$1021
     000021A8  A$UI$1022 |    000021A9  A$UI$1023 |    000021AC  A$UI$1024
     000021AE  A$UI$1028 |    000021AE  C$UI.c$13 |    000021B0  A$UI$1029
     000021B1  A$UI$1030 |    000021B4  A$UI$1031 |    000021B5  A$UI$1032
     000021B8  A$UI$1033 |    000021B9  A$UI$1034 |    000021BC  A$UI$1035
     000021BE  A$UI$1039 |    000021BE  C$UI.c$13 |    000021C0  A$UI$1040
     000021C1  A$UI$1041 |    000021C4  A$UI$1042 |    000021C5  A$UI$1043
     000021C8  A$UI$1044 |    000021C9  A$UI$1045 |    000021CC  A$UI$1046
     000021CE  A$UI$1050 |    000021D0  A$UI$1051 |    000021D2  A$UI$1056
     000021D2  C$UI.c$13 |    000021D2  XG$UIShow |    000021D3  A$UI$1069
     000021D3  C$UI.c$13 |    000021D3  C$UI.c$13 |    000021D3  G$UIShowC
     000021D3  _UIShowCh |    000021D5  A$UI$1070 |    000021D6  A$UI$1071
ASxxxx Linker V03.00 + NoICE + sdld,  page 34.
Hexadecimal  [32-Bits]

Area                       Addr        Size        Decimal Bytes (Attributes)
--------------------       ----        ----        ------- ----- ------------
_CODE                  00000200    0000227C =        8828. bytes (REL,CON)

        Value  Global            Value  Global            Value  Global    
        -----  ------            -----  ------            -----  ------    
     000021D7  A$UI$1072 |    000021DA  A$UI$1073 |    000021DB  A$UI$1077
     000021DB  C$UI.c$13 |    000021DD  A$UI$1078 |    000021DE  A$UI$1079
     000021DF  A$UI$1080 |    000021E0  A$UI$1081 |    000021E1  A$UI$1082
     000021E2  A$UI$1083 |    000021E4  A$UI$1084 |    000021E5  A$UI$1085
     000021E6  A$UI$1086 |    000021E7  A$UI$1087 |    000021E8  A$UI$1088
     000021EA  A$UI$1089 |    000021EB  A$UI$1090 |    000021EC  A$UI$1091
     000021ED  A$UI$1092 |    000021EE  A$UI$1093 |    000021EF  A$UI$1094
     000021F0  A$UI$1095 |    000021F1  A$UI$1096 |    000021F2  A$UI$1097
     000021F3  A$UI$1098 |    000021F6  A$UI$1099 |    000021F8  A$UI$1110
     000021F8  C$UI.c$14 |    000021F8  C$UI.c$14 |    000021F8  XG$UIShow
     000021FB  A$UI$1123 |    000021FB  C$UI.c$14 |    000021FB  C$UI.c$14
     000021FB  G$UIShowM |    000021FB  _UIShowMe |    000021FD  A$UI$1124
     000021FE  A$UI$1125 |    000021FF  A$UI$1126 |    00002202  A$UI$1127
     00002203  A$UI$1131 |    00002203  C$UI.c$14 |    00002205  A$UI$1132
     00002206  A$UI$1133 |    00002207  A$UI$1134 |    00002208  A$UI$1135
     00002209  A$UI$1136 |    0000220A  A$UI$1137 |    0000220B  A$UI$1138
     0000220C  A$UI$1139 |    0000220D  A$UI$1140 |    0000220E  A$UI$1141
     0000220F  A$UI$1142 |    00002210  A$UI$1143 |    00002211  A$UI$1144
     00002212  A$UI$1145 |    00002214  A$UI$1146 |    00002215  A$UI$1147
     00002216  A$UI$1148 |    00002217  A$UI$1149 |    00002218  A$UI$1150
     00002219  A$UI$1151 |    0000221A  A$UI$1152 |    0000221B  A$UI$1153
     0000221C  A$UI$1154 |    0000221D  A$UI$1155 |    00002220  A$UI$1156
     00002222  A$UI$1167 |    00002222  C$UI.c$15 |    00002222  C$UI.c$15
     00002222  XG$UIShow |    00002225  A$UI$1180 |    00002225  C$UI.c$15
     00002225  C$UI.c$15 |    00002225  G$UISetPo |    00002225  _UISetPos
     00002227  A$UI$1181 |    00002228  A$UI$1182 |    0000222B  A$UI$1186
     0000222B  C$UI.c$15 |    0000222E  A$UI$1190 |    0000222E  C$UI.c$15
     00002230  A$UI$1191 |    00002231  A$UI$1192 |    00002234  A$UI$1196
     00002234  C$UI.c$15 |    00002237  A$UI$1204 |    00002237  C$UI.c$15
     00002237  XG$UISetP |    00002238  A$UI$1217 |    00002238  C$UI.c$16
     00002238  C$UI.c$16 |    00002238  G$UIMoveT |    00002238  _UIMoveTo
     0000223A  A$UI$1218 |    0000223B  A$UI$1219 |    0000223E  A$UI$1220
     0000223F  A$UI$1224 |    0000223F  C$UI.c$16 |    00002241  A$UI$1225
     00002242  A$UI$1226 |    00002245  A$UI$1227 |    00002246  A$UI$1231
     00002246  C$UI.c$16 |    00002248  A$UI$1232 |    00002249  A$UI$1233
     0000224A  A$UI$1234 |    0000224C  A$UI$1238 |    0000224C  C$UI.c$16
     0000224F  A$UI$1239 |    00002250  A$UI$1243 |    00002250  C$UI.c$16
     00002253  A$UI$1244 |    00002254  A$UI$1245 |    00002255  A$UI$1250
     00002255  C$UI.c$16 |    00002257  A$UI$1251 |    00002258  A$UI$1252
     0000225B  A$UI$1260 |    0000225B  C$UI.c$16 |    0000225B  XG$UIMove
     0000225C  A$UI$1273 |    0000225C  C$UI.c$17 |    0000225C  C$UI.c$17
     0000225C  G$UIIsClo |    0000225C  _UIIsClos |    0000225F  A$UI$1274
     00002261  A$UI$1275 |    00002263  A$UI$1276 |    00002266  A$UI$1277
     00002268  A$UI$1278 |    0000226A  A$UI$1280 |    0000226C  A$UI$1281
     0000226D  A$UI$1283 |    0000226F  A$UI$1291 |    0000226F  C$UI.c$17
     0000226F  XG$UIIsCl |    00002270  A$UI$1304 |    00002270  C$UI.c$17
     00002270  C$UI.c$17 |    00002270  G$UIOnInt |    00002270  _UIOnInte
     00002272  A$UI$1305 |    00002273  A$UI$1306 |    00002274  A$UI$1307
     00002277  A$UI$1308 |    00002278  A$UI$1312 |    00002278  C$UI.c$17
     0000227B  A$UI$1323 |    0000227B  C$UI.c$17 |    0000227B  C$UI.c$17
     0000227B  XG$UIOnIn |    0000227E  A$UI$1336 |    0000227E  C$UI.c$18
ASxxxx Linker V03.00 + NoICE + sdld,  page 35.
Hexadecimal  [32-Bits]

Area                       Addr        Size        Decimal Bytes (Attributes)
--------------------       ----        ----        ------- ----- ------------
_CODE                  00000200    0000227C =        8828. bytes (REL,CON)

        Value  Global            Value  Global            Value  Global    
        -----  ------            -----  ------            -----  ------    
     0000227E  C$UI.c$18 |    0000227E  G$UIAtDes |    0000227E  _UIAtDest
     00002281  A$UI$1337 |    00002284  A$UI$1338 |    00002285  A$UI$1339
     00002287  A$UI$1340 |    0000228A  A$UI$1341 |    0000228D  A$UI$1342
     0000228E  A$UI$1343 |    00002290  A$UI$1345 |    00002292  A$UI$1346
     00002293  A$UI$1348 |    00002295  A$UI$1356 |    00002295  C$UI.c$18
     00002295  XG$UIAtDe |    00002296  A$UI$1369 |    00002296  C$UI.c$18
     00002296  C$UI.c$18 |    00002296  G$UISetCo |    00002296  _UISetCol
     00002298  A$UI$1370 |    00002299  A$UI$1371 |    0000229A  A$UI$1372
     0000229D  A$UI$1373 |    0000229E  A$UI$1377 |    0000229E  C$UI.c$18
     000022A0  A$UI$1378 |    000022A1  A$UI$1379 |    000022A3  A$UI$1380
     000022A4  A$UI$1381 |    000022A7  A$UI$1382 |    000022A9  A$UI$1393
     000022A9  C$UI.c$18 |    000022A9  C$UI.c$18 |    000022A9  XG$UISetC
     000022AC  _rand     |    000022AC  _randw    |    000022D7  __divsuch
     000022E6  __modsuch |    000022F2  __divusch |    00002304  __modusch
     00002314  __divscha |    00002322  __modscha |    0000232E  __divsint
     00002341  __modsint |    00002352  __divucha |    00002360  __moducha
     0000236C  __divuint |    0000237F  __moduint |    00002390  .div8    
     00002390  .mod8     |    00002398  .div16    |    00002398  .mod16   
     000023CE  .divu8    |    000023CE  .modu8    |    000023D1  .divu16  
     000023D1  .modu16   |    00002412  __mulsuch |    0000241C  __mulusch
     00002426  __mulscha |    00002439  __mulucha |    00002446  __mulint 
     0000246E  _strlen   |    00002473  .strlen  
ASxxxx Linker V03.00 + NoICE + sdld,  page 36.
Hexadecimal  [32-Bits]

Area                       Addr        Size        Decimal Bytes (Attributes)
--------------------       ----        ----        ------- ----- ------------
_HEADER0               00000000    00000001 =           1. bytes (ABS,CON)

        Value  Global            Value  Global            Value  Global    
        -----  ------            -----  ------            -----  ------    
ASxxxx Linker V03.00 + NoICE + sdld,  page 37.
Hexadecimal  [32-Bits]

Area                       Addr        Size        Decimal Bytes (Attributes)
--------------------       ----        ----        ------- ----- ------------
_HEADER1               00000000    00000001 =           1. bytes (ABS,CON)

        Value  Global            Value  Global            Value  Global    
        -----  ------            -----  ------            -----  ------    
     00000020  .call_hl 
ASxxxx Linker V03.00 + NoICE + sdld,  page 38.
Hexadecimal  [32-Bits]

Area                       Addr        Size        Decimal Bytes (Attributes)
--------------------       ----        ----        ------- ----- ------------
_HEADER2               00000000    00000008 =           8. bytes (ABS,CON)

        Value  Global            Value  Global            Value  Global    
        -----  ------            -----  ------            -----  ------    
ASxxxx Linker V03.00 + NoICE + sdld,  page 39.
Hexadecimal  [32-Bits]

Area                       Addr        Size        Decimal Bytes (Attributes)
--------------------       ----        ----        ------- ----- ------------
_HEADER3               00000000    0000001A =          26. bytes (ABS,CON)

        Value  Global            Value  Global            Value  Global    
        -----  ------            -----  ------            -----  ------    
     00000080  .int     
ASxxxx Linker V03.00 + NoICE + sdld,  page 40.
Hexadecimal  [32-Bits]

Area                       Addr        Size        Decimal Bytes (Attributes)
--------------------       ----        ----        ------- ----- ------------
_HEADER4               00000000    00000034 =          52. bytes (ABS,CON)

        Value  Global            Value  Global            Value  Global    
        -----  ------            -----  ------            -----  ------    
ASxxxx Linker V03.00 + NoICE + sdld,  page 41.
Hexadecimal  [32-Bits]

Area                       Addr        Size        Decimal Bytes (Attributes)
--------------------       ----        ----        ------- ----- ------------
_HEADER5               00000000    00000006 =           6. bytes (ABS,CON)

        Value  Global            Value  Global            Value  Global    
        -----  ------            -----  ------            -----  ------    
ASxxxx Linker V03.00 + NoICE + sdld,  page 42.
Hexadecimal  [32-Bits]

Area                       Addr        Size        Decimal Bytes (Attributes)
--------------------       ----        ----        ------- ----- ------------
_HEADER6               00000000    00000003 =           3. bytes (ABS,CON)

        Value  Global            Value  Global            Value  Global    
        -----  ------            -----  ------            -----  ------    
ASxxxx Linker V03.00 + NoICE + sdld,  page 43.
Hexadecimal  [32-Bits]

Area                       Addr        Size        Decimal Bytes (Attributes)
--------------------       ----        ----        ------- ----- ------------
_HEADER7               00000000    00000001 =           1. bytes (ABS,CON)

        Value  Global            Value  Global            Value  Global    
        -----  ------            -----  ------            -----  ------    
ASxxxx Linker V03.00 + NoICE + sdld,  page 44.
Hexadecimal  [32-Bits]

Area                       Addr        Size        Decimal Bytes (Attributes)
--------------------       ----        ----        ------- ----- ------------
_HEADER8               00000000    00000001 =           1. bytes (ABS,CON)

        Value  Global            Value  Global            Value  Global    
        -----  ------            -----  ------            -----  ------    
ASxxxx Linker V03.00 + NoICE + sdld,  page 45.
Hexadecimal  [32-Bits]

Area                       Addr        Size        Decimal Bytes (Attributes)
--------------------       ----        ----        ------- ----- ------------
_HEADER9               00000000    00000001 =           1. bytes (ABS,CON)

        Value  Global            Value  Global            Value  Global    
        -----  ------            -----  ------            -----  ------    
ASxxxx Linker V03.00 + NoICE + sdld,  page 46.
Hexadecimal  [32-Bits]

Area                       Addr        Size        Decimal Bytes (Attributes)
--------------------       ----        ----        ------- ----- ------------
_HEADERa               00000000    00000002 =           2. bytes (ABS,CON)

        Value  Global            Value  Global            Value  Global    
        -----  ------            -----  ------            -----  ------    
ASxxxx Linker V03.00 + NoICE + sdld,  page 47.
Hexadecimal  [32-Bits]

Area                       Addr        Size        Decimal Bytes (Attributes)
--------------------       ----        ----        ------- ----- ------------
_HEADERb               00000000    00000001 =           1. bytes (ABS,CON)

        Value  Global            Value  Global            Value  Global    
        -----  ------            -----  ------            -----  ------    
ASxxxx Linker V03.00 + NoICE + sdld,  page 48.
Hexadecimal  [32-Bits]

Area                       Addr        Size        Decimal Bytes (Attributes)
--------------------       ----        ----        ------- ----- ------------
_HEADERc               00000000    00000001 =           1. bytes (ABS,CON)

        Value  Global            Value  Global            Value  Global    
        -----  ------            -----  ------            -----  ------    
ASxxxx Linker V03.00 + NoICE + sdld,  page 49.
Hexadecimal  [32-Bits]

Area                       Addr        Size        Decimal Bytes (Attributes)
--------------------       ----        ----        ------- ----- ------------
_HEADERd               00000000    00000002 =           2. bytes (ABS,CON)

        Value  Global            Value  Global            Value  Global    
        -----  ------            -----  ------            -----  ------    
ASxxxx Linker V03.00 + NoICE + sdld,  page 50.
Hexadecimal  [32-Bits]

Area                       Addr        Size        Decimal Bytes (Attributes)
--------------------       ----        ----        ------- ----- ------------
_HEADERe               00000000    00000075 =         117. bytes (ABS,CON)

        Value  Global            Value  Global            Value  Global    
        -----  ------            -----  ------            -----  ------    
     000001C2  _exit    
ASxxxx Linker V03.00 + NoICE + sdld,  page 51.
Hexadecimal  [32-Bits]

Area                       Addr        Size        Decimal Bytes (Attributes)
--------------------       ----        ----        ------- ----- ------------
_HEADERf               00000000    00000001 =           1. bytes (ABS,CON)

        Value  Global            Value  Global            Value  Global    
        -----  ------            -----  ------            -----  ------    
ASxxxx Linker V03.00 + NoICE + sdld,  page 52.
Hexadecimal  [32-Bits]

Area                       Addr        Size        Decimal Bytes (Attributes)
--------------------       ----        ----        ------- ----- ------------
_HOME                  0000247C    00000169 =         361. bytes (REL,CON)

        Value  Global            Value  Global            Value  Global    
        -----  ------            -----  ------            -----  ------    
     0000247C  .set_mode |    0000248C  .remove_V |    00002492  .add_VBL 
     00002498  .remove_i |    000024B7  .add_int  |    000024D3  .wait_vbl
     000024D3  _wait_vbl |    000024EA  .display_ |    000024EA  _display_
     0000250B  _mode     |    00002513  _get_mode |    00002518  _enable_i
     0000251A  _disable_ |    0000251C  .reset    |    0000251C  _reset   
     00002522  _set_inte |    0000252D  _remove_V |    00002538  _add_VBL 
     00002543  _clock    |    0000254C  __printTS |    0000254D  __initrle
     00002569  _strcat   |    0000259D  _BGB_prof
ASxxxx Linker V03.00 + NoICE + sdld,  page 53.
Hexadecimal  [32-Bits]

Area                       Addr        Size        Decimal Bytes (Attributes)
--------------------       ----        ----        ------- ----- ------------
_BASE                  000025E5    000001C9 =         457. bytes (REL,CON)

        Value  Global            Value  Global            Value  Global    
        -----  ------            -----  ------            -----  ------    
     000025E5  _strcpy   |    000025F7  _initrand |    000025F9  .initrand
     00002602  _set_win_ |    00002616  _set_bkg_ |    00002616  _set_win_
     0000261E  _set_spri |    00002694  .padup    |    00002694  _waitpadu
     000026A4  .jpad     |    000026A4  _joypad   |    000026CC  _waitpad 
     000026CF  .wait_pad |    000026D6  ___sdcc_c |    000026D7  .memcpy  
     000026DA  ___memcpy |    000026DA  _memcpy   |    00002722  .copy_vra
     00002731  _get_data |    00002731  _set_data |    00002744  .set_xy_w
     00002755  .set_xy_b |    00002764  .set_xy_t |    00002795  _set_tile
ASxxxx Linker V03.00 + NoICE + sdld,  page 54.
Hexadecimal  [32-Bits]

Area                       Addr        Size        Decimal Bytes (Attributes)
--------------------       ----        ----        ------- ----- ------------
_GSINIT                000027AE    0000051C =        1308. bytes (REL,CON)

        Value  Global            Value  Global            Value  Global    
        -----  ------            -----  ------            -----  ------    
     000027AE  A$main$48 |    000027AE  C$bgb_emu |    000027AE  gsinit   
     000027B1  A$main$49 |    000027B3  A$main$50 |    000027B4  A$main$51
     000027B6  A$Actor$9 |    000027B6  C$Actor.c |    000027B9  A$Actor$9
     000027BB  A$Actor$1 |    000027BB  C$Actor.c |    000027BE  A$Actor$1
     000027C0  A$Actor$1 |    000027C1  A$Actor$1 |    000027C3  A$Actor_b
     000027C3  C$Actor_b |    000027C6  A$Actor_b |    000027C8  A$BankMan
     000027C8  C$BankMan |    000027CB  A$BankMan |    000027CC  A$BankMan
     000027CD  A$BankMan |    000027D3  A$Camera$ |    000027D3  C$Camera.
     000027D6  A$Camera$ |    000027D8  A$Core_Ma |    000027D8  C$Core_Ma
     000027DB  A$Core_Ma |    000027DD  A$Core_Ma |    000027DD  C$Core_Ma
     000027E0  A$Core_Ma |    000027E2  A$FadeMan |    000027E2  C$FadeMan
     000027E5  A$FadeMan |    000027E7  A$FadeMan |    000027E7  C$FadeMan
     000027EA  A$FadeMan |    000027EC  A$Input$6 |    000027EC  C$Input.c
     000027EF  A$Input$6 |    000027F1  A$MusicMa |    000027F1  C$MusicMa
     000027F4  A$MusicMa |    000027F6  A$MusicMa |    000027F6  C$MusicMa
     000027F9  A$MusicMa |    000027FB  A$Palette |    000027FB  C$Palette
     000027FE  A$Palette |    00002800  A$Project |    00002800  C$Project
     00002803  A$Project |    00002805  A$ScriptR |    00002805  C$ScriptR
     00002808  A$ScriptR |    00002809  A$ScriptR |    0000280A  A$ScriptR
     00002810  A$ScriptR |    00002810  C$ScriptR |    00002813  A$ScriptR
     00002814  A$ScriptR |    00002815  A$ScriptR |    0000281B  A$ScriptR
     0000281B  C$ScriptR |    0000281E  A$ScriptR |    00002820  A$ScriptR
     00002820  C$ScriptR |    00002823  A$ScriptR |    00002824  A$ScriptR
     00002825  A$ScriptR |    0000282B  A$ScriptR |    0000282B  C$ScriptR
     0000282E  A$ScriptR |    0000282F  A$ScriptR |    00002830  A$ScriptR
     00002836  A$ScriptR |    00002836  C$ScriptR |    00002839  A$ScriptR
     0000283A  A$ScriptR |    0000283B  A$ScriptR |    00002841  A$ScriptR
     00002841  C$ScriptR |    00002844  A$ScriptR |    00002845  A$ScriptR
     00002846  A$ScriptR |    00002847  A$ScriptR |    00002847  C$ScriptR
     0000284A  A$ScriptR |    0000284C  A$ScriptR |    0000284C  C$ScriptR
     0000284F  A$ScriptR |    00002851  A$ScriptR |    00002851  C$ScriptR
     00002854  A$ScriptR |    00002856  A$ScriptR |    00002856  C$ScriptR
     00002859  A$ScriptR |    0000285B  A$ScriptR |    0000285B  C$ScriptR
     0000285E  A$ScriptR |    00002860  A$ScriptR |    00002860  C$ScriptR
     00002863  A$ScriptR |    00002865  A$ScriptR |    00002865  C$ScriptR
     00002868  A$ScriptR |    00002869  A$ScriptR |    0000286A  A$ScriptR
     0000286B  A$ScriptR |    0000286B  C$ScriptR |    0000286E  A$ScriptR
     00002870  A$ScriptR |    00002870  C$ScriptR |    00002873  A$ScriptR
     00002875  A$ScriptR |    00002875  C$ScriptR |    00002878  A$ScriptR
     0000287A  A$Scroll$ |    0000287A  C$Scroll. |    0000287D  A$Scroll$
     0000287F  A$Scroll$ |    00002880  A$Scroll$ |    00002882  A$Scroll$
     00002882  C$Scroll. |    00002885  A$Scroll$ |    00002887  A$Scroll$
     00002888  A$Scroll$ |    0000288A  A$Scroll$ |    0000288A  C$Scroll.
     0000288D  A$Scroll$ |    0000288F  A$Scroll$ |    00002890  A$Scroll$
     00002892  A$Scroll$ |    00002892  C$Scroll. |    00002895  A$Scroll$
     00002897  A$Scroll$ |    00002898  A$Scroll$ |    0000289A  A$Scroll$
     0000289A  C$Scroll. |    0000289D  A$Scroll$ |    0000289F  A$Scroll$
     000028A0  A$Scroll$ |    000028A2  A$Scroll$ |    000028A2  C$Scroll.
     000028A5  A$Scroll$ |    000028A7  A$Scroll$ |    000028A8  A$Scroll$
     000028AA  A$Scroll$ |    000028AA  C$Scroll. |    000028AD  A$Scroll$
ASxxxx Linker V03.00 + NoICE + sdld,  page 55.
Hexadecimal  [32-Bits]

Area                       Addr        Size        Decimal Bytes (Attributes)
--------------------       ----        ----        ------- ----- ------------
_GSINIT                000027AE    0000051C =        1308. bytes (REL,CON)

        Value  Global            Value  Global            Value  Global    
        -----  ------            -----  ------            -----  ------    
     000028AF  A$Scroll$ |    000028B0  A$Scroll$ |    000028B2  A$Scroll$
     000028B2  C$Scroll. |    000028B5  A$Scroll$ |    000028B7  A$Scroll$
     000028B8  A$Scroll$ |    000028BA  A$Scroll$ |    000028BA  C$Scroll.
     000028BD  A$Scroll$ |    000028BF  A$Scroll$ |    000028C0  A$Scroll$
     000028C2  A$Sprite$ |    000028C2  C$Sprite. |    000028C5  A$Sprite$
     000028C6  A$Sprite$ |    000028C7  A$Sprite$ |    000028CD  A$Sprite$
     000028CD  C$Sprite. |    000028D0  A$Sprite$ |    000028D2  A$Sprite_
     000028D2  C$Sprite_ |    000028D5  A$Sprite_ |    000028D7  A$UI$181 
     000028D7  C$UI.c$27 |    000028DA  A$UI$182  |    000028DC  A$UI$186 
     000028DC  C$UI.c$40 |    000028DF  A$UI$187  |    000028E1  A$UI$191 
     000028E1  C$UI.c$41 |    000028E4  A$UI$192  |    000028E6  A$UI$196 
     000028E6  C$UI.c$42 |    000028E9  A$UI$197  |    000028EB  A$UI$201 
     000028EB  C$UI.c$43 |    000028EE  A$UI$202  |    000028F0  A$UI$206 
     000028F0  C$UI.c$44 |    000028F3  A$UI$207  |    000028F5  A$UI$211 
     000028F5  C$UI.c$45 |    000028F8  A$UI$212  |    000028FA  A$UI$216 
     000028FA  C$UI.c$46 |    000028FD  A$UI$217  |    000028FF  A$UI$221 
     000028FF  C$UI.c$48 |    00002902  A$UI$222  |    00002904  A$UI$226 
     00002904  C$UI.c$49 |    00002907  A$UI$227  |    00002909  A$UI$231 
     00002909  C$UI.c$50 |    0000290C  A$UI$232  |    0000290E  A$UI$236 
     0000290E  C$UI.c$52 |    00002911  A$UI$237  |    00002913  A$UI$241 
     00002913  C$UI.c$53 |    00002916  A$UI$242  |    00002918  A$UI$246 
     00002918  C$UI.c$54 |    0000291B  A$UI$247  |    0000291D  A$UI$251 
     0000291D  C$UI.c$55 |    00002920  A$UI$252  |    00002922  A$UI$256 
     00002922  C$UI.c$57 |    00002925  A$UI$257  |    00002927  A$UI$258 
     0000292A  A$UI$259  |    0000292C  A$UI$260  |    0000292F  A$UI$261 
     00002931  A$UI$262  |    00002934  A$UI$263  |    00002936  A$UI$264 
     00002939  A$UI$265  |    0000293B  A$UI$266  |    0000293E  A$UI$267 
     00002940  A$UI$268  |    00002943  A$UI$269  |    00002945  A$UI$270 
     00002948  A$UI$271  |    0000294A  A$UI$272  |    0000294D  A$UI$273 
     0000294F  A$UI$274  |    00002952  A$UI$275  |    00002954  A$UI$276 
     00002957  A$UI$277  |    00002959  A$UI$278  |    0000295C  A$UI$279 
     0000295E  A$UI$280  |    00002961  A$UI$281  |    00002963  A$UI$282 
     00002966  A$UI$283  |    00002968  A$UI$284  |    0000296B  A$UI$285 
     0000296D  A$UI$286  |    00002970  A$UI$287  |    00002972  A$UI$288 
     00002975  A$UI$289  |    00002977  A$UI$290  |    0000297A  A$UI$291 
     0000297C  A$UI$292  |    0000297F  A$UI$293  |    00002981  A$UI$294 
     00002984  A$UI$295  |    00002986  A$UI$296  |    00002989  A$UI$297 
     0000298B  A$UI$298  |    0000298E  A$UI$299  |    00002990  A$UI$300 
     00002993  A$UI$301  |    00002995  A$UI$302  |    00002998  A$UI$303 
     0000299A  A$UI$304  |    0000299D  A$UI$305  |    0000299F  A$UI$306 
     000029A2  A$UI$307  |    000029A4  A$UI$308  |    000029A7  A$UI$309 
     000029A9  A$UI$310  |    000029AC  A$UI$311  |    000029AE  A$UI$312 
     000029B1  A$UI$313  |    000029B3  A$UI$314  |    000029B6  A$UI$315 
     000029B8  A$UI$316  |    000029BB  A$UI$317  |    000029BD  A$UI$318 
     000029C0  A$UI$319  |    000029C2  A$UI$320  |    000029C5  A$UI$321 
     000029C7  A$UI$322  |    000029CA  A$UI$323  |    000029CC  A$UI$324 
     000029CF  A$UI$325  |    000029D1  A$UI$326  |    000029D4  A$UI$327 
     000029D6  A$UI$328  |    000029D9  A$UI$329  |    000029DB  A$UI$330 
     000029DE  A$UI$331  |    000029E0  A$UI$332  |    000029E3  A$UI$333 
     000029E5  A$UI$334  |    000029E8  A$UI$335  |    000029EA  A$UI$336 
     000029ED  A$UI$337  |    000029EF  A$UI$338  |    000029F2  A$UI$339 
ASxxxx Linker V03.00 + NoICE + sdld,  page 56.
Hexadecimal  [32-Bits]

Area                       Addr        Size        Decimal Bytes (Attributes)
--------------------       ----        ----        ------- ----- ------------
_GSINIT                000027AE    0000051C =        1308. bytes (REL,CON)

        Value  Global            Value  Global            Value  Global    
        -----  ------            -----  ------            -----  ------    
     000029F4  A$UI$340  |    000029F7  A$UI$341  |    000029F9  A$UI$342 
     000029FC  A$UI$343  |    000029FE  A$UI$344  |    00002A01  A$UI$345 
     00002A03  A$UI$346  |    00002A06  A$UI$347  |    00002A08  A$UI$348 
     00002A0B  A$UI$349  |    00002A0D  A$UI$350  |    00002A10  A$UI$351 
     00002A12  A$UI$352  |    00002A15  A$UI$353  |    00002A17  A$UI$354 
     00002A1A  A$UI$355  |    00002A1C  A$UI$356  |    00002A1F  A$UI$357 
     00002A21  A$UI$358  |    00002A24  A$UI$359  |    00002A26  A$UI$360 
     00002A29  A$UI$361  |    00002A2B  A$UI$362  |    00002A2E  A$UI$363 
     00002A30  A$UI$364  |    00002A33  A$UI$365  |    00002A35  A$UI$366 
     00002A38  A$UI$367  |    00002A3A  A$UI$368  |    00002A3D  A$UI$369 
     00002A3F  A$UI$370  |    00002A42  A$UI$371  |    00002A44  A$UI$372 
     00002A47  A$UI$373  |    00002A49  A$UI$374  |    00002A4C  A$UI$375 
     00002A4E  A$UI$376  |    00002A51  A$UI$377  |    00002A53  A$UI$378 
     00002A56  A$UI$379  |    00002A58  A$UI$380  |    00002A5B  A$UI$381 
     00002A5D  A$UI$382  |    00002A60  A$UI$383  |    00002A62  A$UI$384 
     00002A65  A$UI$385  |    00002A67  A$UI$386  |    00002A6A  A$UI$387 
     00002A6C  A$UI$388  |    00002A6F  A$UI$389  |    00002A71  A$UI$390 
     00002A74  A$UI$391  |    00002A76  A$UI$392  |    00002A79  A$UI$393 
     00002A7B  A$UI$394  |    00002A7E  A$UI$395  |    00002A80  A$UI$396 
     00002A83  A$UI$397  |    00002A85  A$UI$398  |    00002A88  A$UI$399 
     00002A8A  A$UI$400  |    00002A8D  A$UI$401  |    00002A8F  A$UI$402 
     00002A92  A$UI$403  |    00002A94  A$UI$404  |    00002A97  A$UI$405 
     00002A99  A$UI$406  |    00002A9C  A$UI$407  |    00002A9E  A$UI$408 
     00002AA1  A$UI$409  |    00002AA3  A$UI$410  |    00002AA6  A$UI$411 
     00002AA8  A$UI$412  |    00002AAB  A$UI$413  |    00002AAD  A$UI$414 
     00002AB0  A$UI$415  |    00002AB2  A$UI$419  |    00002AB2  C$UI.c$58
     00002AB5  A$UI$420  |    00002AB7  A$UI$421  |    00002ABA  A$UI$422 
     00002ABC  A$UI$423  |    00002ABF  A$UI$424  |    00002AC1  A$UI$425 
     00002AC4  A$UI$426  |    00002AC6  A$UI$427  |    00002AC9  A$UI$428 
     00002ACB  A$UI$429  |    00002ACE  A$UI$430  |    00002AD0  A$UI$431 
     00002AD3  A$UI$432  |    00002AD5  A$UI$433  |    00002AD8  A$UI$434 
     00002ADA  A$UI$435  |    00002ADD  A$UI$436  |    00002ADF  A$UI$437 
     00002AE2  A$UI$438  |    00002AE4  A$UI$439  |    00002AE7  A$UI$440 
     00002AE9  A$UI$441  |    00002AEC  A$UI$442  |    00002AEE  A$UI$443 
     00002AF1  A$UI$444  |    00002AF3  A$UI$445  |    00002AF6  A$UI$446 
     00002AF8  A$UI$447  |    00002AFB  A$UI$448  |    00002AFD  A$UI$449 
     00002B00  A$UI$450  |    00002B02  A$UI$451  |    00002B05  A$UI$452 
     00002B07  A$UI$453  |    00002B0A  A$UI$454  |    00002B0C  A$UI$455 
     00002B0F  A$UI$456  |    00002B11  A$UI$457  |    00002B14  A$UI$458 
     00002B16  A$UI$459  |    00002B19  A$UI$460  |    00002B1B  A$UI$461 
     00002B1E  A$UI$462  |    00002B20  A$UI$463  |    00002B23  A$UI$464 
     00002B25  A$UI$465  |    00002B28  A$UI$466  |    00002B2A  A$UI$467 
     00002B2D  A$UI$468  |    00002B2F  A$UI$469  |    00002B32  A$UI$470 
     00002B34  A$UI$471  |    00002B37  A$UI$472  |    00002B39  A$UI$473 
     00002B3C  A$UI$474  |    00002B3E  A$UI$475  |    00002B41  A$UI$476 
     00002B43  A$UI$477  |    00002B46  A$UI$478  |    00002B48  A$UI$479 
     00002B4B  A$UI$480  |    00002B4D  A$UI$481  |    00002B50  A$UI$482 
     00002B52  A$UI$483  |    00002B55  A$UI$484  |    00002B57  A$UI$485 
     00002B5A  A$UI$486  |    00002B5C  A$UI$487  |    00002B5F  A$UI$488 
     00002B61  A$UI$489  |    00002B64  A$UI$490  |    00002B66  A$UI$491 
     00002B69  A$UI$492  |    00002B6B  A$UI$493  |    00002B6E  A$UI$494 
ASxxxx Linker V03.00 + NoICE + sdld,  page 57.
Hexadecimal  [32-Bits]

Area                       Addr        Size        Decimal Bytes (Attributes)
--------------------       ----        ----        ------- ----- ------------
_GSINIT                000027AE    0000051C =        1308. bytes (REL,CON)

        Value  Global            Value  Global            Value  Global    
        -----  ------            -----  ------            -----  ------    
     00002B70  A$UI$495  |    00002B73  A$UI$496  |    00002B75  A$UI$497 
     00002B78  A$UI$498  |    00002B7A  A$UI$499  |    00002B7D  A$UI$500 
     00002B7F  A$UI$501  |    00002B82  A$UI$502  |    00002B84  A$UI$503 
     00002B87  A$UI$504  |    00002B89  A$UI$505  |    00002B8C  A$UI$506 
     00002B8E  A$UI$507  |    00002B91  A$UI$508  |    00002B93  A$UI$509 
     00002B96  A$UI$510  |    00002B98  A$UI$511  |    00002B9B  A$UI$512 
     00002B9D  A$UI$513  |    00002BA0  A$UI$514  |    00002BA2  A$UI$515 
     00002BA5  A$UI$516  |    00002BA7  A$UI$517  |    00002BAA  A$UI$518 
     00002BAC  A$UI$519  |    00002BAF  A$UI$520  |    00002BB1  A$UI$521 
     00002BB4  A$UI$522  |    00002BB6  A$UI$523  |    00002BB9  A$UI$524 
     00002BBB  A$UI$525  |    00002BBE  A$UI$526  |    00002BC0  A$UI$527 
     00002BC3  A$UI$528  |    00002BC5  A$UI$529  |    00002BC8  A$UI$530 
     00002BCA  A$UI$531  |    00002BCD  A$UI$532  |    00002BCF  A$UI$533 
     00002BD2  A$UI$534  |    00002BD4  A$UI$535  |    00002BD7  A$UI$536 
     00002BD9  A$UI$537  |    00002BDC  A$UI$538  |    00002BDE  A$UI$539 
     00002BE1  A$UI$540  |    00002BE3  A$UI$541  |    00002BE6  A$UI$542 
     00002BE8  A$UI$543  |    00002BEB  A$UI$544  |    00002BED  A$UI$545 
     00002BF0  A$UI$546  |    00002BF2  A$UI$547  |    00002BF5  A$UI$548 
     00002BF7  A$UI$549  |    00002BFA  A$UI$550  |    00002BFC  A$UI$551 
     00002BFF  A$UI$552  |    00002C01  A$UI$553  |    00002C04  A$UI$554 
     00002C06  A$UI$555  |    00002C09  A$UI$556  |    00002C0B  A$UI$557 
     00002C0E  A$UI$558  |    00002C10  A$UI$559  |    00002C13  A$UI$560 
     00002C15  A$UI$561  |    00002C18  A$UI$562  |    00002C1A  A$UI$563 
     00002C1D  A$UI$564  |    00002C1F  A$UI$565  |    00002C22  A$UI$566 
     00002C24  A$UI$567  |    00002C27  A$UI$568  |    00002C29  A$UI$569 
     00002C2C  A$UI$570  |    00002C2E  A$UI$571  |    00002C31  A$UI$572 
     00002C33  A$UI$573  |    00002C36  A$UI$574  |    00002C38  A$UI$575 
     00002C3B  A$UI$576  |    00002C3D  A$UI$577  |    00002C40  A$UI$578 
     00002C42  A$Platfor |    00002C42  C$Platfor |    00002C45  A$Platfor
     00002C47  A$Platfor |    00002C47  C$Platfor |    00002C4A  A$Platfor
     00002C4C  A$Platfor |    00002C4C  C$Platfor |    00002C4F  A$Platfor
     00002C51  A$Platfor |    00002C52  A$Platfor |    00002C54  A$Platfor
     00002C54  C$Platfor |    00002C57  A$Platfor |    00002C59  A$Platfor
     00002C5A  A$Platfor |    00002C5C  A$Platfor |    00002C5C  C$Platfor
     00002C5F  A$Platfor |    00002C61  A$Platfor |    00002C62  A$Platfor
     00002C64  A$Platfor |    00002C64  C$Platfor |    00002C67  A$Platfor
     00002C69  A$Platfor |    00002C6A  A$Platfor |    00002C6C  A$PointNC
     00002C6C  C$PointNC |    00002C6F  A$PointNC |    00002C71  A$Shmup$5
     00002C71  C$Shmup.c |    00002C74  A$Shmup$5 |    00002C76  A$Shmup$5
     00002C76  C$Shmup.c |    00002C79  A$Shmup$5 |    00002C7B  A$Shmup$6
     00002C7B  C$Shmup.c |    00002C7E  A$Shmup$6 |    00002C80  A$data_pt
     00002C80  C$data_pt |    00002C83  A$data_pt |    00002C85  A$data_pt
     00002C86  A$data_pt |    00002C88  A$data_pt |    00002C88  C$data_pt
     00002C8B  A$data_pt |    00002C8D  A$data_pt |    00002C8E  A$data_pt
     00002C90  A$data_pt |    00002C90  C$data_pt |    00002C93  A$data_pt
     00002C95  A$data_pt |    00002C96  A$data_pt |    00002C98  A$data_pt
     00002C98  C$data_pt |    00002C9B  A$data_pt |    00002C9D  A$data_pt
     00002C9D  C$data_pt |    00002CA0  A$data_pt |    00002CA2  A$data_pt
     00002CA2  C$data_pt |    00002CA5  A$data_pt |    00002CA7  A$data_pt
     00002CA8  A$data_pt |    00002CAA  A$data_pt |    00002CAA  C$data_pt
     00002CAD  A$data_pt |    00002CAF  A$data_pt |    00002CAF  C$data_pt
ASxxxx Linker V03.00 + NoICE + sdld,  page 58.
Hexadecimal  [32-Bits]

Area                       Addr        Size        Decimal Bytes (Attributes)
--------------------       ----        ----        ------- ----- ------------
_GSINIT                000027AE    0000051C =        1308. bytes (REL,CON)

        Value  Global            Value  Global            Value  Global    
        -----  ------            -----  ------            -----  ------    
     00002CB2  A$data_pt |    00002CB4  A$data_pt |    00002CB4  C$data_pt
     00002CB7  A$data_pt |    00002CB9  A$data_pt |    00002CB9  C$data_pt
     00002CBC  A$data_pt |    00002CBD  A$data_pt |    00002CBE  A$data_pt
ASxxxx Linker V03.00 + NoICE + sdld,  page 59.
Hexadecimal  [32-Bits]

Area                       Addr        Size        Decimal Bytes (Attributes)
--------------------       ----        ----        ------- ----- ------------
_GSINITTAIL            00002CCA    00000001 =           1. bytes (REL,CON)

        Value  Global            Value  Global            Value  Global    
        -----  ------            -----  ------            -----  ------    
ASxxxx Linker V03.00 + NoICE + sdld,  page 60.
Hexadecimal  [32-Bits]

Area                       Addr        Size        Decimal Bytes (Attributes)
--------------------       ----        ----        ------- ----- ------------
_DATA                  0000C0A0    00000E16 =        3606. bytes (REL,CON)

        Value  Global            Value  Global            Value  Global    
        -----  ------            -----  ------            -----  ------    
     0000C0A0  Fmain$__B |    0000C0A2  gbt_playi |    0000C0A3  gbt_song 
     0000C0A5  gbt_bank  |    0000C0A6  gbt_speed |    0000C0A7  gbt_temp_
     0000C0B3  gbt_loop_ |    0000C0B4  gbt_ticks |    0000C0B5  gbt_curre
     0000C0B6  gbt_curre |    0000C0B7  gbt_curre |    0000C0B9  gbt_chann
     0000C0BA  gbt_pan   |    0000C0BE  gbt_vol   |    0000C0C2  gbt_instr
     0000C0C6  gbt_freq  |    0000C0CC  gbt_chann |    0000C0CD  gbt_arpeg
     0000C0D6  gbt_arpeg |    0000C0D9  gbt_arpeg |    0000C0DC  gbt_sweep
     0000C0DF  gbt_cut_n |    0000C0E3  gbt_have_ |    0000C0E4  gbt_updat
     0000C0E5  G$actors$ |    0000C0E5  _actors   |    0000C677  G$actor_p
     0000C677  _actor_pt |    0000C6B5  G$actors_ |    0000C6B5  _actors_a
     0000C6C0  G$actors_ |    0000C6C0  _actors_a |    0000C6C1  G$actor_m
     0000C6C1  _actor_mo |    0000C6C2  G$map_nex |    0000C6C2  _map_next
     0000C6C6  G$map_nex |    0000C6C6  _map_next |    0000C6C8  G$map_nex
     0000C6C8  _map_next |    0000C6CA  G$player_ |    0000C6CA  _player_i
     0000C6CB  G$actors_ |    0000C6CB  _actors_a |    0000C6D6  G$actors_
     0000C6D6  _actors_a |    0000C6D7  G$bank_st |    0000C6D7  _bank_sta
     0000C6E2  G$camera_ |    0000C6E2  _camera_p |    0000C6E6  G$camera_
     0000C6E6  _camera_d |    0000C6EA  G$camera_ |    0000C6EA  _camera_o
     0000C6EC  G$camera_ |    0000C6EC  _camera_s |    0000C6ED  G$camera_
     0000C6ED  _camera_s |    0000C6EE  G$camera_ |    0000C6EE  _camera_d
     0000C6F0  G$game_ti |    0000C6F0  _game_tim |    0000C6F1  G$next_st
     0000C6F1  _next_sta |    0000C6F3  G$delta_t |    0000C6F3  _delta_ti
     0000C6F4  G$current |    0000C6F4  _current_ |    0000C6F6  G$state_r
     0000C6F6  _state_ru |    0000C6F7  G$vbl_cou |    0000C6F7  _vbl_coun
     0000C6F8  G$old_scr |    0000C6F8  _old_scro |    0000C6FA  G$old_scr
     0000C6FA  _old_scro |    0000C6FC  G$music_m |    0000C6FC  _music_mu
     0000C6FD  G$bank_pt |    0000C6FD  _bank_ptr |    0000C700  G$image_b
     0000C700  _image_ba |    0000C701  G$image_a |    0000C701  _image_at
     0000C702  G$collisi |    0000C702  _collisio |    0000C703  G$image_p
     0000C703  _image_pt |    0000C705  G$image_a |    0000C705  _image_at
     0000C707  G$collisi |    0000C707  _collisio |    0000C709  G$image_t
     0000C709  _image_ti |    0000C70A  G$image_t |    0000C70A  _image_ti
     0000C70B  G$image_w |    0000C70B  _image_wi |    0000C70D  G$image_h
     0000C70D  _image_he |    0000C70F  G$sprites |    0000C70F  _sprites_
     0000C710  G$actors_ |    0000C710  _actors_l |    0000C711  G$scene_t
     0000C711  _scene_ty |    0000C712  G$scene_e |    0000C712  _scene_ev
     0000C715  G$fade_ru |    0000C715  _fade_run |    0000C716  G$fade_fr
     0000C716  _fade_fra |    0000C717  G$fade_bl |    0000C717  _fade_bla
     0000C718  G$fade_ti |    0000C718  _fade_tim |    0000C719  FFadeMana
     0000C71A  FFadeMana |    0000C71B  G$joy$0_0 |    0000C71B  _joy     
     0000C71C  G$last_jo |    0000C71C  _last_joy |    0000C71D  G$recent_
     0000C71D  _recent_j |    0000C71E  G$await_i |    0000C71E  _await_in
     0000C71F  G$input_w |    0000C71F  _input_wa |    0000C720  G$input_s
     0000C720  _input_sc |    0000C738  G$input_s |    0000C738  _input_sc
     0000C739  G$current |    0000C739  _current_ |    0000C73A  G$tone_fr
     0000C73A  _tone_fra |    0000C73B  G$palette |    0000C73B  _palette_
     0000C73C  G$SprPale |    0000C73C  _SprPalet |    0000C77C  G$BkgPale
     0000C77C  _BkgPalet |    0000C7BC  G$SprPale |    0000C7BC  _SprPalet
     0000C7FC  G$BkgPale |    0000C7FC  _BkgPalet |    0000C83C  G$project
     0000C83C  _projecti |    0000C8AA  G$current |    0000C8AA  _current_
ASxxxx Linker V03.00 + NoICE + sdld,  page 61.
Hexadecimal  [32-Bits]

Area                       Addr        Size        Decimal Bytes (Attributes)
--------------------       ----        ----        ------- ----- ------------
_DATA                  0000C0A0    00000E16 =        3606. bytes (REL,CON)

        Value  Global            Value  Global            Value  Global    
        -----  ------            -----  ------            -----  ------    
     0000C8AB  G$script_ |    0000C8AB  _script_c |    0000C8B7  G$active_
     0000C8B7  _active_s |    0000C8CF  G$script_ |    0000C8CF  _script_m
     0000C8D0  G$script_ |    0000C8D0  _script_c |    0000C8D7  G$script_
     0000C8D7  _script_c |    0000C8D8  G$script_ |    0000C8D8  _script_s
     0000C8D9  G$script_ |    0000C8D9  _script_s |    0000C8E9  G$script_
     0000C8E9  _script_b |    0000C8F1  G$script_ |    0000C8F1  _script_s
     0000C901  G$script_ |    0000C901  _script_c |    0000CA21  G$active_
     0000CA21  _active_s |    0000CA22  G$script_ |    0000CA22  _script_c
     0000CA24  G$timer_s |    0000CA24  _timer_sc |    0000CA25  G$timer_s
     0000CA25  _timer_sc |    0000CA26  G$timer_s |    0000CA26  _timer_sc
     0000CA29  G$ctx_cmd |    0000CA29  _ctx_cmd_ |    0000CA2A  G$RAMPtr$
     0000CA2A  _RAMPtr   |    0000CA2C  G$scene_s |    0000CA2C  _scene_st
     0000CA2D  G$scene_s |    0000CA2D  _scene_st |    0000CA6D  G$emote_t
     0000CA6D  _emote_ti |    0000CA6E  G$shake_t |    0000CA6E  _shake_ti
     0000CA6F  G$after_l |    0000CA6F  _after_lo |    0000CA70  G$tmp_act
     0000CA70  _tmp_acto |    0000CA72  G$scroll_ |    0000CA72  _scroll_x
     0000CA74  G$scroll_ |    0000CA74  _scroll_y |    0000CA76  G$draw_sc
     0000CA76  _draw_scr |    0000CA78  G$scroll_ |    0000CA78  _scroll_x
     0000CA7A  G$scroll_ |    0000CA7A  _scroll_y |    0000CA7C  G$scroll_
     0000CA7C  _scroll_o |    0000CA7E  G$pending |    0000CA7E  _pending_
     0000CA80  G$pending |    0000CA80  _pending_ |    0000CA82  G$pending
     0000CA82  _pending_ |    0000CA83  G$pending |    0000CA83  _pending_
     0000CA85  G$pending |    0000CA85  _pending_ |    0000CA87  G$pending
     0000CA87  _pending_ |    0000CA89  G$pending |    0000CA89  _pending_
     0000CA8B  G$pending |    0000CA8B  _pending_ |    0000CA8C  G$scroll_
     0000CA8C  _scroll_t |    0000CA8E  G$sprites |    0000CA8E  _sprites_
     0000CAD9  G$sprite_ |    0000CAD9  _sprite_p |    0000CAED  G$hide_sp
     0000CAED  _hide_spr |    0000CAEE  G$sprite_ |    0000CAEE  _sprite_a
     0000CB01  G$sprite_ |    0000CB01  _sprite_a |    0000CB02  G$trigger
     0000CB02  _triggers |    0000CBDB  G$trigger |    0000CBDB  _triggers
     0000CBE6  G$trigger |    0000CBE6  _triggers |    0000CBE7  G$trigger
     0000CBE7  _triggers |    0000CBE8  G$last_tr |    0000CBE8  _last_tri
     0000CBE9  G$last_tr |    0000CBE9  _last_tri |    0000CBEA  G$ui_bloc
     0000CBEA  _ui_block |    0000CBEB  G$win_pos |    0000CBEB  _win_pos_
     0000CBEC  G$win_pos |    0000CBEC  _win_pos_ |    0000CBED  G$win_des
     0000CBED  _win_dest |    0000CBEE  G$win_des |    0000CBEE  _win_dest
     0000CBEF  G$win_spe |    0000CBEF  _win_spee |    0000CBF0  G$text_x$
     0000CBF0  _text_x   |    0000CBF1  G$text_y$ |    0000CBF1  _text_y  
     0000CBF2  G$text_dr |    0000CBF2  _text_dra |    0000CBF3  G$text_co
     0000CBF3  _text_cou |    0000CBF4  G$text_ti |    0000CBF4  _text_til
     0000CBF5  G$text_wa |    0000CBF5  _text_wai |    0000CBF6  G$text_in
     0000CBF6  _text_in_ |    0000CBF7  G$text_ou |    0000CBF7  _text_out
     0000CBF8  G$text_dr |    0000CBF8  _text_dra |    0000CBF9  G$text_ff
     0000CBF9  _text_ff_ |    0000CBFA  G$tmp_tex |    0000CBFA  _tmp_text
     0000CBFB  G$tmp_tex |    0000CBFB  _tmp_text |    0000CBFC  G$text_nu
     0000CBFC  _text_num |    0000CBFD  G$avatar_ |    0000CBFD  _avatar_e
     0000CBFE  G$menu_en |    0000CBFE  _menu_ena |    0000CBFF  G$menu_in
     0000CBFF  _menu_ind |    0000CC00  G$menu_fl |    0000CC00  _menu_fla
     0000CC02  G$menu_nu |    0000CC02  _menu_num |    0000CC03  G$menu_ca
     0000CC03  _menu_can |    0000CC04  G$menu_ca |    0000CC04  _menu_can
     0000CC05  G$menu_la |    0000CC05  _menu_lay |    0000CC06  G$text_li
ASxxxx Linker V03.00 + NoICE + sdld,  page 62.
Hexadecimal  [32-Bits]

Area                       Addr        Size        Decimal Bytes (Attributes)
--------------------       ----        ----        ------- ----- ------------
_DATA                  0000C0A0    00000E16 =        3606. bytes (REL,CON)

        Value  Global            Value  Global            Value  Global    
        -----  ------            -----  ------            -----  ------    
     0000CC06  _text_lin |    0000CC56  G$tmp_tex |    0000CC56  _tmp_text
     0000CCA6  G$current |    0000CCA6  _current_ |    0000CCA7  G$grounde
     0000CCA7  _grounded |    0000CCA8  G$on_ladd |    0000CCA8  _on_ladde
     0000CCA9  G$pl_vel_ |    0000CCA9  _pl_vel_x |    0000CCAB  G$pl_vel_
     0000CCAB  _pl_vel_y |    0000CCAD  G$pl_pos_ |    0000CCAD  _pl_pos_x
     0000CCAF  G$pl_pos_ |    0000CCAF  _pl_pos_y |    0000CCB1  G$last_hi
     0000CCB1  _last_hit |    0000CCB2  G$shooter |    0000CCB2  _shooter_
     0000CCB3  G$shooter |    0000CCB3  _shooter_ |    0000CCB4  G$shooter
     0000CCB4  _shooter_ |    0000CCB5  G$start_s |    0000CCB5  _start_sc
     0000CCB7  G$start_s |    0000CCB7  _start_sc |    0000CCB9  G$start_s
     0000CCB9  _start_sc |    0000CCBB  G$start_s |    0000CCBB  _start_sc
     0000CCBC  G$start_s |    0000CCBC  _start_sc |    0000CCBD  G$start_p
     0000CCBD  _start_pl |    0000CCBF  G$start_p |    0000CCBF  _start_pl
     0000CCC0  G$start_p |    0000CCC0  _start_pl |    0000CCC1  G$start_f
     0000CCC1  _start_fa |    0000CCC2  G$script_ |    0000CCC2  _script_v
ASxxxx Linker V03.00 + NoICE + sdld,  page 63.
Hexadecimal  [32-Bits]

Area                       Addr        Size        Decimal Bytes (Attributes)
--------------------       ----        ----        ------- ----- ------------
_BSS                   0000CEB6    00000017 =          23. bytes (REL,CON)

        Value  Global            Value  Global            Value  Global    
        -----  ------            -----  ------            -----  ------    
     0000CEB6  __cpu     |    0000CEB7  .mode     |    0000CEB8  .vbl_done
     0000CEB9  .sys_time |    0000CEB9  _sys_time |    0000CEBB  .int_0x40
     0000CECB  .randhi   |    0000CECC  .randlo  
ASxxxx Linker V03.00 + NoICE + sdld,  page 64.
Hexadecimal  [32-Bits]

Area                       Addr        Size        Decimal Bytes (Attributes)
--------------------       ----        ----        ------- ----- ------------
_HEAP                  0000CECD    00000000 =           0. bytes (REL,CON)

        Value  Global            Value  Global            Value  Global    
        -----  ------            -----  ------            -----  ------    
     0000CECD  _malloc_h
ASxxxx Linker V03.00 + NoICE + sdld,  page 65.
Hexadecimal  [32-Bits]

Area                       Addr        Size        Decimal Bytes (Attributes)
--------------------       ----        ----        ------- ----- ------------
_HRAM10                00000000    00000001 =           1. bytes (ABS,CON)

        Value  Global            Value  Global            Value  Global    
        -----  ------            -----  ------            -----  ------    
     0000FF90  __current
ASxxxx Linker V03.00 + NoICE + sdld,  page 66.
Hexadecimal  [32-Bits]

Area                       Addr        Size        Decimal Bytes (Attributes)
--------------------       ----        ----        ------- ----- ------------
_CODE_1                00014000    000032A5 =       12965. bytes (REL,CON)

        Value  Global            Value  Global            Value  Global    
        -----  ------            -----  ------            -----  ------    
     0001411C  gbt_chann |    000142EE  gbt_chann |    000144B8  gbt_chann
     00014687  gbt_chann |    00014798  gbt_updat |    000147B4  gbt_updat
     000147D1  A$Actor_b |    000147D1  C$Actor_b |    000147D1  G$Activat
     000147D1  _Activate |    000147D3  A$Actor_b |    000147D3  C$Actor_b
     000147D6  A$Actor_b |    000147D8  A$Actor_b |    000147DB  A$Actor_b
     000147DB  C$Actor_b |    000147DD  A$Actor_b |    000147DD  C$Actor_b
     000147DF  A$Actor_b |    000147E0  A$Actor_b |    000147E2  A$Actor_b
     000147E3  A$Actor_b |    000147E4  A$Actor_b |    000147E5  A$Actor_b
     000147E6  A$Actor_b |    000147E7  A$Actor_b |    000147E8  A$Actor_b
     000147E9  A$Actor_b |    000147EA  A$Actor_b |    000147EB  A$Actor_b
     000147EC  A$Actor_b |    000147EF  A$Actor_b |    000147F0  A$Actor_b
     000147F1  A$Actor_b |    000147F2  A$Actor_b |    000147F5  A$Actor_b
     000147F6  A$Actor_b |    000147F7  A$Actor_b |    000147F8  A$Actor_b
     000147F9  A$Actor_b |    000147FA  A$Actor_b |    000147FB  A$Actor_b
     000147FC  A$Actor_b |    000147FD  A$Actor_b |    000147FD  C$Actor_b
     000147FD  C$Actor_b |    00014800  A$Actor_b |    00014802  A$Actor_b
     00014805  A$Actor_b |    00014806  A$Actor_b |    00014808  A$Actor_b
     00014808  C$Actor_b |    0001480B  A$Actor_b |    0001480D  A$Actor_b
     0001480E  A$Actor_b |    0001480F  A$Actor_b |    00014811  A$Actor_b
     00014812  A$Actor_b |    00014813  A$Actor_b |    00014815  A$Actor_b
     00014815  C$Actor_b |    00014817  A$Actor_b |    00014817  C$Actor_b
     00014818  A$Actor_b |    0001481A  A$Actor_b |    0001481A  C$Actor_b
     0001481D  A$Actor_b |    0001481E  A$Actor_b |    0001481F  A$Actor_b
     00014820  A$Actor_b |    00014822  A$Actor_b |    00014823  A$Actor_b
     00014825  A$Actor_b |    00014827  A$Actor_b |    00014828  A$Actor_b
     0001482A  A$Actor_b |    0001482B  A$Actor_b |    0001482C  A$Actor_b
     0001482C  C$Actor_b |    0001482F  A$Actor_b |    00014830  A$Actor_b
     00014831  A$Actor_b |    00014832  A$Actor_b |    00014833  A$Actor_b
     00014834  A$Actor_b |    00014837  A$Actor_b |    00014838  A$Actor_b
     00014839  A$Actor_b |    0001483A  A$Actor_b |    0001483B  A$Actor_b
     0001483B  C$Actor_b |    0001483E  A$Actor_b |    0001483F  A$Actor_b
     00014841  A$Actor_b |    00014841  C$Actor_b |    00014844  A$Actor_b
     00014845  A$Actor_b |    00014847  A$Actor_b |    00014847  C$Actor_b
     0001484A  A$Actor_b |    0001484B  A$Actor_b |    0001484D  A$Actor_b
     0001484D  C$Actor_b |    00014850  A$Actor_b |    00014851  A$Actor_b
     00014853  A$Actor_b |    00014856  A$Actor_b |    00014857  A$Actor_b
     00014858  A$Actor_b |    00014859  A$Actor_b |    0001485B  A$Actor_b
     0001485C  A$Actor_b |    0001485D  A$Actor_b |    0001485E  A$Actor_b
     0001485F  A$Actor_b |    00014860  A$Actor_b |    00014861  A$Actor_b
     00014862  A$Actor_b |    00014863  A$Actor_b |    00014863  C$Actor_b
     00014864  A$Actor_b |    00014866  A$Actor_b |    00014867  A$Actor_b
     00014869  A$Actor_b |    0001486A  A$Actor_b |    0001486A  C$Actor_b
     0001486B  A$Actor_b |    0001486C  A$Actor_b |    0001486E  A$Actor_b
     0001486F  A$Actor_b |    00014870  A$Actor_b |    00014871  A$Actor_b
     00014872  A$Actor_b |    00014874  A$Actor_b |    00014874  C$Actor_b
     00014876  A$Actor_b |    00014877  A$Actor_b |    00014878  A$Actor_b
     00014879  A$Actor_b |    0001487A  A$Actor_b |    0001487C  A$Actor_b
     0001487D  A$Actor_b |    0001487E  A$Actor_b |    0001487F  A$Actor_b
     00014880  A$Actor_b |    00014883  A$Actor_b |    00014885  A$Actor_b
     00014886  A$Actor_b |    00014887  A$Actor_b |    00014888  A$Actor_b
ASxxxx Linker V03.00 + NoICE + sdld,  page 67.
Hexadecimal  [32-Bits]

Area                       Addr        Size        Decimal Bytes (Attributes)
--------------------       ----        ----        ------- ----- ------------
_CODE_1                00014000    000032A5 =       12965. bytes (REL,CON)

        Value  Global            Value  Global            Value  Global    
        -----  ------            -----  ------            -----  ------    
     0001488A  A$Actor_b |    0001488A  C$Actor_b |    0001488B  A$Actor_b
     0001488C  A$Actor_b |    0001488E  A$Actor_b |    0001488E  C$Actor_b
     0001488E  XG$Activa |    0001488F  A$Actor_b |    0001488F  C$Actor_b
     0001488F  G$Deactiv |    0001488F  _Deactiva |    00014890  A$Actor_b
     00014890  C$Actor_b |    00014891  A$Actor_b |    00014893  A$Actor_b
     00014894  A$Actor_b |    00014896  A$Actor_b |    00014898  A$Actor_b
     0001489B  A$Actor_b |    0001489C  A$Actor_b |    0001489E  A$Actor_b
     0001489E  C$Actor_b |    000148A1  A$Actor_b |    000148A3  A$Actor_b
     000148A4  A$Actor_b |    000148A5  A$Actor_b |    000148A7  A$Actor_b
     000148A8  A$Actor_b |    000148A9  A$Actor_b |    000148AB  A$Actor_b
     000148AB  C$Actor_b |    000148AD  A$Actor_b |    000148AE  A$Actor_b
     000148AE  C$Actor_b |    000148B0  A$Actor_b |    000148B0  C$Actor_b
     000148B1  A$Actor_b |    000148B2  A$Actor_b |    000148B4  A$Actor_b
     000148B4  C$Actor_b |    000148B6  A$Actor_b |    000148B7  A$Actor_b
     000148B8  A$Actor_b |    000148BA  A$Actor_b |    000148BA  C$Actor_b
     000148BC  A$Actor_b |    000148BD  A$Actor_b |    000148BF  A$Actor_b
     000148C0  A$Actor_b |    000148C1  A$Actor_b |    000148C2  A$Actor_b
     000148C3  A$Actor_b |    000148C4  A$Actor_b |    000148C5  A$Actor_b
     000148C6  A$Actor_b |    000148C7  A$Actor_b |    000148C8  A$Actor_b
     000148C9  A$Actor_b |    000148CC  A$Actor_b |    000148CD  A$Actor_b
     000148CE  A$Actor_b |    000148CF  A$Actor_b |    000148D2  A$Actor_b
     000148D3  A$Actor_b |    000148D4  A$Actor_b |    000148D5  A$Actor_b
     000148D6  A$Actor_b |    000148D7  A$Actor_b |    000148D8  A$Actor_b
     000148D9  A$Actor_b |    000148DA  A$Actor_b |    000148DD  A$Actor_b
     000148DE  A$Actor_b |    000148DF  A$Actor_b |    000148E0  A$Actor_b
     000148E0  C$Actor_b |    000148E1  A$Actor_b |    000148E2  A$Actor_b
     000148E2  C$Actor_b |    000148E5  A$Actor_b |    000148E6  A$Actor_b
     000148E7  A$Actor_b |    000148E8  A$Actor_b |    000148EA  A$Actor_b
     000148EA  C$Actor_b |    000148EC  A$Actor_b |    000148ED  A$Actor_b
     000148EE  A$Actor_b |    000148EF  A$Actor_b |    000148F0  A$Actor_b
     000148F1  A$Actor_b |    000148F4  A$Actor_b |    000148F6  A$Actor_b
     000148F6  C$Actor_b |    000148F8  A$Actor_b |    000148F9  A$Actor_b
     000148FB  A$Actor_b |    000148FE  A$Actor_b |    000148FF  A$Actor_b
     00014900  A$Actor_b |    00014901  A$Actor_b |    00014904  A$Actor_b
     00014905  A$Actor_b |    00014907  A$Actor_b |    00014908  A$Actor_b
     00014909  A$Actor_b |    0001490B  A$Actor_b |    0001490D  A$Actor_b
     0001490E  A$Actor_b |    0001490F  A$Actor_b |    00014910  A$Actor_b
     00014911  A$Actor_b |    00014911  C$Actor_b |    00014911  XG$Deacti
     00014912  A$Actor_b |    00014912  C$Actor_b |    00014912  G$ActorIn
     00014912  _ActorInF |    00014914  A$Actor_b |    00014914  C$Actor_b
     00014915  A$Actor_b |    00014917  A$Actor_b |    00014918  A$Actor_b
     00014918  C$Actor_b |    0001491A  A$Actor_b |    0001491B  A$Actor_b
     0001491D  A$Actor_b |    0001491E  A$Actor_b |    0001491F  A$Actor_b
     00014920  A$Actor_b |    00014921  A$Actor_b |    00014922  A$Actor_b
     00014923  A$Actor_b |    00014924  A$Actor_b |    00014925  A$Actor_b
     00014926  A$Actor_b |    00014927  A$Actor_b |    0001492A  A$Actor_b
     0001492B  A$Actor_b |    0001492C  A$Actor_b |    0001492D  A$Actor_b
     0001492E  A$Actor_b |    0001492F  A$Actor_b |    00014930  A$Actor_b
     00014932  A$Actor_b |    00014934  A$Actor_b |    00014936  A$Actor_b
     00014938  A$Actor_b |    0001493A  A$Actor_b |    0001493C  A$Actor_b
     0001493D  A$Actor_b |    0001493F  A$Actor_b |    00014940  A$Actor_b
ASxxxx Linker V03.00 + NoICE + sdld,  page 68.
Hexadecimal  [32-Bits]

Area                       Addr        Size        Decimal Bytes (Attributes)
--------------------       ----        ----        ------- ----- ------------
_CODE_1                00014000    000032A5 =       12965. bytes (REL,CON)

        Value  Global            Value  Global            Value  Global    
        -----  ------            -----  ------            -----  ------    
     00014940  C$Actor_b |    00014941  A$Actor_b |    00014942  A$Actor_b
     00014943  A$Actor_b |    00014944  A$Actor_b |    00014945  A$Actor_b
     00014946  A$Actor_b |    00014947  A$Actor_b |    00014949  A$Actor_b
     0001494B  A$Actor_b |    0001494D  A$Actor_b |    0001494F  A$Actor_b
     00014951  A$Actor_b |    00014953  A$Actor_b |    00014954  A$Actor_b
     00014956  A$Actor_b |    00014957  A$Actor_b |    0001495A  A$Actor_b
     0001495B  A$Actor_b |    0001495C  A$Actor_b |    0001495D  A$Actor_b
     0001495F  A$Actor_b |    00014960  A$Actor_b |    00014961  A$Actor_b
     00014964  A$Actor_b |    00014965  A$Actor_b |    00014966  A$Actor_b
     00014968  A$Actor_b |    00014969  A$Actor_b |    00014969  C$Actor_b
     0001496B  A$Actor_b |    0001496C  A$Actor_b |    0001496E  A$Actor_b
     0001496F  A$Actor_b |    00014970  A$Actor_b |    00014971  A$Actor_b
     00014972  A$Actor_b |    00014974  A$Actor_b |    00014975  A$Actor_b
     00014976  A$Actor_b |    00014976  C$Actor_b |    00014978  A$Actor_b
     00014979  A$Actor_b |    0001497A  A$Actor_b |    0001497C  A$Actor_b
     0001497C  C$Actor_b |    0001497E  A$Actor_b |    0001497F  A$Actor_b
     00014980  A$Actor_b |    00014982  A$Actor_b |    00014983  A$Actor_b
     00014984  A$Actor_b |    00014985  A$Actor_b |    00014986  A$Actor_b
     00014988  A$Actor_b |    00014989  A$Actor_b |    0001498A  A$Actor_b
     0001498B  A$Actor_b |    0001498E  A$Actor_b |    00014990  A$Actor_b
     00014992  A$Actor_b |    00014993  A$Actor_b |    00014995  A$Actor_b
     00014995  C$Actor_b |    00014997  A$Actor_b |    00014998  A$Actor_b
     00014999  A$Actor_b |    0001499B  A$Actor_b |    0001499B  C$Actor_b
     0001499D  A$Actor_b |    0001499E  A$Actor_b |    0001499F  A$Actor_b
     000149A0  A$Actor_b |    000149A2  A$Actor_b |    000149A3  A$Actor_b
     000149A4  A$Actor_b |    000149A5  A$Actor_b |    000149A6  A$Actor_b
     000149A8  A$Actor_b |    000149A9  A$Actor_b |    000149AA  A$Actor_b
     000149AB  A$Actor_b |    000149AE  A$Actor_b |    000149B0  A$Actor_b
     000149B2  A$Actor_b |    000149B3  A$Actor_b |    000149B5  A$Actor_b
     000149B5  C$Actor_b |    000149B7  A$Actor_b |    000149B8  A$Actor_b
     000149B9  A$Actor_b |    000149BA  A$Actor_b |    000149BB  A$Actor_b
     000149BD  A$Actor_b |    000149BE  A$Actor_b |    000149BF  A$Actor_b
     000149C1  A$Actor_b |    000149C1  C$Actor_b |    000149C3  A$Actor_b
     000149C4  A$Actor_b |    000149C5  A$Actor_b |    000149C6  A$Actor_b
     000149C8  A$Actor_b |    000149C9  A$Actor_b |    000149CA  A$Actor_b
     000149CC  A$Actor_b |    000149CD  A$Actor_b |    000149CE  A$Actor_b
     000149CF  A$Actor_b |    000149D0  A$Actor_b |    000149D1  A$Actor_b
     000149D4  A$Actor_b |    000149D6  A$Actor_b |    000149D8  A$Actor_b
     000149D9  A$Actor_b |    000149DB  A$Actor_b |    000149DC  A$Actor_b
     000149DE  A$Actor_b |    000149DF  A$Actor_b |    000149E1  A$Actor_b
     000149E1  C$Actor_b |    000149E3  A$Actor_b |    000149E4  A$Actor_b
     000149E5  A$Actor_b |    000149E7  A$Actor_b |    000149E7  C$Actor_b
     000149E9  A$Actor_b |    000149EA  A$Actor_b |    000149EB  A$Actor_b
     000149EC  A$Actor_b |    000149EE  A$Actor_b |    000149EF  A$Actor_b
     000149F0  A$Actor_b |    000149F2  A$Actor_b |    000149F3  A$Actor_b
     000149F4  A$Actor_b |    000149F5  A$Actor_b |    000149F6  A$Actor_b
     000149F7  A$Actor_b |    000149FA  A$Actor_b |    000149FC  A$Actor_b
     000149FE  A$Actor_b |    000149FF  A$Actor_b |    00014A01  A$Actor_b
     00014A02  A$Actor_b |    00014A04  A$Actor_b |    00014A05  A$Actor_b
     00014A05  C$Actor_b |    00014A07  A$Actor_b |    00014A08  A$Actor_b
     00014A0A  A$Actor_b |    00014A0B  A$Actor_b |    00014A0D  A$Actor_b
ASxxxx Linker V03.00 + NoICE + sdld,  page 69.
Hexadecimal  [32-Bits]

Area                       Addr        Size        Decimal Bytes (Attributes)
--------------------       ----        ----        ------- ----- ------------
_CODE_1                00014000    000032A5 =       12965. bytes (REL,CON)

        Value  Global            Value  Global            Value  Global    
        -----  ------            -----  ------            -----  ------    
     00014A0D  C$Actor_b |    00014A0F  A$Actor_b |    00014A11  A$Actor_b
     00014A11  C$Actor_b |    00014A13  A$Actor_b |    00014A14  A$Actor_b
     00014A16  A$Actor_b |    00014A16  C$Actor_b |    00014A16  XG$ActorI
     00014A17  A$Actor_b |    00014A17  C$Actor_b |    00014A17  G$CheckCo
     00014A17  _CheckCol |    00014A19  A$Actor_b |    00014A1A  A$Actor_b
     00014A1B  A$Actor_b |    00014A1C  A$Actor_b |    00014A1C  C$Actor_b
     00014A1D  A$Actor_b |    00014A1F  A$Actor_b |    00014A20  A$Actor_b
     00014A21  A$Actor_b |    00014A23  A$Actor_b |    00014A25  A$Actor_b
     00014A26  A$Actor_b |    00014A28  A$Actor_b |    00014A2A  A$Actor_b
     00014A2C  A$Actor_b |    00014A2D  A$Actor_b |    00014A2E  A$Actor_b
     00014A2F  A$Actor_b |    00014A2F  C$Actor_b |    00014A30  A$Actor_b
     00014A30  C$Actor_b |    00014A31  A$Actor_b |    00014A32  A$Actor_b
     00014A33  A$Actor_b |    00014A35  A$Actor_b |    00014A38  A$Actor_b
     00014A3A  A$Actor_b |    00014A3B  A$Actor_b |    00014A3D  A$Actor_b
     00014A40  A$Actor_b |    00014A43  A$Actor_b |    00014A43  C$Actor_b
     00014A45  A$Actor_b |    00014A46  A$Actor_b |    00014A47  A$Actor_b
     00014A49  A$Actor_b |    00014A49  C$Actor_b |    00014A4A  A$Actor_b
     00014A4B  A$Actor_b |    00014A4C  A$Actor_b |    00014A4D  A$Actor_b
     00014A4E  A$Actor_b |    00014A4F  A$Actor_b |    00014A50  A$Actor_b
     00014A51  A$Actor_b |    00014A52  A$Actor_b |    00014A55  A$Actor_b
     00014A57  A$Actor_b |    00014A58  A$Actor_b |    00014A59  A$Actor_b
     00014A5A  A$Actor_b |    00014A5B  A$Actor_b |    00014A5D  A$Actor_b
     00014A5D  C$Actor_b |    00014A5E  A$Actor_b |    00014A5F  A$Actor_b
     00014A60  A$Actor_b |    00014A61  A$Actor_b |    00014A62  A$Actor_b
     00014A63  A$Actor_b |    00014A64  A$Actor_b |    00014A65  A$Actor_b
     00014A68  A$Actor_b |    00014A6A  A$Actor_b |    00014A6B  A$Actor_b
     00014A6C  A$Actor_b |    00014A6E  A$Actor_b |    00014A6E  C$Actor_b
     00014A70  A$Actor_b |    00014A71  A$Actor_b |    00014A72  A$Actor_b
     00014A72  C$Actor_b |    00014A73  A$Actor_b |    00014A75  A$Actor_b
     00014A76  A$Actor_b |    00014A78  A$Actor_b |    00014A78  C$Actor_b
     00014A7A  A$Actor_b |    00014A7B  A$Actor_b |    00014A7C  A$Actor_b
     00014A7C  C$Actor_b |    00014A7E  A$Actor_b |    00014A7F  A$Actor_b
     00014A80  A$Actor_b |    00014A82  A$Actor_b |    00014A82  C$Actor_b
     00014A83  A$Actor_b |    00014A84  A$Actor_b |    00014A85  A$Actor_b
     00014A86  A$Actor_b |    00014A87  A$Actor_b |    00014A88  A$Actor_b
     00014A89  A$Actor_b |    00014A8A  A$Actor_b |    00014A8B  A$Actor_b
     00014A8E  A$Actor_b |    00014A90  A$Actor_b |    00014A91  A$Actor_b
     00014A92  A$Actor_b |    00014A93  A$Actor_b |    00014A94  A$Actor_b
     00014A96  A$Actor_b |    00014A96  C$Actor_b |    00014A97  A$Actor_b
     00014A98  A$Actor_b |    00014A99  A$Actor_b |    00014A9A  A$Actor_b
     00014A9C  A$Actor_b |    00014A9D  A$Actor_b |    00014A9E  A$Actor_b
     00014A9F  A$Actor_b |    00014AA0  A$Actor_b |    00014AA3  A$Actor_b
     00014AA5  A$Actor_b |    00014AA6  A$Actor_b |    00014AA7  A$Actor_b
     00014AA9  A$Actor_b |    00014AA9  C$Actor_b |    00014AAB  A$Actor_b
     00014AAC  A$Actor_b |    00014AAD  A$Actor_b |    00014AAD  C$Actor_b
     00014AAE  A$Actor_b |    00014AB0  A$Actor_b |    00014AB1  A$Actor_b
     00014AB3  A$Actor_b |    00014AB3  C$Actor_b |    00014AB5  A$Actor_b
     00014AB6  A$Actor_b |    00014AB7  A$Actor_b |    00014AB7  C$Actor_b
     00014AB9  A$Actor_b |    00014ABA  A$Actor_b |    00014ABB  A$Actor_b
     00014ABD  A$Actor_b |    00014ABD  C$Actor_b |    00014ABE  A$Actor_b
     00014ABF  A$Actor_b |    00014AC0  A$Actor_b |    00014AC1  A$Actor_b
ASxxxx Linker V03.00 + NoICE + sdld,  page 70.
Hexadecimal  [32-Bits]

Area                       Addr        Size        Decimal Bytes (Attributes)
--------------------       ----        ----        ------- ----- ------------
_CODE_1                00014000    000032A5 =       12965. bytes (REL,CON)

        Value  Global            Value  Global            Value  Global    
        -----  ------            -----  ------            -----  ------    
     00014AC2  A$Actor_b |    00014AC3  A$Actor_b |    00014AC4  A$Actor_b
     00014AC6  A$Actor_b |    00014AC7  A$Actor_b |    00014AC8  A$Actor_b
     00014AC9  A$Actor_b |    00014ACC  A$Actor_b |    00014ACE  A$Actor_b
     00014ACF  A$Actor_b |    00014AD0  A$Actor_b |    00014AD1  A$Actor_b
     00014AD2  A$Actor_b |    00014AD4  A$Actor_b |    00014AD4  C$Actor_b
     00014AD5  A$Actor_b |    00014AD6  A$Actor_b |    00014AD7  A$Actor_b
     00014AD8  A$Actor_b |    00014AD9  A$Actor_b |    00014ADA  A$Actor_b
     00014ADB  A$Actor_b |    00014ADE  A$Actor_b |    00014AE0  A$Actor_b
     00014AE1  A$Actor_b |    00014AE2  A$Actor_b |    00014AE3  A$Actor_b
     00014AE4  A$Actor_b |    00014AE6  A$Actor_b |    00014AE6  C$Actor_b
     00014AE8  A$Actor_b |    00014AE9  A$Actor_b |    00014AEA  A$Actor_b
     00014AEA  C$Actor_b |    00014AEB  A$Actor_b |    00014AED  A$Actor_b
     00014AEE  A$Actor_b |    00014AF0  A$Actor_b |    00014AF0  C$Actor_b
     00014AF2  A$Actor_b |    00014AF3  A$Actor_b |    00014AF4  A$Actor_b
     00014AF4  C$Actor_b |    00014AF5  A$Actor_b |    00014AF7  A$Actor_b
     00014AF8  A$Actor_b |    00014AF9  A$Actor_b |    00014AFB  A$Actor_b
     00014AFB  C$Actor_b |    00014AFC  A$Actor_b |    00014AFD  A$Actor_b
     00014AFE  A$Actor_b |    00014B00  A$Actor_b |    00014B01  A$Actor_b
     00014B02  A$Actor_b |    00014B03  A$Actor_b |    00014B06  A$Actor_b
     00014B08  A$Actor_b |    00014B09  A$Actor_b |    00014B0A  A$Actor_b
     00014B0B  A$Actor_b |    00014B0D  A$Actor_b |    00014B0D  C$Actor_b
     00014B0E  A$Actor_b |    00014B0F  A$Actor_b |    00014B10  A$Actor_b
     00014B11  A$Actor_b |    00014B12  A$Actor_b |    00014B14  A$Actor_b
     00014B15  A$Actor_b |    00014B16  A$Actor_b |    00014B17  A$Actor_b
     00014B18  A$Actor_b |    00014B1B  A$Actor_b |    00014B1D  A$Actor_b
     00014B1E  A$Actor_b |    00014B1F  A$Actor_b |    00014B20  A$Actor_b
     00014B21  A$Actor_b |    00014B23  A$Actor_b |    00014B23  C$Actor_b
     00014B24  A$Actor_b |    00014B25  A$Actor_b |    00014B26  A$Actor_b
     00014B27  A$Actor_b |    00014B28  A$Actor_b |    00014B29  A$Actor_b
     00014B2A  A$Actor_b |    00014B2B  A$Actor_b |    00014B2E  A$Actor_b
     00014B30  A$Actor_b |    00014B31  A$Actor_b |    00014B32  A$Actor_b
     00014B33  A$Actor_b |    00014B35  A$Actor_b |    00014B35  C$Actor_b
     00014B37  A$Actor_b |    00014B38  A$Actor_b |    00014B39  A$Actor_b
     00014B39  C$Actor_b |    00014B3A  A$Actor_b |    00014B3C  A$Actor_b
     00014B3D  A$Actor_b |    00014B3F  A$Actor_b |    00014B3F  C$Actor_b
     00014B41  A$Actor_b |    00014B42  A$Actor_b |    00014B43  A$Actor_b
     00014B43  C$Actor_b |    00014B43  C$Actor_b |    00014B45  A$Actor_b
     00014B46  A$Actor_b |    00014B46  C$Actor_b |    00014B46  XG$CheckC
     00014B47  A$Actor_b |    00014B47  C$Actor_b |    00014B47  G$ActorAt
     00014B47  _ActorAtT |    00014B49  A$Actor_b |    00014B4C  A$Actor_b
     00014B4E  A$Actor_b |    00014B50  A$Actor_b |    00014B51  A$Actor_b
     00014B53  A$Actor_b |    00014B54  A$Actor_b |    00014B55  A$Actor_b
     00014B58  A$Actor_b |    00014B58  C$Actor_b |    00014B5B  A$Actor_b
     00014B5D  A$Actor_b |    00014B5E  A$Actor_b |    00014B60  A$Actor_b
     00014B61  A$Actor_b |    00014B62  A$Actor_b |    00014B63  A$Actor_b
     00014B64  A$Actor_b |    00014B66  A$Actor_b |    00014B67  A$Actor_b
     00014B67  C$Actor_b |    00014B68  A$Actor_b |    00014B6A  A$Actor_b
     00014B6B  A$Actor_b |    00014B6C  A$Actor_b |    00014B6D  A$Actor_b
     00014B6E  A$Actor_b |    00014B6F  A$Actor_b |    00014B70  A$Actor_b
     00014B71  A$Actor_b |    00014B72  A$Actor_b |    00014B73  A$Actor_b
     00014B74  A$Actor_b |    00014B75  A$Actor_b |    00014B77  A$Actor_b
ASxxxx Linker V03.00 + NoICE + sdld,  page 71.
Hexadecimal  [32-Bits]

Area                       Addr        Size        Decimal Bytes (Attributes)
--------------------       ----        ----        ------- ----- ------------
_CODE_1                00014000    000032A5 =       12965. bytes (REL,CON)

        Value  Global            Value  Global            Value  Global    
        -----  ------            -----  ------            -----  ------    
     00014B78  A$Actor_b |    00014B79  A$Actor_b |    00014B7B  A$Actor_b
     00014B7C  A$Actor_b |    00014B7F  A$Actor_b |    00014B80  A$Actor_b
     00014B81  A$Actor_b |    00014B82  A$Actor_b |    00014B85  A$Actor_b
     00014B87  A$Actor_b |    00014B88  A$Actor_b |    00014B89  A$Actor_b
     00014B8B  A$Actor_b |    00014B8E  A$Actor_b |    00014B8F  A$Actor_b
     00014B90  A$Actor_b |    00014B91  A$Actor_b |    00014B93  A$Actor_b
     00014B93  C$Actor_b |    00014B93  C$Actor_b |    00014B94  A$Actor_b
     00014B95  A$Actor_b |    00014B96  A$Actor_b |    00014B97  A$Actor_b
     00014B98  A$Actor_b |    00014B9A  A$Actor_b |    00014B9C  A$Actor_b
     00014B9E  A$Actor_b |    00014BA0  A$Actor_b |    00014BA2  A$Actor_b
     00014BA4  A$Actor_b |    00014BA5  A$Actor_b |    00014BA7  A$Actor_b
     00014BA8  A$Actor_b |    00014BA8  C$Actor_b |    00014BA9  A$Actor_b
     00014BAA  A$Actor_b |    00014BAB  A$Actor_b |    00014BAC  A$Actor_b
     00014BAD  A$Actor_b |    00014BAE  A$Actor_b |    00014BAF  A$Actor_b
     00014BB1  A$Actor_b |    00014BB3  A$Actor_b |    00014BB5  A$Actor_b
     00014BB7  A$Actor_b |    00014BB9  A$Actor_b |    00014BBB  A$Actor_b
     00014BBB  C$Actor_b |    00014BBD  A$Actor_b |    00014BBE  A$Actor_b
     00014BBF  A$Actor_b |    00014BC1  A$Actor_b |    00014BC3  A$Actor_b
     00014BC4  A$Actor_b |    00014BC6  A$Actor_b |    00014BC7  A$Actor_b
     00014BC9  A$Actor_b |    00014BCA  A$Actor_b |    00014BCB  A$Actor_b
     00014BCD  A$Actor_b |    00014BCE  A$Actor_b |    00014BCF  A$Actor_b
     00014BD1  A$Actor_b |    00014BD3  A$Actor_b |    00014BD4  A$Actor_b
     00014BD6  A$Actor_b |    00014BD7  A$Actor_b |    00014BD9  A$Actor_b
     00014BDB  A$Actor_b |    00014BDC  A$Actor_b |    00014BDE  A$Actor_b
     00014BE1  A$Actor_b |    00014BE2  A$Actor_b |    00014BE3  A$Actor_b
     00014BE4  A$Actor_b |    00014BE6  A$Actor_b |    00014BE7  A$Actor_b
     00014BE8  A$Actor_b |    00014BEA  A$Actor_b |    00014BEB  A$Actor_b
     00014BED  A$Actor_b |    00014BEF  A$Actor_b |    00014BF0  A$Actor_b
     00014BF1  A$Actor_b |    00014BF3  A$Actor_b |    00014BF4  A$Actor_b
     00014BF5  A$Actor_b |    00014BF6  A$Actor_b |    00014BF8  A$Actor_b
     00014BF9  A$Actor_b |    00014BFA  A$Actor_b |    00014BFB  A$Actor_b
     00014BFD  A$Actor_b |    00014BFE  A$Actor_b |    00014BFF  A$Actor_b
     00014C01  A$Actor_b |    00014C01  C$Actor_b |    00014C03  A$Actor_b
     00014C04  A$Actor_b |    00014C06  A$Actor_b |    00014C06  C$Actor_b
     00014C08  A$Actor_b |    00014C09  A$Actor_b |    00014C0C  A$Actor_b
     00014C0C  C$Actor_b |    00014C0E  A$Actor_b |    00014C10  A$Actor_b
     00014C10  C$Actor_b |    00014C10  XG$ActorA |    00014C11  A$Actor_b
     00014C11  C$Actor_b |    00014C11  G$ActorAt |    00014C11  _ActorAt1
     00014C13  A$Actor_b |    00014C16  A$Actor_b |    00014C18  A$Actor_b
     00014C1A  A$Actor_b |    00014C1B  A$Actor_b |    00014C1D  A$Actor_b
     00014C1E  A$Actor_b |    00014C1F  A$Actor_b |    00014C22  A$Actor_b
     00014C22  C$Actor_b |    00014C25  A$Actor_b |    00014C27  A$Actor_b
     00014C28  A$Actor_b |    00014C2A  A$Actor_b |    00014C2B  A$Actor_b
     00014C2C  A$Actor_b |    00014C2D  A$Actor_b |    00014C2E  A$Actor_b
     00014C30  A$Actor_b |    00014C31  A$Actor_b |    00014C31  C$Actor_b
     00014C32  A$Actor_b |    00014C34  A$Actor_b |    00014C35  A$Actor_b
     00014C36  A$Actor_b |    00014C37  A$Actor_b |    00014C38  A$Actor_b
     00014C39  A$Actor_b |    00014C3A  A$Actor_b |    00014C3B  A$Actor_b
     00014C3C  A$Actor_b |    00014C3D  A$Actor_b |    00014C3E  A$Actor_b
     00014C3F  A$Actor_b |    00014C41  A$Actor_b |    00014C42  A$Actor_b
     00014C43  A$Actor_b |    00014C45  A$Actor_b |    00014C46  A$Actor_b
ASxxxx Linker V03.00 + NoICE + sdld,  page 72.
Hexadecimal  [32-Bits]

Area                       Addr        Size        Decimal Bytes (Attributes)
--------------------       ----        ----        ------- ----- ------------
_CODE_1                00014000    000032A5 =       12965. bytes (REL,CON)

        Value  Global            Value  Global            Value  Global    
        -----  ------            -----  ------            -----  ------    
     00014C49  A$Actor_b |    00014C4A  A$Actor_b |    00014C4B  A$Actor_b
     00014C4C  A$Actor_b |    00014C4E  A$Actor_b |    00014C50  A$Actor_b
     00014C51  A$Actor_b |    00014C52  A$Actor_b |    00014C54  A$Actor_b
     00014C57  A$Actor_b |    00014C58  A$Actor_b |    00014C59  A$Actor_b
     00014C5A  A$Actor_b |    00014C5C  A$Actor_b |    00014C5C  C$Actor_b
     00014C5C  C$Actor_b |    00014C5D  A$Actor_b |    00014C5E  A$Actor_b
     00014C5F  A$Actor_b |    00014C60  A$Actor_b |    00014C61  A$Actor_b
     00014C63  A$Actor_b |    00014C65  A$Actor_b |    00014C67  A$Actor_b
     00014C69  A$Actor_b |    00014C6B  A$Actor_b |    00014C6D  A$Actor_b
     00014C6E  A$Actor_b |    00014C70  A$Actor_b |    00014C71  A$Actor_b
     00014C71  C$Actor_b |    00014C72  A$Actor_b |    00014C73  A$Actor_b
     00014C74  A$Actor_b |    00014C75  A$Actor_b |    00014C76  A$Actor_b
     00014C77  A$Actor_b |    00014C78  A$Actor_b |    00014C7A  A$Actor_b
     00014C7C  A$Actor_b |    00014C7E  A$Actor_b |    00014C80  A$Actor_b
     00014C82  A$Actor_b |    00014C84  A$Actor_b |    00014C84  C$Actor_b
     00014C86  A$Actor_b |    00014C87  A$Actor_b |    00014C88  A$Actor_b
     00014C8A  A$Actor_b |    00014C8C  A$Actor_b |    00014C8D  A$Actor_b
     00014C8F  A$Actor_b |    00014C90  A$Actor_b |    00014C92  A$Actor_b
     00014C93  A$Actor_b |    00014C94  A$Actor_b |    00014C96  A$Actor_b
     00014C97  A$Actor_b |    00014C98  A$Actor_b |    00014C9A  A$Actor_b
     00014C9C  A$Actor_b |    00014C9D  A$Actor_b |    00014C9F  A$Actor_b
     00014CA0  A$Actor_b |    00014CA2  A$Actor_b |    00014CA2  C$Actor_b
     00014CA4  A$Actor_b |    00014CA5  A$Actor_b |    00014CA7  A$Actor_b
     00014CA7  C$Actor_b |    00014CA9  A$Actor_b |    00014CAA  A$Actor_b
     00014CAD  A$Actor_b |    00014CAD  C$Actor_b |    00014CAF  A$Actor_b
     00014CB1  A$Actor_b |    00014CB1  C$Actor_b |    00014CB1  XG$ActorA
     00014CB2  A$Actor_b |    00014CB2  C$Actor_b |    00014CB2  G$ActorAt
     00014CB2  _ActorAt1 |    00014CB4  A$Actor_b |    00014CB7  A$Actor_b
     00014CB9  A$Actor_b |    00014CBB  A$Actor_b |    00014CBC  A$Actor_b
     00014CBE  A$Actor_b |    00014CBF  A$Actor_b |    00014CC0  A$Actor_b
     00014CC3  A$Actor_b |    00014CC3  C$Actor_b |    00014CC6  A$Actor_b
     00014CC8  A$Actor_b |    00014CC9  A$Actor_b |    00014CCB  A$Actor_b
     00014CCC  A$Actor_b |    00014CCD  A$Actor_b |    00014CCE  A$Actor_b
     00014CCF  A$Actor_b |    00014CD1  A$Actor_b |    00014CD2  A$Actor_b
     00014CD2  C$Actor_b |    00014CD3  A$Actor_b |    00014CD5  A$Actor_b
     00014CD6  A$Actor_b |    00014CD7  A$Actor_b |    00014CD8  A$Actor_b
     00014CD9  A$Actor_b |    00014CDA  A$Actor_b |    00014CDB  A$Actor_b
     00014CDC  A$Actor_b |    00014CDD  A$Actor_b |    00014CDE  A$Actor_b
     00014CDF  A$Actor_b |    00014CE0  A$Actor_b |    00014CE2  A$Actor_b
     00014CE3  A$Actor_b |    00014CE4  A$Actor_b |    00014CE6  A$Actor_b
     00014CE7  A$Actor_b |    00014CEA  A$Actor_b |    00014CEB  A$Actor_b
     00014CEC  A$Actor_b |    00014CED  A$Actor_b |    00014CEF  A$Actor_b
     00014CF1  A$Actor_b |    00014CF2  A$Actor_b |    00014CF3  A$Actor_b
     00014CF5  A$Actor_b |    00014CF8  A$Actor_b |    00014CF9  A$Actor_b
     00014CFA  A$Actor_b |    00014CFB  A$Actor_b |    00014CFD  A$Actor_b
     00014CFD  C$Actor_b |    00014CFD  C$Actor_b |    00014CFE  A$Actor_b
     00014CFF  A$Actor_b |    00014D00  A$Actor_b |    00014D01  A$Actor_b
     00014D02  A$Actor_b |    00014D04  A$Actor_b |    00014D06  A$Actor_b
     00014D08  A$Actor_b |    00014D0A  A$Actor_b |    00014D0C  A$Actor_b
     00014D0E  A$Actor_b |    00014D0F  A$Actor_b |    00014D11  A$Actor_b
     00014D12  A$Actor_b |    00014D12  C$Actor_b |    00014D13  A$Actor_b
ASxxxx Linker V03.00 + NoICE + sdld,  page 73.
Hexadecimal  [32-Bits]

Area                       Addr        Size        Decimal Bytes (Attributes)
--------------------       ----        ----        ------- ----- ------------
_CODE_1                00014000    000032A5 =       12965. bytes (REL,CON)

        Value  Global            Value  Global            Value  Global    
        -----  ------            -----  ------            -----  ------    
     00014D14  A$Actor_b |    00014D15  A$Actor_b |    00014D16  A$Actor_b
     00014D17  A$Actor_b |    00014D18  A$Actor_b |    00014D19  A$Actor_b
     00014D1B  A$Actor_b |    00014D1D  A$Actor_b |    00014D1F  A$Actor_b
     00014D21  A$Actor_b |    00014D23  A$Actor_b |    00014D25  A$Actor_b
     00014D25  C$Actor_b |    00014D27  A$Actor_b |    00014D28  A$Actor_b
     00014D29  A$Actor_b |    00014D2B  A$Actor_b |    00014D2D  A$Actor_b
     00014D30  A$Actor_b |    00014D31  A$Actor_b |    00014D32  A$Actor_b
     00014D33  A$Actor_b |    00014D34  A$Actor_b |    00014D35  A$Actor_b
     00014D37  A$Actor_b |    00014D38  A$Actor_b |    00014D39  A$Actor_b
     00014D3B  A$Actor_b |    00014D3C  A$Actor_b |    00014D3E  A$Actor_b
     00014D40  A$Actor_b |    00014D41  A$Actor_b |    00014D42  A$Actor_b
     00014D44  A$Actor_b |    00014D45  A$Actor_b |    00014D46  A$Actor_b
     00014D47  A$Actor_b |    00014D49  A$Actor_b |    00014D4A  A$Actor_b
     00014D4B  A$Actor_b |    00014D4C  A$Actor_b |    00014D4D  A$Actor_b
     00014D4F  A$Actor_b |    00014D50  A$Actor_b |    00014D51  A$Actor_b
     00014D53  A$Actor_b |    00014D55  A$Actor_b |    00014D56  A$Actor_b
     00014D58  A$Actor_b |    00014D59  A$Actor_b |    00014D5B  A$Actor_b
     00014D5B  C$Actor_b |    00014D5D  A$Actor_b |    00014D5E  A$Actor_b
     00014D60  A$Actor_b |    00014D60  C$Actor_b |    00014D62  A$Actor_b
     00014D63  A$Actor_b |    00014D66  A$Actor_b |    00014D66  C$Actor_b
     00014D68  A$Actor_b |    00014D6A  A$Actor_b |    00014D6A  C$Actor_b
     00014D6A  XG$ActorA |    00014D6B  A$Actor_b |    00014D6B  C$Actor_b
     00014D6B  G$ActorAt |    00014D6B  _ActorAt3 |    00014D6D  A$Actor_b
     00014D70  A$Actor_b |    00014D72  A$Actor_b |    00014D74  A$Actor_b
     00014D75  A$Actor_b |    00014D77  A$Actor_b |    00014D78  A$Actor_b
     00014D79  A$Actor_b |    00014D7C  A$Actor_b |    00014D7C  C$Actor_b
     00014D7F  A$Actor_b |    00014D81  A$Actor_b |    00014D82  A$Actor_b
     00014D84  A$Actor_b |    00014D85  A$Actor_b |    00014D86  A$Actor_b
     00014D87  A$Actor_b |    00014D88  A$Actor_b |    00014D8A  A$Actor_b
     00014D8B  A$Actor_b |    00014D8B  C$Actor_b |    00014D8C  A$Actor_b
     00014D8E  A$Actor_b |    00014D8F  A$Actor_b |    00014D90  A$Actor_b
     00014D91  A$Actor_b |    00014D92  A$Actor_b |    00014D93  A$Actor_b
     00014D94  A$Actor_b |    00014D95  A$Actor_b |    00014D96  A$Actor_b
     00014D97  A$Actor_b |    00014D98  A$Actor_b |    00014D99  A$Actor_b
     00014D9B  A$Actor_b |    00014D9C  A$Actor_b |    00014D9D  A$Actor_b
     00014D9F  A$Actor_b |    00014DA0  A$Actor_b |    00014DA3  A$Actor_b
     00014DA4  A$Actor_b |    00014DA5  A$Actor_b |    00014DA6  A$Actor_b
     00014DA8  A$Actor_b |    00014DAA  A$Actor_b |    00014DAB  A$Actor_b
     00014DAC  A$Actor_b |    00014DAE  A$Actor_b |    00014DB1  A$Actor_b
     00014DB2  A$Actor_b |    00014DB3  A$Actor_b |    00014DB4  A$Actor_b
     00014DB6  A$Actor_b |    00014DB6  C$Actor_b |    00014DB6  C$Actor_b
     00014DB7  A$Actor_b |    00014DB8  A$Actor_b |    00014DB9  A$Actor_b
     00014DBA  A$Actor_b |    00014DBB  A$Actor_b |    00014DBD  A$Actor_b
     00014DBF  A$Actor_b |    00014DC1  A$Actor_b |    00014DC3  A$Actor_b
     00014DC5  A$Actor_b |    00014DC7  A$Actor_b |    00014DC8  A$Actor_b
     00014DCA  A$Actor_b |    00014DCB  A$Actor_b |    00014DCB  C$Actor_b
     00014DCC  A$Actor_b |    00014DCD  A$Actor_b |    00014DCE  A$Actor_b
     00014DCF  A$Actor_b |    00014DD0  A$Actor_b |    00014DD1  A$Actor_b
     00014DD2  A$Actor_b |    00014DD4  A$Actor_b |    00014DD6  A$Actor_b
     00014DD8  A$Actor_b |    00014DDA  A$Actor_b |    00014DDC  A$Actor_b
     00014DDE  A$Actor_b |    00014DDE  C$Actor_b |    00014DE0  A$Actor_b
ASxxxx Linker V03.00 + NoICE + sdld,  page 74.
Hexadecimal  [32-Bits]

Area                       Addr        Size        Decimal Bytes (Attributes)
--------------------       ----        ----        ------- ----- ------------
_CODE_1                00014000    000032A5 =       12965. bytes (REL,CON)

        Value  Global            Value  Global            Value  Global    
        -----  ------            -----  ------            -----  ------    
     00014DE1  A$Actor_b |    00014DE2  A$Actor_b |    00014DE4  A$Actor_b
     00014DE6  A$Actor_b |    00014DE7  A$Actor_b |    00014DE9  A$Actor_b
     00014DEA  A$Actor_b |    00014DEC  A$Actor_b |    00014DEE  A$Actor_b
     00014DEF  A$Actor_b |    00014DF1  A$Actor_b |    00014DF4  A$Actor_b
     00014DF5  A$Actor_b |    00014DF6  A$Actor_b |    00014DF7  A$Actor_b
     00014DF8  A$Actor_b |    00014DF9  A$Actor_b |    00014DFA  A$Actor_b
     00014DFB  A$Actor_b |    00014DFD  A$Actor_b |    00014DFE  A$Actor_b
     00014E00  A$Actor_b |    00014E02  A$Actor_b |    00014E03  A$Actor_b
     00014E04  A$Actor_b |    00014E06  A$Actor_b |    00014E07  A$Actor_b
     00014E08  A$Actor_b |    00014E09  A$Actor_b |    00014E0B  A$Actor_b
     00014E0C  A$Actor_b |    00014E0D  A$Actor_b |    00014E0E  A$Actor_b
     00014E0F  A$Actor_b |    00014E11  A$Actor_b |    00014E12  A$Actor_b
     00014E13  A$Actor_b |    00014E15  A$Actor_b |    00014E15  C$Actor_b
     00014E17  A$Actor_b |    00014E18  A$Actor_b |    00014E1A  A$Actor_b
     00014E1A  C$Actor_b |    00014E1C  A$Actor_b |    00014E1D  A$Actor_b
     00014E20  A$Actor_b |    00014E20  C$Actor_b |    00014E22  A$Actor_b
     00014E24  A$Actor_b |    00014E24  C$Actor_b |    00014E24  XG$ActorA
     00014E25  A$Actor_b |    00014E25  C$Actor_b |    00014E25  G$ActorOv
     00014E25  _ActorOve |    00014E27  A$Actor_b |    00014E2A  A$Actor_b
     00014E2C  A$Actor_b |    00014E2E  A$Actor_b |    00014E2F  A$Actor_b
     00014E31  A$Actor_b |    00014E32  A$Actor_b |    00014E33  A$Actor_b
     00014E36  A$Actor_b |    00014E36  C$Actor_b |    00014E39  A$Actor_b
     00014E3B  A$Actor_b |    00014E3C  A$Actor_b |    00014E3E  A$Actor_b
     00014E3F  A$Actor_b |    00014E40  A$Actor_b |    00014E41  A$Actor_b
     00014E42  A$Actor_b |    00014E44  A$Actor_b |    00014E45  A$Actor_b
     00014E45  C$Actor_b |    00014E46  A$Actor_b |    00014E48  A$Actor_b
     00014E49  A$Actor_b |    00014E4A  A$Actor_b |    00014E4B  A$Actor_b
     00014E4C  A$Actor_b |    00014E4D  A$Actor_b |    00014E4E  A$Actor_b
     00014E4F  A$Actor_b |    00014E50  A$Actor_b |    00014E51  A$Actor_b
     00014E52  A$Actor_b |    00014E55  A$Actor_b |    00014E56  A$Actor_b
     00014E57  A$Actor_b |    00014E58  A$Actor_b |    00014E5A  A$Actor_b
     00014E5B  A$Actor_b |    00014E5C  A$Actor_b |    00014E5D  A$Actor_b
     00014E5E  A$Actor_b |    00014E5F  A$Actor_b |    00014E60  A$Actor_b
     00014E63  A$Actor_b |    00014E64  A$Actor_b |    00014E65  A$Actor_b
     00014E66  A$Actor_b |    00014E67  A$Actor_b |    00014E68  A$Actor_b
     00014E6B  A$Actor_b |    00014E6D  A$Actor_b |    00014E6E  A$Actor_b
     00014E6F  A$Actor_b |    00014E71  A$Actor_b |    00014E73  A$Actor_b
     00014E74  A$Actor_b |    00014E75  A$Actor_b |    00014E76  A$Actor_b
     00014E79  A$Actor_b |    00014E7A  A$Actor_b |    00014E7B  A$Actor_b
     00014E7C  A$Actor_b |    00014E7D  A$Actor_b |    00014E7E  A$Actor_b
     00014E81  A$Actor_b |    00014E81  C$Actor_b |    00014E81  C$Actor_b
     00014E84  A$Actor_b |    00014E85  A$Actor_b |    00014E87  A$Actor_b
     00014E88  A$Actor_b |    00014E89  A$Actor_b |    00014E8A  A$Actor_b
     00014E8B  A$Actor_b |    00014E8C  A$Actor_b |    00014E8D  A$Actor_b
     00014E8E  A$Actor_b |    00014E91  A$Actor_b |    00014E92  A$Actor_b
     00014E93  A$Actor_b |    00014E94  A$Actor_b |    00014E96  A$Actor_b
     00014E97  A$Actor_b |    00014E98  A$Actor_b |    00014E99  A$Actor_b
     00014E9A  A$Actor_b |    00014E9B  A$Actor_b |    00014E9C  A$Actor_b
     00014E9D  A$Actor_b |    00014E9E  A$Actor_b |    00014E9F  A$Actor_b
     00014EA0  A$Actor_b |    00014EA1  A$Actor_b |    00014EA2  A$Actor_b
     00014EA3  A$Actor_b |    00014EA4  A$Actor_b |    00014EA6  A$Actor_b
ASxxxx Linker V03.00 + NoICE + sdld,  page 75.
Hexadecimal  [32-Bits]

Area                       Addr        Size        Decimal Bytes (Attributes)
--------------------       ----        ----        ------- ----- ------------
_CODE_1                00014000    000032A5 =       12965. bytes (REL,CON)

        Value  Global            Value  Global            Value  Global    
        -----  ------            -----  ------            -----  ------    
     00014EA8  A$Actor_b |    00014EAA  A$Actor_b |    00014EAC  A$Actor_b
     00014EAD  A$Actor_b |    00014EAF  A$Actor_b |    00014EB1  A$Actor_b
     00014EB3  A$Actor_b |    00014EB4  A$Actor_b |    00014EB6  A$Actor_b
     00014EB9  A$Actor_b |    00014EBA  A$Actor_b |    00014EBB  A$Actor_b
     00014EBC  A$Actor_b |    00014EBE  A$Actor_b |    00014EBF  A$Actor_b
     00014EC0  A$Actor_b |    00014EC1  A$Actor_b |    00014EC2  A$Actor_b
     00014EC3  A$Actor_b |    00014EC4  A$Actor_b |    00014EC5  A$Actor_b
     00014EC7  A$Actor_b |    00014EC9  A$Actor_b |    00014ECB  A$Actor_b
     00014ECD  A$Actor_b |    00014ECE  A$Actor_b |    00014ED0  A$Actor_b
     00014ED2  A$Actor_b |    00014ED4  A$Actor_b |    00014ED5  A$Actor_b
     00014ED7  A$Actor_b |    00014ED7  C$Actor_b |    00014EDA  A$Actor_b
     00014EDB  A$Actor_b |    00014EDD  A$Actor_b |    00014EDE  A$Actor_b
     00014EDF  A$Actor_b |    00014EE0  A$Actor_b |    00014EE1  A$Actor_b
     00014EE2  A$Actor_b |    00014EE3  A$Actor_b |    00014EE4  A$Actor_b
     00014EE7  A$Actor_b |    00014EE8  A$Actor_b |    00014EE9  A$Actor_b
     00014EEA  A$Actor_b |    00014EEC  A$Actor_b |    00014EED  A$Actor_b
     00014EEE  A$Actor_b |    00014EEF  A$Actor_b |    00014EF0  A$Actor_b
     00014EF1  A$Actor_b |    00014EF2  A$Actor_b |    00014EF3  A$Actor_b
     00014EF4  A$Actor_b |    00014EF5  A$Actor_b |    00014EF6  A$Actor_b
     00014EF7  A$Actor_b |    00014EF8  A$Actor_b |    00014EF9  A$Actor_b
     00014EFA  A$Actor_b |    00014EFC  A$Actor_b |    00014EFE  A$Actor_b
     00014F00  A$Actor_b |    00014F02  A$Actor_b |    00014F03  A$Actor_b
     00014F05  A$Actor_b |    00014F07  A$Actor_b |    00014F09  A$Actor_b
     00014F0A  A$Actor_b |    00014F0C  A$Actor_b |    00014F0F  A$Actor_b
     00014F10  A$Actor_b |    00014F11  A$Actor_b |    00014F12  A$Actor_b
     00014F14  A$Actor_b |    00014F15  A$Actor_b |    00014F16  A$Actor_b
     00014F17  A$Actor_b |    00014F18  A$Actor_b |    00014F19  A$Actor_b
     00014F1A  A$Actor_b |    00014F1B  A$Actor_b |    00014F1D  A$Actor_b
     00014F1F  A$Actor_b |    00014F21  A$Actor_b |    00014F23  A$Actor_b
     00014F24  A$Actor_b |    00014F26  A$Actor_b |    00014F28  A$Actor_b
     00014F2A  A$Actor_b |    00014F2B  A$Actor_b |    00014F2D  A$Actor_b
     00014F2D  C$Actor_b |    00014F2F  A$Actor_b |    00014F30  A$Actor_b
     00014F32  A$Actor_b |    00014F32  C$Actor_b |    00014F34  A$Actor_b
     00014F35  A$Actor_b |    00014F38  A$Actor_b |    00014F38  C$Actor_b
     00014F3A  A$Actor_b |    00014F3C  A$Actor_b |    00014F3C  C$Actor_b
     00014F3C  XG$ActorO |    00014F3D  A$Actor_b |    00014F3D  C$Actor_b
     00014F3D  G$InitPla |    00014F3D  _InitPlay |    00014F3F  A$Actor_b
     00014F3F  C$Actor_b |    00014F40  A$Actor_b |    00014F41  A$Actor_b
     00014F42  A$Actor_b |    00014F45  A$Actor_b |    00014F46  A$Actor_b
     00014F47  A$Actor_b |    00014F48  A$Actor_b |    00014F49  A$Actor_b
     00014F4C  A$Actor_b |    00014F4E  A$Actor_b |    00014F4F  A$Actor_b
     00014F50  A$Actor_b |    00014F51  A$Actor_b |    00014F53  A$Actor_b
     00014F55  A$Actor_b |    00014F56  A$Actor_b |    00014F56  C$Actor_b
     00014F59  A$Actor_b |    00014F5B  A$Actor_b |    00014F5B  C$Actor_b
     00014F5E  A$Actor_b |    00014F60  A$Actor_b |    00014F60  C$Actor_b
     00014F63  A$Actor_b |    00014F65  A$Actor_b |    00014F65  C$Actor_b
     00014F68  A$Actor_b |    00014F6A  A$Actor_b |    00014F6A  C$Actor_b
     00014F6D  A$Actor_b |    00014F6F  A$Actor_b |    00014F6F  C$Actor_b
     00014F72  A$Actor_b |    00014F73  A$Actor_b |    00014F74  A$Actor_b
     00014F75  A$Actor_b |    00014F78  A$Actor_b |    00014F79  A$Actor_b
     00014F7A  A$Actor_b |    00014F7B  A$Actor_b |    00014F7B  C$Actor_b
ASxxxx Linker V03.00 + NoICE + sdld,  page 76.
Hexadecimal  [32-Bits]

Area                       Addr        Size        Decimal Bytes (Attributes)
--------------------       ----        ----        ------- ----- ------------
_CODE_1                00014000    000032A5 =       12965. bytes (REL,CON)

        Value  Global            Value  Global            Value  Global    
        -----  ------            -----  ------            -----  ------    
     00014F7E  A$Actor_b |    00014F7F  A$Actor_b |    00014F81  A$Actor_b
     00014F82  A$Actor_b |    00014F83  A$Actor_b |    00014F84  A$Actor_b
     00014F85  A$Actor_b |    00014F88  A$Actor_b |    00014F89  A$Actor_b
     00014F8A  A$Actor_b |    00014F8B  A$Actor_b |    00014F8C  A$Actor_b
     00014F8D  A$Actor_b |    00014F8E  A$Actor_b |    00014F8F  A$Actor_b
     00014F8F  C$Actor_b |    00014F92  A$Actor_b |    00014F93  A$Actor_b
     00014F94  A$Actor_b |    00014F95  A$Actor_b |    00014F95  C$Actor_b
     00014F98  A$Actor_b |    00014F9A  A$Actor_b |    00014F9B  A$Actor_b
     00014F9C  A$Actor_b |    00014F9D  A$Actor_b |    00014F9E  A$Actor_b
     00014F9F  A$Actor_b |    00014FA0  A$Actor_b |    00014FA0  C$Actor_b
     00014FA3  A$Actor_b |    00014FA6  A$Actor_b |    00014FA7  A$Actor_b
     00014FA7  C$Actor_b |    00014FAA  A$Actor_b |    00014FAD  A$Actor_b
     00014FAE  A$Actor_b |    00014FAE  C$Actor_b |    00014FB1  A$Actor_b
     00014FB1  C$Actor_b |    00014FB4  A$Actor_b |    00014FB4  C$Actor_b
     00014FB6  A$Actor_b |    00014FB7  A$Actor_b |    00014FB8  A$Actor_b
     00014FB9  A$Actor_b |    00014FBB  A$Actor_b |    00014FBB  C$Actor_b
     00014FBC  A$Actor_b |    00014FBD  A$Actor_b |    00014FBD  C$Actor_b
     00014FBF  A$Actor_b |    00014FC0  A$Actor_b |    00014FC2  A$Actor_b
     00014FC2  C$Actor_b |    00014FC4  A$Actor_b |    00014FC5  A$Actor_b
     00014FC7  A$Actor_b |    00014FC9  A$Actor_b |    00014FC9  C$Actor_b
     00014FC9  C$Actor_b |    00014FCB  A$Actor_b |    00014FCC  A$Actor_b
     00014FCD  A$Actor_b |    00014FCF  A$Actor_b |    00014FCF  C$Actor_b
     00014FD1  A$Actor_b |    00014FD2  A$Actor_b |    00014FD4  A$Actor_b
     00014FD6  A$Actor_b |    00014FD6  C$Actor_b |    00014FD6  C$Actor_b
     00014FD8  A$Actor_b |    00014FD9  A$Actor_b |    00014FDA  A$Actor_b
     00014FDC  A$Actor_b |    00014FDC  C$Actor_b |    00014FDD  A$Actor_b
     00014FDE  A$Actor_b |    00014FDE  C$Actor_b |    00014FE0  A$Actor_b
     00014FE1  A$Actor_b |    00014FE2  A$Actor_b |    00014FE2  C$Actor_b
     00014FE5  A$Actor_b |    00014FE6  A$Actor_b |    00014FE9  A$Actor_b
     00014FE9  C$Actor_b |    00014FEC  A$Actor_b |    00014FEE  A$Actor_b
     00014FEE  C$Actor_b |    00014FF1  A$Actor_b |    00014FF3  A$Actor_b
     00014FF3  C$Actor_b |    00014FF6  A$Actor_b |    00014FF8  A$Actor_b
     00014FF8  C$Actor_b |    00014FFB  A$Actor_b |    00014FFD  A$Actor_b
     00014FFD  C$Actor_b |    00015000  A$Actor_b |    00015002  A$Actor_b
     00015004  A$Actor_b |    00015004  C$Actor_b |    00015004  XG$InitPl
     00015005  A$Actor_b |    00015005  C$Actor_b |    00015005  G$ActorRu
     00015005  _ActorRun |    00015007  A$Actor_b |    00015007  C$Actor_b
     0001500A  A$Actor_b |    0001500B  A$Actor_b |    0001500E  A$Actor_b
     00015011  A$Actor_b |    00015013  A$Actor_b |    00015016  A$Actor_b
     00015016  C$Actor_b |    00015017  A$Actor_b |    00015019  A$Actor_b
     0001501A  A$Actor_b |    0001501B  A$Actor_b |    0001501C  A$Actor_b
     0001501D  A$Actor_b |    0001501E  A$Actor_b |    0001501F  A$Actor_b
     00015020  A$Actor_b |    00015021  A$Actor_b |    00015022  A$Actor_b
     00015023  A$Actor_b |    00015026  A$Actor_b |    00015027  A$Actor_b
     00015028  A$Actor_b |    00015029  A$Actor_b |    00015029  C$Actor_b
     0001502C  A$Actor_b |    0001502D  A$Actor_b |    0001502E  A$Actor_b
     0001502F  A$Actor_b |    00015030  A$Actor_b |    00015033  A$Actor_b
     00015033  C$Actor_b |    00015036  A$Actor_b |    00015037  A$Actor_b
     00015038  A$Actor_b |    00015039  A$Actor_b |    0001503A  A$Actor_b
     0001503A  C$Actor_b |    0001503B  A$Actor_b |    0001503D  A$Actor_b
     0001503F  A$Actor_b |    0001503F  C$Actor_b |    00015042  A$Actor_b
ASxxxx Linker V03.00 + NoICE + sdld,  page 77.
Hexadecimal  [32-Bits]

Area                       Addr        Size        Decimal Bytes (Attributes)
--------------------       ----        ----        ------- ----- ------------
_CODE_1                00014000    000032A5 =       12965. bytes (REL,CON)

        Value  Global            Value  Global            Value  Global    
        -----  ------            -----  ------            -----  ------    
     00015043  A$Actor_b |    00015044  A$Actor_b |    00015046  A$Actor_b
     00015046  C$Actor_b |    00015047  A$Actor_b |    00015048  A$Actor_b
     00015049  A$Actor_b |    0001504A  A$Actor_b |    0001504D  A$Actor_b
     0001504F  A$Actor_b |    0001504F  C$Actor_b |    00015050  A$Actor_b
     00015051  A$Actor_b |    00015052  A$Actor_b |    00015053  A$Actor_b
     00015055  A$Actor_b |    00015055  C$Actor_b |    00015058  A$Actor_b
     00015059  A$Actor_b |    0001505A  A$Actor_b |    0001505C  A$Actor_b
     0001505D  A$Actor_b |    0001505E  A$Actor_b |    0001505F  A$Actor_b
     00015060  A$Actor_b |    00015063  A$Actor_b |    00015065  A$Actor_b
     00015067  A$Actor_b |    00015067  C$Actor_b |    00015068  A$Actor_b
     0001506A  A$Actor_b |    0001506C  A$Actor_b |    0001506C  C$Actor_b
     0001506F  A$Actor_b |    00015070  A$Actor_b |    00015071  A$Actor_b
     00015073  A$Actor_b |    00015073  C$Actor_b |    00015074  A$Actor_b
     00015075  A$Actor_b |    00015076  A$Actor_b |    00015077  A$Actor_b
     0001507A  A$Actor_b |    0001507C  A$Actor_b |    0001507C  C$Actor_b
     0001507D  A$Actor_b |    0001507E  A$Actor_b |    0001507F  A$Actor_b
     00015080  A$Actor_b |    00015082  A$Actor_b |    00015082  C$Actor_b
     00015085  A$Actor_b |    00015086  A$Actor_b |    00015087  A$Actor_b
     00015089  A$Actor_b |    0001508A  A$Actor_b |    0001508B  A$Actor_b
     0001508C  A$Actor_b |    0001508D  A$Actor_b |    00015090  A$Actor_b
     00015092  A$Actor_b |    00015094  A$Actor_b |    00015094  C$Actor_b
     00015095  A$Actor_b |    00015097  A$Actor_b |    00015099  A$Actor_b
     00015099  C$Actor_b |    0001509C  A$Actor_b |    0001509D  A$Actor_b
     0001509F  A$Actor_b |    0001509F  C$Actor_b |    000150A0  A$Actor_b
     000150A1  A$Actor_b |    000150A2  A$Actor_b |    000150A5  A$Actor_b
     000150A6  A$Actor_b |    000150A9  A$Actor_b |    000150AB  A$Actor_b
     000150AB  C$Actor_b |    000150AC  A$Actor_b |    000150AD  A$Actor_b
     000150AE  A$Actor_b |    000150AF  A$Actor_b |    000150B1  A$Actor_b
     000150B1  C$Actor_b |    000150B4  A$Actor_b |    000150B5  A$Actor_b
     000150B6  A$Actor_b |    000150B8  A$Actor_b |    000150B9  A$Actor_b
     000150BA  A$Actor_b |    000150BB  A$Actor_b |    000150BC  A$Actor_b
     000150BF  A$Actor_b |    000150C1  A$Actor_b |    000150C1  C$Actor_b
     000150C4  A$Actor_b |    000150C6  A$Actor_b |    000150C6  C$Actor_b
     000150C9  A$Actor_b |    000150CB  A$Actor_b |    000150CD  A$Actor_b
     000150CD  C$Actor_b |    000150D0  A$Actor_b |    000150D1  A$Actor_b
     000150D2  A$Actor_b |    000150D4  A$Actor_b |    000150D4  C$Actor_b
     000150D5  A$Actor_b |    000150D7  A$Actor_b |    000150D7  C$Actor_b
     000150D7  XG$ActorR |    000150D8  A$FadeMan |    000150D8  C$FadeMan
     000150D8  C$FadeMan |    000150D8  G$ApplyPa |    000150D8  _ApplyPal
     000150DB  A$FadeMan |    000150DC  A$FadeMan |    000150DE  A$FadeMan
     000150DE  C$FadeMan |    000150E1  A$FadeMan |    000150E3  A$FadeMan
     000150E4  A$FadeMan |    000150E6  A$FadeMan |    000150E7  A$FadeMan
     000150E8  A$FadeMan |    000150E9  A$FadeMan |    000150EA  A$FadeMan
     000150EC  A$FadeMan |    000150EC  C$FadeMan |    000150EF  A$FadeMan
     000150F1  A$FadeMan |    000150F2  A$FadeMan |    000150F4  A$FadeMan
     000150F5  A$FadeMan |    000150F6  A$FadeMan |    000150F7  A$FadeMan
     000150F8  A$FadeMan |    000150FA  A$FadeMan |    000150FB  A$FadeMan
     000150FB  C$FadeMan |    000150FE  A$FadeMan |    00015100  A$FadeMan
     00015101  A$FadeMan |    00015103  A$FadeMan |    00015104  A$FadeMan
     00015105  A$FadeMan |    00015106  A$FadeMan |    00015107  A$FadeMan
     00015109  A$FadeMan |    00015109  C$FadeMan |    0001510C  A$FadeMan
ASxxxx Linker V03.00 + NoICE + sdld,  page 78.
Hexadecimal  [32-Bits]

Area                       Addr        Size        Decimal Bytes (Attributes)
--------------------       ----        ----        ------- ----- ------------
_CODE_1                00014000    000032A5 =       12965. bytes (REL,CON)

        Value  Global            Value  Global            Value  Global    
        -----  ------            -----  ------            -----  ------    
     0001510E  A$FadeMan |    0001510F  A$FadeMan |    00015111  A$FadeMan
     00015112  A$FadeMan |    00015113  A$FadeMan |    00015114  A$FadeMan
     00015115  A$FadeMan |    00015117  A$FadeMan |    00015117  C$FadeMan
     00015117  XG$ApplyP |    00015118  FFadeMana |    0001511F  FFadeMana
     00015126  FFadeMana |    0001512D  FFadeMana |    00015134  A$FadeMan
     00015134  C$FadeMan |    00015134  C$FadeMan |    00015134  G$FadeIn_
     00015134  _FadeIn_b |    00015137  A$FadeMan |    00015139  A$FadeMan
     00015139  C$FadeMan |    0001513C  A$FadeMan |    0001513E  A$FadeMan
     0001513E  C$FadeMan |    00015141  A$FadeMan |    00015143  A$FadeMan
     00015143  C$FadeMan |    00015146  A$FadeMan |    00015148  A$FadeMan
     00015148  C$FadeMan |    00015149  A$FadeMan |    0001514A  A$FadeMan
     0001514B  A$FadeMan |    0001514E  A$FadeMan |    0001514F  A$FadeMan
     0001514F  C$FadeMan |    0001514F  XG$FadeIn |    00015150  A$FadeMan
     00015150  C$FadeMan |    00015150  C$FadeMan |    00015150  G$FadeOut
     00015150  _FadeOut_ |    00015153  A$FadeMan |    00015155  A$FadeMan
     00015155  C$FadeMan |    00015158  A$FadeMan |    0001515A  A$FadeMan
     0001515A  C$FadeMan |    0001515D  A$FadeMan |    0001515F  A$FadeMan
     0001515F  C$FadeMan |    00015162  A$FadeMan |    00015162  C$FadeMan
     00015164  A$FadeMan |    00015165  A$FadeMan |    00015166  A$FadeMan
     00015167  A$FadeMan |    0001516A  A$FadeMan |    0001516B  A$FadeMan
     0001516B  C$FadeMan |    0001516B  XG$FadeOu |    0001516C  A$FadeMan
     0001516C  C$FadeMan |    0001516C  C$FadeMan |    0001516C  G$FadeUpd
     0001516C  _FadeUpda |    0001516F  A$FadeMan |    00015170  A$FadeMan
     00015171  A$FadeMan |    00015171  C$FadeMan |    00015174  A$FadeMan
     00015177  A$FadeMan |    00015178  A$FadeMan |    0001517A  A$FadeMan
     0001517A  C$FadeMan |    0001517D  A$FadeMan |    0001517E  A$FadeMan
     00015180  A$FadeMan |    00015180  C$FadeMan |    00015183  A$FadeMan
     00015184  A$FadeMan |    00015184  C$FadeMan |    00015185  A$FadeMan
     00015187  A$FadeMan |    00015189  A$FadeMan |    00015189  C$FadeMan
     0001518C  A$FadeMan |    0001518E  A$FadeMan |    00015190  A$FadeMan
     00015190  C$FadeMan |    00015193  A$FadeMan |    00015193  C$FadeMan
     00015194  A$FadeMan |    00015196  A$FadeMan |    00015196  C$FadeMan
     00015199  A$FadeMan |    0001519B  A$FadeMan |    0001519B  C$FadeMan
     0001519E  A$FadeMan |    0001519F  A$FadeMan |    000151A0  A$FadeMan
     000151A3  A$FadeMan |    000151A4  A$FadeMan |    000151A4  C$FadeMan
     000151A7  A$FadeMan |    000151A8  A$FadeMan |    000151A8  C$FadeMan
     000151A8  XG$FadeUp |    000151A9  A$FadeMan |    000151A9  C$FadeMan
     000151A9  C$FadeMan |    000151A9  G$ApplyPa |    000151A9  _ApplyPal
     000151AC  A$FadeMan |    000151AD  A$FadeMan |    000151AE  A$FadeMan
     000151B1  A$FadeMan |    000151B2  A$FadeMan |    000151B2  C$FadeMan
     000151B2  XG$ApplyP |    000151B3  A$Project |    000151B3  C$Project
     000151B3  G$Project |    000151B3  _Projecti |    000151B4  A$Project
     000151B4  C$Project |    000151B5  A$Project |    000151B7  A$Project
     000151B8  A$Project |    000151B8  C$Project |    000151BA  A$Project
     000151BB  A$Project |    000151BD  A$Project |    000151BE  A$Project
     000151BF  A$Project |    000151C0  A$Project |    000151C1  A$Project
     000151C2  A$Project |    000151C3  A$Project |    000151C4  A$Project
     000151C5  A$Project |    000151C6  A$Project |    000151C8  A$Project
     000151C9  A$Project |    000151CA  A$Project |    000151CC  A$Project
     000151CD  A$Project |    000151D0  A$Project |    000151D1  A$Project
     000151D2  A$Project |    000151D3  A$Project |    000151D4  A$Project
ASxxxx Linker V03.00 + NoICE + sdld,  page 79.
Hexadecimal  [32-Bits]

Area                       Addr        Size        Decimal Bytes (Attributes)
--------------------       ----        ----        ------- ----- ------------
_CODE_1                00014000    000032A5 =       12965. bytes (REL,CON)

        Value  Global            Value  Global            Value  Global    
        -----  ------            -----  ------            -----  ------    
     000151D5  A$Project |    000151D8  A$Project |    000151D9  A$Project
     000151DA  A$Project |    000151DB  A$Project |    000151DC  A$Project
     000151DC  C$Project |    000151DF  A$Project |    000151E0  A$Project
     000151E2  A$Project |    000151E2  C$Project |    000151E4  A$Project
     000151E5  A$Project |    000151E6  A$Project |    000151E8  A$Project
     000151EA  A$Project |    000151EB  A$Project |    000151EB  C$Project
     000151EB  XG$Projec |    000151EC  A$Project |    000151EC  C$Project
     000151EC  G$WeaponA |    000151EC  _WeaponAt |    000151EE  A$Project
     000151EE  C$Project |    000151F1  A$Project |    000151F2  A$Project
     000151F4  A$Project |    000151F5  A$Project |    000151F6  A$Project
     000151F7  A$Project |    000151F8  A$Project |    000151F9  A$Project
     000151FA  A$Project |    000151FB  A$Project |    000151FC  A$Project
     000151FF  A$Project |    00015200  A$Project |    00015201  A$Project
     00015202  A$Project |    00015205  A$Project |    00015206  A$Project
     00015207  A$Project |    00015208  A$Project |    0001520B  A$Project
     0001520B  C$Project |    0001520E  A$Project |    0001520F  A$Project
     00015211  A$Project |    00015211  C$Project |    00015214  A$Project
     00015215  A$Project |    00015217  A$Project |    00015218  A$Project
     00015219  A$Project |    0001521A  A$Project |    0001521B  A$Project
     0001521C  A$Project |    0001521D  A$Project |    0001521E  A$Project
     0001521F  A$Project |    00015222  A$Project |    00015223  A$Project
     00015226  A$Project |    00015227  A$Project |    00015228  A$Project
     00015229  A$Project |    0001522B  A$Project |    0001522C  A$Project
     0001522D  A$Project |    0001522F  A$Project |    00015230  A$Project
     00015232  A$Project |    00015233  A$Project |    00015234  A$Project
     00015235  A$Project |    00015236  A$Project |    00015237  A$Project
     00015238  A$Project |    00015239  A$Project |    0001523A  A$Project
     0001523B  A$Project |    0001523C  A$Project |    0001523F  A$Project
     00015240  A$Project |    00015241  A$Project |    00015242  A$Project
     00015245  A$Project |    00015246  A$Project |    00015247  A$Project
     00015249  A$Project |    0001524A  A$Project |    0001524B  A$Project
     0001524C  A$Project |    0001524D  A$Project |    0001524E  A$Project
     0001524F  A$Project |    0001524F  C$Project |    00015252  A$Project
     00015253  A$Project |    00015255  A$Project |    00015256  A$Project
     00015257  A$Project |    00015258  A$Project |    00015259  A$Project
     0001525A  A$Project |    0001525B  A$Project |    0001525C  A$Project
     0001525D  A$Project |    0001525E  A$Project |    0001525F  A$Project
     00015261  A$Project |    00015262  A$Project |    00015263  A$Project
     00015264  A$Project |    00015265  A$Project |    00015266  A$Project
     00015267  A$Project |    0001526A  A$Project |    0001526B  A$Project
     0001526C  A$Project |    0001526D  A$Project |    00015270  A$Project
     00015271  A$Project |    00015272  A$Project |    00015273  A$Project
     00015276  A$Project |    00015277  A$Project |    00015278  A$Project
     00015279  A$Project |    00015279  C$Project |    0001527C  A$Project
     0001527D  A$Project |    0001527F  A$Project |    00015280  A$Project
     00015281  A$Project |    00015282  A$Project |    00015283  A$Project
     00015284  A$Project |    00015285  A$Project |    00015286  A$Project
     00015287  A$Project |    0001528A  A$Project |    0001528B  A$Project
     0001528E  A$Project |    0001528F  A$Project |    00015290  A$Project
     00015291  A$Project |    00015293  A$Project |    00015294  A$Project
     00015295  A$Project |    00015298  A$Project |    00015299  A$Project
ASxxxx Linker V03.00 + NoICE + sdld,  page 80.
Hexadecimal  [32-Bits]

Area                       Addr        Size        Decimal Bytes (Attributes)
--------------------       ----        ----        ------- ----- ------------
_CODE_1                00014000    000032A5 =       12965. bytes (REL,CON)

        Value  Global            Value  Global            Value  Global    
        -----  ------            -----  ------            -----  ------    
     0001529B  A$Project |    0001529C  A$Project |    0001529D  A$Project
     0001529E  A$Project |    0001529F  A$Project |    000152A0  A$Project
     000152A1  A$Project |    000152A2  A$Project |    000152A3  A$Project
     000152A6  A$Project |    000152A7  A$Project |    000152A8  A$Project
     000152A9  A$Project |    000152AC  A$Project |    000152AD  A$Project
     000152AE  A$Project |    000152B0  A$Project |    000152B1  A$Project
     000152B2  A$Project |    000152B3  A$Project |    000152B4  A$Project
     000152B5  A$Project |    000152B6  A$Project |    000152B7  A$Project
     000152B8  A$Project |    000152B9  A$Project |    000152BA  A$Project
     000152BB  A$Project |    000152BC  A$Project |    000152BE  A$Project
     000152BF  A$Project |    000152C0  A$Project |    000152C3  A$Project
     000152C4  A$Project |    000152C5  A$Project |    000152C6  A$Project
     000152C7  A$Project |    000152C8  A$Project |    000152C9  A$Project
     000152CA  A$Project |    000152CC  A$Project |    000152CD  A$Project
     000152CE  A$Project |    000152CF  A$Project |    000152D0  A$Project
     000152D1  A$Project |    000152D2  A$Project |    000152D5  A$Project
     000152D6  A$Project |    000152D7  A$Project |    000152D8  A$Project
     000152D9  A$Project |    000152DB  A$Project |    000152DC  A$Project
     000152DD  A$Project |    000152DE  A$Project |    000152E1  A$Project
     000152E2  A$Project |    000152E3  A$Project |    000152E4  A$Project
     000152E5  A$Project |    000152E7  A$Project |    000152E7  C$Project
     000152E8  A$Project |    000152E9  A$Project |    000152EA  A$Project
     000152EB  A$Project |    000152EC  A$Project |    000152ED  A$Project
     000152EE  A$Project |    000152EF  A$Project |    000152F0  A$Project
     000152F0  C$Project |    000152F1  A$Project |    000152F2  A$Project
     000152F3  A$Project |    000152F4  A$Project |    000152F6  A$Project
     000152F6  C$Project |    000152F7  A$Project |    000152F8  A$Project
     000152F9  A$Project |    000152FA  A$Project |    000152FB  A$Project
     000152FC  A$Project |    000152FD  A$Project |    000152FE  A$Project
     000152FF  A$Project |    00015300  A$Project |    00015301  A$Project
     00015302  A$Project |    00015303  A$Project |    00015304  A$Project
     00015305  A$Project |    00015307  A$Project |    00015308  A$Project
     00015309  A$Project |    0001530B  A$Project |    0001530C  A$Project
     0001530D  A$Project |    0001530E  A$Project |    0001530F  A$Project
     00015310  A$Project |    00015311  A$Project |    00015312  A$Project
     00015313  A$Project |    00015314  A$Project |    00015315  A$Project
     00015316  A$Project |    00015317  A$Project |    00015318  A$Project
     00015319  A$Project |    0001531A  A$Project |    0001531A  C$Project
     0001531D  A$Project |    0001531E  A$Project |    00015320  A$Project
     00015321  A$Project |    00015322  A$Project |    00015323  A$Project
     00015324  A$Project |    00015325  A$Project |    00015326  A$Project
     00015327  A$Project |    00015328  A$Project |    0001532B  A$Project
     0001532C  A$Project |    0001532D  A$Project |    0001532E  A$Project
     0001532F  A$Project |    00015330  A$Project |    00015330  C$Project
     00015333  A$Project |    00015334  A$Project |    00015335  A$Project
     00015337  A$Project |    00015338  A$Project |    00015339  A$Project
     0001533A  A$Project |    0001533B  A$Project |    0001533C  A$Project
     0001533D  A$Project |    0001533E  A$Project |    0001533F  A$Project
     00015340  A$Project |    00015341  A$Project |    00015344  A$Project
     00015345  A$Project |    00015346  A$Project |    00015347  A$Project
     00015348  A$Project |    00015349  A$Project |    0001534A  A$Project
ASxxxx Linker V03.00 + NoICE + sdld,  page 81.
Hexadecimal  [32-Bits]

Area                       Addr        Size        Decimal Bytes (Attributes)
--------------------       ----        ----        ------- ----- ------------
_CODE_1                00014000    000032A5 =       12965. bytes (REL,CON)

        Value  Global            Value  Global            Value  Global    
        -----  ------            -----  ------            -----  ------    
     0001534C  A$Project |    0001534D  A$Project |    0001534E  A$Project
     0001534F  A$Project |    00015350  A$Project |    00015352  A$Project
     00015353  A$Project |    00015354  A$Project |    00015355  A$Project
     00015356  A$Project |    00015357  A$Project |    0001535A  A$Project
     0001535A  C$Project |    0001535C  A$Project |    0001535D  A$Project
     0001535E  A$Project |    0001535F  A$Project |    00015360  A$Project
     00015361  A$Project |    00015361  C$Project |    00015364  A$Project
     00015365  A$Project |    00015367  A$Project |    00015368  A$Project
     00015369  A$Project |    0001536A  A$Project |    0001536B  A$Project
     0001536C  A$Project |    0001536D  A$Project |    0001536E  A$Project
     0001536F  A$Project |    00015372  A$Project |    00015373  A$Project
     00015374  A$Project |    00015375  A$Project |    00015376  A$Project
     00015377  A$Project |    00015377  C$Project |    0001537A  A$Project
     0001537B  A$Project |    0001537C  A$Project |    0001537E  A$Project
     0001537F  A$Project |    00015380  A$Project |    00015381  A$Project
     00015382  A$Project |    00015383  A$Project |    00015384  A$Project
     00015385  A$Project |    00015386  A$Project |    00015387  A$Project
     00015388  A$Project |    00015389  A$Project |    0001538A  A$Project
     0001538C  A$Project |    0001538D  A$Project |    0001538E  A$Project
     00015391  A$Project |    00015392  A$Project |    00015393  A$Project
     00015394  A$Project |    00015395  A$Project |    00015396  A$Project
     00015397  A$Project |    00015398  A$Project |    0001539A  A$Project
     0001539B  A$Project |    0001539C  A$Project |    0001539D  A$Project
     0001539E  A$Project |    0001539F  A$Project |    000153A0  A$Project
     000153A1  A$Project |    000153A2  A$Project |    000153A3  A$Project
     000153A4  A$Project |    000153A5  A$Project |    000153A7  A$Project
     000153A8  A$Project |    000153A9  A$Project |    000153AA  A$Project
     000153AB  A$Project |    000153AB  C$Project |    000153AD  A$Project
     000153AE  A$Project |    000153AF  A$Project |    000153B0  A$Project
     000153B3  A$Project |    000153B4  A$Project |    000153B5  A$Project
     000153B6  A$Project |    000153B7  A$Project |    000153B8  A$Project
     000153B9  A$Project |    000153BA  A$Project |    000153BB  A$Project
     000153BC  A$Project |    000153BD  A$Project |    000153BE  A$Project
     000153BF  A$Project |    000153C0  A$Project |    000153C1  A$Project
     000153C2  A$Project |    000153C3  A$Project |    000153C5  A$Project
     000153C6  A$Project |    000153C7  A$Project |    000153C9  A$Project
     000153CA  A$Project |    000153CB  A$Project |    000153CC  A$Project
     000153CD  A$Project |    000153CE  A$Project |    000153CF  A$Project
     000153D0  A$Project |    000153D1  A$Project |    000153D2  A$Project
     000153D3  A$Project |    000153D4  A$Project |    000153D5  A$Project
     000153D6  A$Project |    000153D7  A$Project |    000153D8  A$Project
     000153D8  C$Project |    000153DB  A$Project |    000153DC  A$Project
     000153DE  A$Project |    000153DF  A$Project |    000153E0  A$Project
     000153E1  A$Project |    000153E2  A$Project |    000153E3  A$Project
     000153E4  A$Project |    000153E5  A$Project |    000153E6  A$Project
     000153E9  A$Project |    000153EA  A$Project |    000153ED  A$Project
     000153EE  A$Project |    000153F0  A$Project |    000153F0  C$Project
     000153F3  A$Project |    000153F4  A$Project |    000153F6  A$Project
     000153F7  A$Project |    000153F8  A$Project |    000153F9  A$Project
     000153FA  A$Project |    000153FB  A$Project |    000153FC  A$Project
     000153FD  A$Project |    000153FE  A$Project |    00015401  A$Project
ASxxxx Linker V03.00 + NoICE + sdld,  page 82.
Hexadecimal  [32-Bits]

Area                       Addr        Size        Decimal Bytes (Attributes)
--------------------       ----        ----        ------- ----- ------------
_CODE_1                00014000    000032A5 =       12965. bytes (REL,CON)

        Value  Global            Value  Global            Value  Global    
        -----  ------            -----  ------            -----  ------    
     00015402  A$Project |    00015405  A$Project |    00015406  A$Project
     00015408  A$Project |    00015408  C$Project |    0001540B  A$Project
     0001540C  A$Project |    0001540E  A$Project |    0001540F  A$Project
     00015410  A$Project |    00015411  A$Project |    00015412  A$Project
     00015413  A$Project |    00015414  A$Project |    00015415  A$Project
     00015416  A$Project |    00015419  A$Project |    0001541A  A$Project
     0001541D  A$Project |    0001541E  A$Project |    0001541F  A$Project
     00015420  A$Project |    00015422  A$Project |    00015423  A$Project
     00015424  A$Project |    00015424  C$Project |    00015427  A$Project
     00015428  A$Project |    0001542A  A$Project |    0001542B  A$Project
     0001542C  A$Project |    0001542D  A$Project |    0001542E  A$Project
     0001542F  A$Project |    00015430  A$Project |    00015431  A$Project
     00015432  A$Project |    00015435  A$Project |    00015436  A$Project
     00015439  A$Project |    0001543A  A$Project |    0001543B  A$Project
     0001543C  A$Project |    0001543E  A$Project |    0001543F  A$Project
     00015440  A$Project |    00015440  C$Project |    00015443  A$Project
     00015444  A$Project |    00015446  A$Project |    00015447  A$Project
     00015448  A$Project |    00015449  A$Project |    0001544A  A$Project
     0001544B  A$Project |    0001544C  A$Project |    0001544D  A$Project
     0001544E  A$Project |    00015451  A$Project |    00015452  A$Project
     00015455  A$Project |    00015456  A$Project |    00015458  A$Project
     00015458  C$Project |    0001545B  A$Project |    0001545C  A$Project
     0001545E  A$Project |    0001545F  A$Project |    00015460  A$Project
     00015461  A$Project |    00015462  A$Project |    00015463  A$Project
     00015464  A$Project |    00015465  A$Project |    00015466  A$Project
     00015469  A$Project |    0001546A  A$Project |    0001546D  A$Project
     0001546E  A$Project |    00015470  A$Project |    00015470  C$Project
     00015473  A$Project |    00015474  A$Project |    00015476  A$Project
     00015477  A$Project |    00015478  A$Project |    00015479  A$Project
     0001547A  A$Project |    0001547B  A$Project |    0001547C  A$Project
     0001547D  A$Project |    0001547E  A$Project |    00015481  A$Project
     00015482  A$Project |    00015485  A$Project |    00015486  A$Project
     00015487  A$Project |    00015488  A$Project |    0001548A  A$Project
     0001548B  A$Project |    0001548C  A$Project |    0001548C  C$Project
     0001548F  A$Project |    00015490  A$Project |    00015492  A$Project
     00015493  A$Project |    00015494  A$Project |    00015495  A$Project
     00015496  A$Project |    00015497  A$Project |    00015498  A$Project
     00015499  A$Project |    0001549A  A$Project |    0001549D  A$Project
     0001549E  A$Project |    000154A1  A$Project |    000154A2  A$Project
     000154A3  A$Project |    000154A4  A$Project |    000154A6  A$Project
     000154A7  A$Project |    000154A9  A$Project |    000154AA  A$Project
     000154AB  A$Project |    000154AC  A$Project |    000154AD  A$Project
     000154AE  A$Project |    000154AF  A$Project |    000154B1  A$Project
     000154B2  A$Project |    000154B3  A$Project |    000154B4  A$Project
     000154B5  A$Project |    000154B6  A$Project |    000154B7  A$Project
     000154BA  A$Project |    000154BB  A$Project |    000154BC  A$Project
     000154BD  A$Project |    000154BF  A$Project |    000154C0  A$Project
     000154C1  A$Project |    000154C2  A$Project |    000154C3  A$Project
     000154C4  A$Project |    000154C5  A$Project |    000154C6  A$Project
     000154C7  A$Project |    000154C7  C$Project |    000154CA  A$Project
     000154CB  A$Project |    000154CD  A$Project |    000154CE  A$Project
ASxxxx Linker V03.00 + NoICE + sdld,  page 83.
Hexadecimal  [32-Bits]

Area                       Addr        Size        Decimal Bytes (Attributes)
--------------------       ----        ----        ------- ----- ------------
_CODE_1                00014000    000032A5 =       12965. bytes (REL,CON)

        Value  Global            Value  Global            Value  Global    
        -----  ------            -----  ------            -----  ------    
     000154CF  A$Project |    000154D0  A$Project |    000154D1  A$Project
     000154D2  A$Project |    000154D3  A$Project |    000154D4  A$Project
     000154D5  A$Project |    000154D8  A$Project |    000154D9  A$Project
     000154DC  A$Project |    000154DD  A$Project |    000154DE  A$Project
     000154DF  A$Project |    000154E1  A$Project |    000154E2  A$Project
     000154E3  A$Project |    000154E4  A$Project |    000154E5  A$Project
     000154E6  A$Project |    000154E7  A$Project |    000154E8  A$Project
     000154E8  C$Project |    000154EB  A$Project |    000154EC  A$Project
     000154EE  A$Project |    000154EF  A$Project |    000154F0  A$Project
     000154F1  A$Project |    000154F2  A$Project |    000154F3  A$Project
     000154F4  A$Project |    000154F5  A$Project |    000154F6  A$Project
     000154F9  A$Project |    000154FA  A$Project |    000154FD  A$Project
     000154FE  A$Project |    000154FF  A$Project |    00015500  A$Project
     00015502  A$Project |    00015503  A$Project |    00015504  A$Project
     00015505  A$Project |    00015506  A$Project |    00015507  A$Project
     00015508  A$Project |    00015508  C$Project |    0001550B  A$Project
     0001550C  A$Project |    0001550E  A$Project |    0001550F  A$Project
     00015512  A$Project |    00015513  A$Project |    00015514  A$Project
     00015517  A$Project |    00015519  A$Project |    0001551C  A$Project
     0001551D  A$Project |    0001551F  A$Project |    0001551F  C$Project
     0001551F  XG$Weapon |    00015520  A$Project |    00015520  C$Project
     00015520  G$Project |    00015520  _Projecti |    00015522  A$Project
     00015522  C$Project |    00015525  A$Project |    00015526  A$Project
     00015528  A$Project |    00015529  A$Project |    0001552A  A$Project
     0001552B  A$Project |    0001552C  A$Project |    0001552D  A$Project
     0001552E  A$Project |    0001552F  A$Project |    00015530  A$Project
     00015533  A$Project |    00015534  A$Project |    00015535  A$Project
     00015536  A$Project |    00015539  A$Project |    0001553A  A$Project
     0001553B  A$Project |    0001553C  A$Project |    0001553F  A$Project
     0001553F  C$Project |    00015542  A$Project |    00015543  A$Project
     00015545  A$Project |    00015545  C$Project |    00015548  A$Project
     00015549  A$Project |    0001554B  A$Project |    0001554C  A$Project
     0001554D  A$Project |    0001554E  A$Project |    0001554F  A$Project
     00015550  A$Project |    00015551  A$Project |    00015552  A$Project
     00015553  A$Project |    00015556  A$Project |    00015557  A$Project
     0001555A  A$Project |    0001555B  A$Project |    0001555C  A$Project
     0001555D  A$Project |    0001555F  A$Project |    00015560  A$Project
     00015561  A$Project |    00015561  C$Project |    00015564  A$Project
     00015565  A$Project |    00015567  A$Project |    00015568  A$Project
     00015569  A$Project |    0001556A  A$Project |    0001556B  A$Project
     0001556C  A$Project |    0001556D  A$Project |    0001556E  A$Project
     0001556F  A$Project |    00015572  A$Project |    00015573  A$Project
     00015574  A$Project |    00015575  A$Project |    00015577  A$Project
     00015578  A$Project |    00015579  A$Project |    0001557A  A$Project
     0001557B  A$Project |    0001557C  A$Project |    0001557C  C$Project
     0001557F  A$Project |    00015580  A$Project |    00015582  A$Project
     00015583  A$Project |    00015584  A$Project |    00015585  A$Project
     00015586  A$Project |    00015587  A$Project |    00015588  A$Project
     00015589  A$Project |    0001558A  A$Project |    0001558D  A$Project
     0001558E  A$Project |    0001558F  A$Project |    00015590  A$Project
     00015591  A$Project |    00015592  A$Project |    00015594  A$Project
ASxxxx Linker V03.00 + NoICE + sdld,  page 84.
Hexadecimal  [32-Bits]

Area                       Addr        Size        Decimal Bytes (Attributes)
--------------------       ----        ----        ------- ----- ------------
_CODE_1                00014000    000032A5 =       12965. bytes (REL,CON)

        Value  Global            Value  Global            Value  Global    
        -----  ------            -----  ------            -----  ------    
     00015595  A$Project |    00015596  A$Project |    00015597  A$Project
     00015598  A$Project |    00015599  A$Project |    00015599  C$Project
     0001559C  A$Project |    0001559D  A$Project |    0001559F  A$Project
     000155A0  A$Project |    000155A1  A$Project |    000155A2  A$Project
     000155A3  A$Project |    000155A4  A$Project |    000155A5  A$Project
     000155A6  A$Project |    000155A7  A$Project |    000155AA  A$Project
     000155AB  A$Project |    000155AE  A$Project |    000155AF  A$Project
     000155B0  A$Project |    000155B1  A$Project |    000155B3  A$Project
     000155B4  A$Project |    000155B5  A$Project |    000155B5  C$Project
     000155B8  A$Project |    000155B9  A$Project |    000155BB  A$Project
     000155BC  A$Project |    000155BD  A$Project |    000155BE  A$Project
     000155BF  A$Project |    000155C0  A$Project |    000155C1  A$Project
     000155C2  A$Project |    000155C3  A$Project |    000155C6  A$Project
     000155C7  A$Project |    000155CA  A$Project |    000155CB  A$Project
     000155CC  A$Project |    000155CD  A$Project |    000155CF  A$Project
     000155D0  A$Project |    000155D1  A$Project |    000155D1  C$Project
     000155D4  A$Project |    000155D5  A$Project |    000155D7  A$Project
     000155D8  A$Project |    000155D9  A$Project |    000155DA  A$Project
     000155DB  A$Project |    000155DC  A$Project |    000155DD  A$Project
     000155DE  A$Project |    000155DF  A$Project |    000155E2  A$Project
     000155E3  A$Project |    000155E6  A$Project |    000155E7  A$Project
     000155E8  A$Project |    000155E9  A$Project |    000155EB  A$Project
     000155EC  A$Project |    000155ED  A$Project |    000155ED  C$Project
     000155F0  A$Project |    000155F1  A$Project |    000155F3  A$Project
     000155F4  A$Project |    000155F5  A$Project |    000155F6  A$Project
     000155F7  A$Project |    000155F8  A$Project |    000155F9  A$Project
     000155FA  A$Project |    000155FB  A$Project |    000155FE  A$Project
     000155FF  A$Project |    00015602  A$Project |    00015603  A$Project
     00015604  A$Project |    00015605  A$Project |    00015607  A$Project
     00015608  A$Project |    00015609  A$Project |    00015609  C$Project
     0001560C  A$Project |    0001560D  A$Project |    0001560F  A$Project
     00015610  A$Project |    00015611  A$Project |    00015612  A$Project
     00015613  A$Project |    00015614  A$Project |    00015615  A$Project
     00015616  A$Project |    00015617  A$Project |    0001561A  A$Project
     0001561B  A$Project |    0001561E  A$Project |    0001561F  A$Project
     00015620  A$Project |    00015621  A$Project |    00015623  A$Project
     00015624  A$Project |    00015625  A$Project |    00015625  C$Project
     00015628  A$Project |    00015629  A$Project |    0001562B  A$Project
     0001562C  A$Project |    0001562D  A$Project |    0001562E  A$Project
     0001562F  A$Project |    00015630  A$Project |    00015631  A$Project
     00015632  A$Project |    00015633  A$Project |    00015636  A$Project
     00015637  A$Project |    0001563A  A$Project |    0001563B  A$Project
     0001563C  A$Project |    0001563D  A$Project |    0001563F  A$Project
     00015640  A$Project |    00015641  A$Project |    00015641  C$Project
     00015644  A$Project |    00015645  A$Project |    00015647  A$Project
     00015648  A$Project |    00015649  A$Project |    0001564A  A$Project
     0001564B  A$Project |    0001564C  A$Project |    0001564D  A$Project
     0001564E  A$Project |    0001564F  A$Project |    00015652  A$Project
     00015653  A$Project |    00015656  A$Project |    00015657  A$Project
     00015659  A$Project |    00015659  C$Project |    0001565C  A$Project
     0001565D  A$Project |    0001565F  A$Project |    00015660  A$Project
ASxxxx Linker V03.00 + NoICE + sdld,  page 85.
Hexadecimal  [32-Bits]

Area                       Addr        Size        Decimal Bytes (Attributes)
--------------------       ----        ----        ------- ----- ------------
_CODE_1                00014000    000032A5 =       12965. bytes (REL,CON)

        Value  Global            Value  Global            Value  Global    
        -----  ------            -----  ------            -----  ------    
     00015661  A$Project |    00015662  A$Project |    00015663  A$Project
     00015664  A$Project |    00015665  A$Project |    00015666  A$Project
     00015667  A$Project |    0001566A  A$Project |    0001566B  A$Project
     0001566E  A$Project |    0001566F  A$Project |    00015671  A$Project
     00015671  C$Project |    00015674  A$Project |    00015675  A$Project
     00015677  A$Project |    00015678  A$Project |    00015679  A$Project
     0001567A  A$Project |    0001567B  A$Project |    0001567C  A$Project
     0001567D  A$Project |    0001567E  A$Project |    0001567F  A$Project
     00015682  A$Project |    00015683  A$Project |    00015686  A$Project
     00015687  A$Project |    00015689  A$Project |    00015689  C$Project
     0001568C  A$Project |    0001568D  A$Project |    0001568F  A$Project
     00015690  A$Project |    00015691  A$Project |    00015692  A$Project
     00015693  A$Project |    00015694  A$Project |    00015695  A$Project
     00015696  A$Project |    00015697  A$Project |    0001569A  A$Project
     0001569B  A$Project |    0001569E  A$Project |    0001569F  A$Project
     000156A1  A$Project |    000156A1  C$Project |    000156A4  A$Project
     000156A5  A$Project |    000156A7  A$Project |    000156A8  A$Project
     000156A9  A$Project |    000156AA  A$Project |    000156AB  A$Project
     000156AC  A$Project |    000156AD  A$Project |    000156AE  A$Project
     000156AF  A$Project |    000156B2  A$Project |    000156B3  A$Project
     000156B6  A$Project |    000156B7  A$Project |    000156B8  A$Project
     000156B9  A$Project |    000156BB  A$Project |    000156BC  A$Project
     000156BD  A$Project |    000156BD  C$Project |    000156C0  A$Project
     000156C1  A$Project |    000156C3  A$Project |    000156C4  A$Project
     000156C5  A$Project |    000156C6  A$Project |    000156C7  A$Project
     000156C8  A$Project |    000156C9  A$Project |    000156CA  A$Project
     000156CB  A$Project |    000156CE  A$Project |    000156CF  A$Project
     000156D2  A$Project |    000156D3  A$Project |    000156D4  A$Project
     000156D5  A$Project |    000156D7  A$Project |    000156D8  A$Project
     000156DA  A$Project |    000156DB  A$Project |    000156DC  A$Project
     000156DD  A$Project |    000156DE  A$Project |    000156DF  A$Project
     000156E0  A$Project |    000156E1  A$Project |    000156E4  A$Project
     000156E5  A$Project |    000156E6  A$Project |    000156E7  A$Project
     000156E8  A$Project |    000156E9  A$Project |    000156EB  A$Project
     000156EC  A$Project |    000156ED  A$Project |    000156EE  A$Project
     000156EF  A$Project |    000156F0  A$Project |    000156F1  A$Project
     000156F2  A$Project |    000156F3  A$Project |    000156F3  C$Project
     000156F6  A$Project |    000156F7  A$Project |    000156F9  A$Project
     000156FA  A$Project |    000156FB  A$Project |    000156FC  A$Project
     000156FD  A$Project |    000156FE  A$Project |    000156FF  A$Project
     00015700  A$Project |    00015701  A$Project |    00015704  A$Project
     00015705  A$Project |    00015708  A$Project |    00015709  A$Project
     0001570A  A$Project |    0001570B  A$Project |    0001570D  A$Project
     0001570E  A$Project |    0001570F  A$Project |    00015710  A$Project
     00015711  A$Project |    00015712  A$Project |    00015713  A$Project
     00015714  A$Project |    00015714  C$Project |    00015717  A$Project
     00015718  A$Project |    0001571A  A$Project |    0001571B  A$Project
     0001571C  A$Project |    0001571D  A$Project |    0001571E  A$Project
     0001571F  A$Project |    00015720  A$Project |    00015721  A$Project
     00015722  A$Project |    00015725  A$Project |    00015726  A$Project
     00015729  A$Project |    0001572A  A$Project |    0001572B  A$Project
ASxxxx Linker V03.00 + NoICE + sdld,  page 86.
Hexadecimal  [32-Bits]

Area                       Addr        Size        Decimal Bytes (Attributes)
--------------------       ----        ----        ------- ----- ------------
_CODE_1                00014000    000032A5 =       12965. bytes (REL,CON)

        Value  Global            Value  Global            Value  Global    
        -----  ------            -----  ------            -----  ------    
     0001572C  A$Project |    0001572E  A$Project |    0001572F  A$Project
     00015730  A$Project |    00015731  A$Project |    00015732  A$Project
     00015733  A$Project |    00015734  A$Project |    00015734  C$Project
     00015737  A$Project |    00015738  A$Project |    0001573A  A$Project
     0001573B  A$Project |    0001573E  A$Project |    0001573F  A$Project
     00015740  A$Project |    00015743  A$Project |    00015745  A$Project
     00015748  A$Project |    00015749  A$Project |    0001574B  A$Project
     0001574B  C$Project |    0001574B  XG$Projec |    0001574C  A$Project
     0001574C  C$Project |    0001574C  G$UpdateP |    0001574C  _UpdatePr
     0001574E  A$Project |    0001574E  C$Project |    0001574F  A$Project
     00015751  A$Project |    00015752  A$Project |    00015752  C$Project
     00015754  A$Project |    00015755  A$Project |    00015757  A$Project
     00015758  A$Project |    00015759  A$Project |    0001575A  A$Project
     0001575B  A$Project |    0001575C  A$Project |    0001575D  A$Project
     0001575E  A$Project |    0001575F  A$Project |    00015762  A$Project
     00015763  A$Project |    00015764  A$Project |    00015765  A$Project
     00015767  A$Project |    00015768  A$Project |    00015769  A$Project
     0001576A  A$Project |    0001576B  A$Project |    0001576C  A$Project
     0001576D  A$Project |    00015770  A$Project |    00015771  A$Project
     00015772  A$Project |    00015773  A$Project |    00015775  A$Project
     00015776  A$Project |    00015777  A$Project |    00015778  A$Project
     00015779  A$Project |    0001577A  A$Project |    0001577B  A$Project
     0001577C  A$Project |    0001577E  A$Project |    0001577F  A$Project
     0001577F  C$Project |    00015781  A$Project |    00015782  A$Project
     00015783  A$Project |    00015784  A$Project |    00015787  A$Project
     00015788  A$Project |    00015789  A$Project |    0001578A  A$Project
     0001578C  A$Project |    0001578D  A$Project |    0001578E  A$Project
     0001578E  C$Project |    00015790  A$Project |    00015791  A$Project
     00015792  A$Project |    00015795  A$Project |    00015795  C$Project
     00015797  A$Project |    00015799  A$Project |    00015799  C$Project
     0001579B  A$Project |    0001579C  A$Project |    0001579D  A$Project
     0001579F  A$Project |    000157A0  A$Project |    000157A1  A$Project
     000157A3  A$Project |    000157A4  A$Project |    000157A5  A$Project
     000157A6  A$Project |    000157A9  A$Project |    000157AA  A$Project
     000157AB  A$Project |    000157AC  A$Project |    000157AD  A$Project
     000157AF  A$Project |    000157B0  A$Project |    000157B1  A$Project
     000157B3  A$Project |    000157B4  A$Project |    000157B7  A$Project
     000157B9  A$Project |    000157BA  A$Project |    000157BD  A$Project
     000157BD  C$Project |    000157C0  A$Project |    000157C2  A$Project
     000157C3  A$Project |    000157C5  A$Project |    000157C6  A$Project
     000157C7  A$Project |    000157C8  A$Project |    000157C9  A$Project
     000157CB  A$Project |    000157CC  A$Project |    000157CC  C$Project
     000157CD  A$Project |    000157CF  A$Project |    000157D0  A$Project
     000157D1  A$Project |    000157D2  A$Project |    000157D3  A$Project
     000157D4  A$Project |    000157D5  A$Project |    000157D6  A$Project
     000157D7  A$Project |    000157D8  A$Project |    000157D9  A$Project
     000157DC  A$Project |    000157DD  A$Project |    000157DE  A$Project
     000157DF  A$Project |    000157E1  A$Project |    000157E2  A$Project
     000157E3  A$Project |    000157E4  A$Project |    000157E5  A$Project
     000157E6  A$Project |    000157E7  A$Project |    000157EA  A$Project
     000157EB  A$Project |    000157EC  A$Project |    000157ED  A$Project
ASxxxx Linker V03.00 + NoICE + sdld,  page 87.
Hexadecimal  [32-Bits]

Area                       Addr        Size        Decimal Bytes (Attributes)
--------------------       ----        ----        ------- ----- ------------
_CODE_1                00014000    000032A5 =       12965. bytes (REL,CON)

        Value  Global            Value  Global            Value  Global    
        -----  ------            -----  ------            -----  ------    
     000157EE  A$Project |    000157EF  A$Project |    000157F2  A$Project
     000157F4  A$Project |    000157F5  A$Project |    000157F6  A$Project
     000157F7  A$Project |    000157FA  A$Project |    000157FB  A$Project
     000157FC  A$Project |    000157FD  A$Project |    000157FF  A$Project
     00015800  A$Project |    00015801  A$Project |    00015802  A$Project
     00015803  A$Project |    00015804  A$Project |    00015805  A$Project
     00015806  A$Project |    00015807  A$Project |    0001580A  A$Project
     0001580A  C$Project |    0001580B  A$Project |    0001580C  A$Project
     0001580D  A$Project |    0001580E  A$Project |    0001580F  A$Project
     00015810  A$Project |    00015813  A$Project |    00015814  A$Project
     00015815  A$Project |    00015816  A$Project |    00015817  A$Project
     00015819  A$Project |    0001581A  A$Project |    0001581D  A$Project
     0001581D  C$Project |    0001581E  A$Project |    0001581F  A$Project
     00015820  A$Project |    00015821  A$Project |    00015822  A$Project
     00015823  A$Project |    00015825  A$Project |    00015826  A$Project
     00015827  A$Project |    00015828  A$Project |    00015829  A$Project
     0001582A  A$Project |    0001582B  A$Project |    0001582C  A$Project
     0001582F  A$Project |    00015830  A$Project |    00015831  A$Project
     00015832  A$Project |    00015834  A$Project |    00015835  A$Project
     00015836  A$Project |    00015837  A$Project |    00015838  A$Project
     00015839  A$Project |    0001583A  A$Project |    0001583B  A$Project
     0001583C  A$Project |    0001583D  A$Project |    0001583E  A$Project
     0001583F  A$Project |    00015840  A$Project |    00015841  A$Project
     00015842  A$Project |    00015844  A$Project |    00015846  A$Project
     00015848  A$Project |    0001584A  A$Project |    0001584B  A$Project
     0001584D  A$Project |    0001584F  A$Project |    00015851  A$Project
     00015852  A$Project |    00015855  A$Project |    00015855  C$Project
     00015858  A$Project |    00015859  A$Project |    0001585A  A$Project
     0001585B  A$Project |    0001585D  A$Project |    0001585E  A$Project
     0001585F  A$Project |    00015860  A$Project |    00015861  A$Project
     00015862  A$Project |    00015863  A$Project |    00015864  A$Project
     00015866  A$Project |    00015868  A$Project |    0001586A  A$Project
     0001586C  A$Project |    0001586D  A$Project |    0001586F  A$Project
     00015871  A$Project |    00015873  A$Project |    00015874  A$Project
     00015876  A$Project |    00015876  C$Project |    00015878  A$Project
     00015879  A$Project |    0001587A  A$Project |    0001587B  A$Project
     0001587C  A$Project |    0001587D  A$Project |    0001587E  A$Project
     0001587F  A$Project |    00015880  A$Project |    00015882  A$Project
     00015883  A$Project |    00015884  A$Project |    00015885  A$Project
     00015886  A$Project |    00015888  A$Project |    00015889  A$Project
     0001588A  A$Project |    0001588B  A$Project |    0001588E  A$Project
     0001588F  A$Project |    00015890  A$Project |    00015891  A$Project
     00015893  A$Project |    00015894  A$Project |    00015895  A$Project
     00015896  A$Project |    00015897  A$Project |    00015898  A$Project
     00015899  A$Project |    0001589A  A$Project |    0001589B  A$Project
     0001589C  A$Project |    0001589D  A$Project |    0001589E  A$Project
     0001589F  A$Project |    000158A0  A$Project |    000158A1  A$Project
     000158A3  A$Project |    000158A5  A$Project |    000158A7  A$Project
     000158A9  A$Project |    000158AA  A$Project |    000158AC  A$Project
     000158AE  A$Project |    000158B0  A$Project |    000158B1  A$Project
     000158B3  A$Project |    000158B3  C$Project |    000158B6  A$Project
ASxxxx Linker V03.00 + NoICE + sdld,  page 88.
Hexadecimal  [32-Bits]

Area                       Addr        Size        Decimal Bytes (Attributes)
--------------------       ----        ----        ------- ----- ------------
_CODE_1                00014000    000032A5 =       12965. bytes (REL,CON)

        Value  Global            Value  Global            Value  Global    
        -----  ------            -----  ------            -----  ------    
     000158B7  A$Project |    000158B8  A$Project |    000158B9  A$Project
     000158BB  A$Project |    000158BC  A$Project |    000158BD  A$Project
     000158BE  A$Project |    000158BF  A$Project |    000158C0  A$Project
     000158C1  A$Project |    000158C2  A$Project |    000158C4  A$Project
     000158C6  A$Project |    000158C8  A$Project |    000158CA  A$Project
     000158CB  A$Project |    000158CD  A$Project |    000158CF  A$Project
     000158D1  A$Project |    000158D2  A$Project |    000158D4  A$Project
     000158D4  C$Project |    000158D6  A$Project |    000158D7  A$Project
     000158D9  A$Project |    000158DA  A$Project |    000158DA  C$Project
     000158DC  A$Project |    000158DD  A$Project |    000158E0  A$Project
     000158E0  C$Project |    000158E2  A$Project |    000158E3  A$Project
     000158E4  A$Project |    000158E5  A$Project |    000158E8  A$Project
     000158E9  A$Project |    000158EA  A$Project |    000158EB  A$Project
     000158ED  A$Project |    000158EE  A$Project |    000158EF  A$Project
     000158EF  C$Project |    000158F1  A$Project |    000158F2  A$Project
     000158F3  A$Project |    000158F6  A$Project |    000158F6  C$Project
     000158F8  A$Project |    000158F9  A$Project |    000158FA  A$Project
     000158FB  A$Project |    000158FC  A$Project |    000158FD  A$Project
     000158FF  A$Project |    000158FF  C$Project |    00015901  A$Project
     00015902  A$Project |    00015903  A$Project |    00015904  A$Project
     00015906  A$Project |    00015908  A$Project |    00015909  A$Project
     0001590A  A$Project |    0001590B  A$Project |    0001590E  A$Project
     0001590F  A$Project |    00015910  A$Project |    00015911  A$Project
     00015912  A$Project |    00015914  A$Project |    00015915  A$Project
     00015915  C$Project |    00015917  A$Project |    00015918  A$Project
     0001591A  A$Project |    0001591B  A$Project |    0001591C  A$Project
     0001591D  A$Project |    0001591E  A$Project |    0001591F  A$Project
     00015920  A$Project |    00015921  A$Project |    00015922  A$Project
     00015923  A$Project |    00015924  A$Project |    00015924  C$Project
     00015926  A$Project |    00015927  A$Project |    00015929  A$Project
     0001592B  A$Project |    0001592B  C$Project |    0001592E  A$Project
     0001592F  A$Project |    00015932  A$Project |    00015933  A$Project
     00015934  A$Project |    00015935  A$Project |    00015936  A$Project
     00015937  A$Project |    00015939  A$Project |    00015939  C$Project
     0001593A  A$Project |    0001593B  A$Project |    0001593B  C$Project
     0001593D  A$Project |    0001593E  A$Project |    0001593F  A$Project
     00015940  A$Project |    00015941  A$Project |    00015944  A$Project
     00015946  A$Project |    00015948  A$Project |    00015948  C$Project
     0001594A  A$Project |    0001594B  A$Project |    0001594D  A$Project
     0001594F  A$Project |    0001594F  C$Project |    00015952  A$Project
     00015953  A$Project |    00015956  A$Project |    00015957  A$Project
     00015958  A$Project |    00015959  A$Project |    0001595A  A$Project
     0001595B  A$Project |    0001595D  A$Project |    0001595D  C$Project
     0001595E  A$Project |    0001595F  A$Project |    0001595F  C$Project
     00015961  A$Project |    00015962  A$Project |    00015963  A$Project
     00015964  A$Project |    00015965  A$Project |    00015968  A$Project
     0001596A  A$Project |    0001596C  A$Project |    0001596C  C$Project
     0001596E  A$Project |    0001596F  A$Project |    00015971  A$Project
     00015973  A$Project |    00015973  C$Project |    00015976  A$Project
     00015977  A$Project |    0001597A  A$Project |    0001597B  A$Project
     0001597C  A$Project |    0001597D  A$Project |    0001597E  A$Project
ASxxxx Linker V03.00 + NoICE + sdld,  page 89.
Hexadecimal  [32-Bits]

Area                       Addr        Size        Decimal Bytes (Attributes)
--------------------       ----        ----        ------- ----- ------------
_CODE_1                00014000    000032A5 =       12965. bytes (REL,CON)

        Value  Global            Value  Global            Value  Global    
        -----  ------            -----  ------            -----  ------    
     0001597F  A$Project |    00015981  A$Project |    00015981  C$Project
     00015982  A$Project |    00015983  A$Project |    00015983  C$Project
     00015985  A$Project |    00015986  A$Project |    00015987  A$Project
     00015988  A$Project |    00015989  A$Project |    0001598C  A$Project
     0001598E  A$Project |    0001598E  C$Project |    00015990  A$Project
     00015991  A$Project |    00015992  A$Project |    00015993  A$Project
     00015994  A$Project |    00015996  A$Project |    00015997  A$Project
     00015997  C$Project |    00015998  A$Project |    0001599A  A$Project
     0001599B  A$Project |    0001599B  C$Project |    0001599C  A$Project
     0001599D  A$Project |    0001599E  A$Project |    000159A0  A$Project
     000159A1  A$Project |    000159A2  A$Project |    000159A3  A$Project
     000159A6  A$Project |    000159A7  A$Project |    000159A8  A$Project
     000159A9  A$Project |    000159AB  A$Project |    000159AC  A$Project
     000159AD  A$Project |    000159AE  A$Project |    000159AF  A$Project
     000159B0  A$Project |    000159B1  A$Project |    000159B2  A$Project
     000159B3  A$Project |    000159B3  C$Project |    000159B5  A$Project
     000159B6  A$Project |    000159B7  A$Project |    000159B8  A$Project
     000159BB  A$Project |    000159BC  A$Project |    000159BD  A$Project
     000159BE  A$Project |    000159C0  A$Project |    000159C1  A$Project
     000159C2  A$Project |    000159C2  C$Project |    000159C3  A$Project
     000159C5  A$Project |    000159C7  A$Project |    000159C7  C$Project
     000159C9  A$Project |    000159CA  A$Project |    000159CB  A$Project
     000159CC  A$Project |    000159CD  A$Project |    000159CE  A$Project
     000159CF  A$Project |    000159D0  A$Project |    000159D1  A$Project
     000159D2  A$Project |    000159D3  A$Project |    000159D4  A$Project
     000159D5  A$Project |    000159D6  A$Project |    000159D7  A$Project
     000159D7  C$Project |    000159D9  A$Project |    000159DA  A$Project
     000159DB  A$Project |    000159DC  A$Project |    000159DD  A$Project
     000159DE  A$Project |    000159E0  A$Project |    000159E1  A$Project
     000159E2  A$Project |    000159E3  A$Project |    000159E6  A$Project
     000159E7  A$Project |    000159E8  A$Project |    000159E9  A$Project
     000159EA  A$Project |    000159EB  A$Project |    000159ED  A$Project
     000159ED  C$Project |    000159EF  A$Project |    000159F0  A$Project
     000159F1  A$Project |    000159F2  A$Project |    000159F3  A$Project
     000159F4  A$Project |    000159F6  A$Project |    000159F6  C$Project
     000159F8  A$Project |    000159F9  A$Project |    000159FA  A$Project
     000159FB  A$Project |    000159FD  A$Project |    000159FF  A$Project
     000159FF  C$Project |    00015A01  A$Project |    00015A02  A$Project
     00015A03  A$Project |    00015A04  A$Project |    00015A06  A$Project
     00015A06  C$Project |    00015A08  A$Project |    00015A09  A$Project
     00015A0A  A$Project |    00015A0B  A$Project |    00015A0C  A$Project
     00015A0D  A$Project |    00015A0E  A$Project |    00015A0F  A$Project
     00015A10  A$Project |    00015A11  A$Project |    00015A12  A$Project
     00015A13  A$Project |    00015A13  C$Project |    00015A15  A$Project
     00015A16  A$Project |    00015A17  A$Project |    00015A18  A$Project
     00015A1B  A$Project |    00015A1C  A$Project |    00015A1D  A$Project
     00015A1E  A$Project |    00015A1F  A$Project |    00015A21  A$Project
     00015A23  A$Project |    00015A24  A$Project |    00015A25  A$Project
     00015A26  A$Project |    00015A29  A$Project |    00015A2A  A$Project
     00015A2B  A$Project |    00015A2C  A$Project |    00015A2E  A$Project
     00015A2F  A$Project |    00015A30  A$Project |    00015A32  A$Project
ASxxxx Linker V03.00 + NoICE + sdld,  page 90.
Hexadecimal  [32-Bits]

Area                       Addr        Size        Decimal Bytes (Attributes)
--------------------       ----        ----        ------- ----- ------------
_CODE_1                00014000    000032A5 =       12965. bytes (REL,CON)

        Value  Global            Value  Global            Value  Global    
        -----  ------            -----  ------            -----  ------    
     00015A33  A$Project |    00015A34  A$Project |    00015A35  A$Project
     00015A38  A$Project |    00015A39  A$Project |    00015A3A  A$Project
     00015A3C  A$Project |    00015A3D  A$Project |    00015A3E  A$Project
     00015A40  A$Project |    00015A42  A$Project |    00015A44  A$Project
     00015A45  A$Project |    00015A45  C$Project |    00015A47  A$Project
     00015A48  A$Project |    00015A49  A$Project |    00015A4A  A$Project
     00015A4B  A$Project |    00015A4C  A$Project |    00015A4D  A$Project
     00015A4E  A$Project |    00015A4E  C$Project |    00015A4F  A$Project
     00015A4F  C$Project |    00015A50  A$Project |    00015A52  A$Project
     00015A54  A$Project |    00015A54  C$Project |    00015A55  A$Project
     00015A56  A$Project |    00015A58  A$Project |    00015A59  A$Project
     00015A5B  A$Project |    00015A5B  C$Project |    00015A5C  A$Project
     00015A5D  A$Project |    00015A5F  A$Project |    00015A60  A$Project
     00015A62  A$Project |    00015A62  C$Project |    00015A63  A$Project
     00015A64  A$Project |    00015A66  A$Project |    00015A68  A$Project
     00015A69  A$Project |    00015A69  C$Project |    00015A6A  A$Project
     00015A6B  A$Project |    00015A6D  A$Project |    00015A6D  C$Project
     00015A6F  A$Project |    00015A71  A$Project |    00015A71  C$Project
     00015A73  A$Project |    00015A74  A$Project |    00015A75  A$Project
     00015A76  A$Project |    00015A79  A$Project |    00015A7A  A$Project
     00015A7B  A$Project |    00015A7D  A$Project |    00015A7E  A$Project
     00015A7F  A$Project |    00015A80  A$Project |    00015A81  A$Project
     00015A82  A$Project |    00015A84  A$Project |    00015A85  A$Project
     00015A86  A$Project |    00015A87  A$Project |    00015A88  A$Project
     00015A88  C$Project |    00015A89  A$Project |    00015A8A  A$Project
     00015A8B  A$Project |    00015A8D  A$Project |    00015A8D  C$gb.h$63
     00015A8F  A$Project |    00015A90  A$Project |    00015A92  A$Project
     00015A94  A$Project |    00015A96  A$Project |    00015A98  A$Project
     00015A9A  A$Project |    00015A9D  A$Project |    00015A9E  A$Project
     00015AA0  A$Project |    00015AA0  C$Project |    00015AA2  A$Project
     00015AA3  A$Project |    00015AA4  A$Project |    00015AA5  A$Project
     00015AA6  A$Project |    00015AA7  A$Project |    00015AA8  A$Project
     00015AA8  C$gb.h$63 |    00015AAA  A$Project |    00015AAB  A$Project
     00015AAC  A$Project |    00015AAD  A$Project |    00015AAF  A$Project
     00015AB0  A$Project |    00015AB1  A$Project |    00015AB3  A$Project
     00015AB4  A$Project |    00015AB5  A$Project |    00015AB6  A$Project
     00015AB7  A$Project |    00015AB8  A$Project |    00015ABA  A$Project
     00015ABA  C$Project |    00015ABB  A$Project |    00015ABD  A$Project
     00015ABE  A$Project |    00015ABE  C$gb.h$61 |    00015AC1  A$Project
     00015AC2  A$Project |    00015AC3  A$Project |    00015AC3  C$Project
     00015AC5  A$Project |    00015AC6  A$Project |    00015AC6  C$gb.h$61
     00015AC8  A$Project |    00015AC9  A$Project |    00015ACA  A$Project
     00015ACB  A$Project |    00015ACE  A$Project |    00015ACF  A$Project
     00015AD0  A$Project |    00015AD1  A$Project |    00015AD2  A$Project
     00015AD2  C$Project |    00015AD4  A$Project |    00015AD4  C$gb.h$63
     00015AD6  A$Project |    00015AD7  A$Project |    00015AD9  A$Project
     00015ADB  A$Project |    00015ADD  A$Project |    00015ADF  A$Project
     00015AE1  A$Project |    00015AE4  A$Project |    00015AE5  A$Project
     00015AE7  A$Project |    00015AE7  C$Project |    00015AE9  A$Project
     00015AEA  A$Project |    00015AEB  A$Project |    00015AEC  A$Project
     00015AED  A$Project |    00015AEE  A$Project |    00015AEF  A$Project
ASxxxx Linker V03.00 + NoICE + sdld,  page 91.
Hexadecimal  [32-Bits]

Area                       Addr        Size        Decimal Bytes (Attributes)
--------------------       ----        ----        ------- ----- ------------
_CODE_1                00014000    000032A5 =       12965. bytes (REL,CON)

        Value  Global            Value  Global            Value  Global    
        -----  ------            -----  ------            -----  ------    
     00015AEF  C$gb.h$63 |    00015AF1  A$Project |    00015AF2  A$Project
     00015AF3  A$Project |    00015AF4  A$Project |    00015AF6  A$Project
     00015AF7  A$Project |    00015AF8  A$Project |    00015AFA  A$Project
     00015AFB  A$Project |    00015AFC  A$Project |    00015AFD  A$Project
     00015AFE  A$Project |    00015AFF  A$Project |    00015B01  A$Project
     00015B01  C$gb.h$61 |    00015B04  A$Project |    00015B05  A$Project
     00015B06  A$Project |    00015B06  C$Project |    00015B07  A$Project
     00015B08  A$Project |    00015B0A  A$Project |    00015B0A  C$gb.h$61
     00015B0B  A$Project |    00015B0E  A$Project |    00015B10  A$Project
     00015B11  A$Project |    00015B12  A$Project |    00015B13  A$Project
     00015B14  A$Project |    00015B15  A$Project |    00015B16  A$Project
     00015B16  C$Project |    00015B16  C$Project |    00015B18  A$Project
     00015B19  A$Project |    00015B1A  A$Project |    00015B1B  A$Project
     00015B1C  A$Project |    00015B1D  A$Project |    00015B1E  A$Project
     00015B1F  A$Project |    00015B20  A$Project |    00015B23  A$Project
     00015B24  A$Project |    00015B25  A$Project |    00015B26  A$Project
     00015B29  A$Project |    00015B2A  A$Project |    00015B2B  A$Project
     00015B2C  A$Project |    00015B2D  A$Project |    00015B2E  A$Project
     00015B2F  A$Project |    00015B30  A$Project |    00015B31  A$Project
     00015B32  A$Project |    00015B33  A$Project |    00015B35  A$Project
     00015B36  A$Project |    00015B37  A$Project |    00015B38  A$Project
     00015B38  C$Project |    00015B3A  A$Project |    00015B3B  A$Project
     00015B3C  A$Project |    00015B3D  A$Project |    00015B40  A$Project
     00015B41  A$Project |    00015B42  A$Project |    00015B43  A$Project
     00015B45  A$Project |    00015B46  A$Project |    00015B47  A$Project
     00015B48  A$Project |    00015B49  A$Project |    00015B4A  A$Project
     00015B4B  A$Project |    00015B4C  A$Project |    00015B4D  A$Project
     00015B4E  A$Project |    00015B4F  A$Project |    00015B50  A$Project
     00015B53  A$Project |    00015B54  A$Project |    00015B55  A$Project
     00015B56  A$Project |    00015B59  A$Project |    00015B5A  A$Project
     00015B5B  A$Project |    00015B5C  A$Project |    00015B5D  A$Project
     00015B5E  A$Project |    00015B5F  A$Project |    00015B60  A$Project
     00015B61  A$Project |    00015B62  A$Project |    00015B63  A$Project
     00015B65  A$Project |    00015B66  A$Project |    00015B67  A$Project
     00015B67  C$Project |    00015B68  A$Project |    00015B69  A$Project
     00015B6A  A$Project |    00015B6C  A$Project |    00015B6D  A$Project
     00015B6D  C$gb.h$65 |    00015B6F  A$Project |    00015B70  A$Project
     00015B72  A$Project |    00015B73  A$Project |    00015B74  A$Project
     00015B75  A$Project |    00015B76  A$Project |    00015B79  A$Project
     00015B7A  A$Project |    00015B7A  C$gb.h$65 |    00015B7B  A$Project
     00015B7C  A$Project |    00015B7D  A$Project |    00015B7D  C$Project
     00015B7F  A$Project |    00015B80  A$Project |    00015B82  A$Project
     00015B83  A$Project |    00015B85  A$Project |    00015B86  A$Project
     00015B88  A$Project |    00015B89  A$Project |    00015B8A  A$Project
     00015B8A  C$gb.h$65 |    00015B8C  A$Project |    00015B8D  A$Project
     00015B8E  A$Project |    00015B8F  A$Project |    00015B90  A$Project
     00015B93  A$Project |    00015B94  A$Project |    00015B94  C$gb.h$65
     00015B95  A$Project |    00015B96  A$Project |    00015B97  A$Project
     00015B9A  A$Project |    00015B9B  A$Project |    00015B9B  C$Project
     00015B9D  A$Project |    00015B9E  A$Project |    00015B9F  A$Project
     00015BA0  A$Project |    00015BA3  A$Project |    00015BA4  A$Project
ASxxxx Linker V03.00 + NoICE + sdld,  page 92.
Hexadecimal  [32-Bits]

Area                       Addr        Size        Decimal Bytes (Attributes)
--------------------       ----        ----        ------- ----- ------------
_CODE_1                00014000    000032A5 =       12965. bytes (REL,CON)

        Value  Global            Value  Global            Value  Global    
        -----  ------            -----  ------            -----  ------    
     00015BA5  A$Project |    00015BA6  A$Project |    00015BA8  A$Project
     00015BA9  A$Project |    00015BAA  A$Project |    00015BAA  C$Project
     00015BAB  A$Project |    00015BAD  A$Project |    00015BAF  A$Project
     00015BAF  C$Project |    00015BB1  A$Project |    00015BB2  A$Project
     00015BB3  A$Project |    00015BB4  A$Project |    00015BB7  A$Project
     00015BB8  A$Project |    00015BB9  A$Project |    00015BBA  A$Project
     00015BBC  A$Project |    00015BBD  A$Project |    00015BBE  A$Project
     00015BBF  A$Project |    00015BC0  A$Project |    00015BC2  A$Project
     00015BC3  A$Project |    00015BC4  A$Project |    00015BC6  A$Project
     00015BC8  A$Project |    00015BC8  C$Project |    00015BCA  A$Project
     00015BCB  A$Project |    00015BCC  A$Project |    00015BCD  A$Project
     00015BD0  A$Project |    00015BD1  A$Project |    00015BD2  A$Project
     00015BD3  A$Project |    00015BD4  A$Project |    00015BD6  A$Project
     00015BD7  A$Project |    00015BD9  A$Project |    00015BDB  A$Project
     00015BDB  C$Project |    00015BDD  A$Project |    00015BDE  A$Project
     00015BDF  A$Project |    00015BE0  A$Project |    00015BE2  A$Project
     00015BE4  A$Project |    00015BE4  C$Project |    00015BE6  A$Project
     00015BE7  A$Project |    00015BE8  A$Project |    00015BE9  A$Project
     00015BEA  A$Project |    00015BEB  A$Project |    00015BEC  A$Project
     00015BED  A$Project |    00015BEE  A$Project |    00015BEF  A$Project
     00015BF0  A$Project |    00015BF1  A$Project |    00015BF3  A$Project
     00015BF4  A$Project |    00015BF5  A$Project |    00015BF6  A$Project
     00015BF9  A$Project |    00015BFA  A$Project |    00015BFB  A$Project
     00015BFC  A$Project |    00015BFE  A$Project |    00015BFF  A$Project
     00015C00  A$Project |    00015C01  A$Project |    00015C02  A$Project
     00015C03  A$Project |    00015C04  A$Project |    00015C05  A$Project
     00015C07  A$Project |    00015C08  A$Project |    00015C08  C$Project
     00015C0A  A$Project |    00015C0B  A$Project |    00015C0C  A$Project
     00015C0D  A$Project |    00015C10  A$Project |    00015C11  A$Project
     00015C12  A$Project |    00015C13  A$Project |    00015C14  A$Project
     00015C16  A$Project |    00015C17  A$Project |    00015C18  A$Project
     00015C19  A$Project |    00015C1C  A$Project |    00015C1D  A$Project
     00015C1E  A$Project |    00015C1F  A$Project |    00015C21  A$Project
     00015C22  A$Project |    00015C23  A$Project |    00015C23  C$Project
     00015C25  A$Project |    00015C26  A$Project |    00015C27  A$Project
     00015C2A  A$Project |    00015C2A  C$Project |    00015C2C  A$Project
     00015C2D  A$Project |    00015C2E  A$Project |    00015C2F  A$Project
     00015C32  A$Project |    00015C33  A$Project |    00015C34  A$Project
     00015C35  A$Project |    00015C37  A$Project |    00015C38  A$Project
     00015C39  A$Project |    00015C3A  A$Project |    00015C3B  A$Project
     00015C3C  A$Project |    00015C3D  A$Project |    00015C3E  A$Project
     00015C40  A$Project |    00015C41  A$Project |    00015C42  A$Project
     00015C43  A$Project |    00015C46  A$Project |    00015C46  C$Project
     00015C48  A$Project |    00015C49  A$Project |    00015C4A  A$Project
     00015C4B  A$Project |    00015C4E  A$Project |    00015C4F  A$Project
     00015C50  A$Project |    00015C51  A$Project |    00015C53  A$Project
     00015C54  A$Project |    00015C55  A$Project |    00015C56  A$Project
     00015C57  A$Project |    00015C58  A$Project |    00015C59  A$Project
     00015C5A  A$Project |    00015C5C  A$Project |    00015C5D  A$Project
     00015C5E  A$Project |    00015C5F  A$Project |    00015C61  A$Project
     00015C61  C$Project |    00015C64  A$Project |    00015C65  A$Project
ASxxxx Linker V03.00 + NoICE + sdld,  page 93.
Hexadecimal  [32-Bits]

Area                       Addr        Size        Decimal Bytes (Attributes)
--------------------       ----        ----        ------- ----- ------------
_CODE_1                00014000    000032A5 =       12965. bytes (REL,CON)

        Value  Global            Value  Global            Value  Global    
        -----  ------            -----  ------            -----  ------    
     00015C68  A$Project |    00015C68  C$Project |    00015C6A  A$Project
     00015C6B  A$Project |    00015C6C  A$Project |    00015C6D  A$Project
     00015C6E  A$Project |    00015C6F  A$Project |    00015C70  A$Project
     00015C71  A$Project |    00015C72  A$Project |    00015C73  A$Project
     00015C74  A$Project |    00015C75  A$Project |    00015C76  A$Project
     00015C77  A$Project |    00015C78  A$Project |    00015C79  A$Project
     00015C7A  A$Project |    00015C7B  A$Project |    00015C7C  A$Project
     00015C7E  A$Project |    00015C7F  A$Project |    00015C80  A$Project
     00015C81  A$Project |    00015C82  A$Project |    00015C83  A$Project
     00015C84  A$Project |    00015C84  C$Project |    00015C86  A$Project
     00015C87  A$Project |    00015C88  A$Project |    00015C89  A$Project
     00015C8A  A$Project |    00015C8B  A$Project |    00015C8C  A$Project
     00015C8D  A$Project |    00015C8E  A$Project |    00015C90  A$Project
     00015C91  A$Project |    00015C92  A$Project |    00015C93  A$Project
     00015C94  A$Project |    00015C95  A$Project |    00015C96  A$Project
     00015C97  A$Project |    00015C98  A$Project |    00015C99  A$Project
     00015C9A  A$Project |    00015C9B  A$Project |    00015C9D  A$Project
     00015C9E  A$Project |    00015C9F  A$Project |    00015CA0  A$Project
     00015CA1  A$Project |    00015CA2  A$Project |    00015CA3  A$Project
     00015CA6  A$Project |    00015CA6  C$Project |    00015CA8  A$Project
     00015CA9  A$Project |    00015CAA  A$Project |    00015CAB  A$Project
     00015CAC  A$Project |    00015CAD  A$Project |    00015CAE  A$Project
     00015CAF  A$Project |    00015CB0  A$Project |    00015CB1  A$Project
     00015CB2  A$Project |    00015CB3  A$Project |    00015CB4  A$Project
     00015CB6  A$Project |    00015CB7  A$Project |    00015CB8  A$Project
     00015CB9  A$Project |    00015CBA  A$Project |    00015CBB  A$Project
     00015CBE  A$Project |    00015CC0  A$Project |    00015CC1  A$Project
     00015CC2  A$Project |    00015CC3  A$Project |    00015CC4  A$Project
     00015CC5  A$Project |    00015CC6  A$Project |    00015CC7  A$Project
     00015CC9  A$Project |    00015CCA  A$Project |    00015CCB  A$Project
     00015CCC  A$Project |    00015CCD  A$Project |    00015CCE  A$Project
     00015CCF  A$Project |    00015CCF  C$Project |    00015CD1  A$Project
     00015CD2  A$Project |    00015CD3  A$Project |    00015CD4  A$Project
     00015CD5  A$Project |    00015CD6  A$Project |    00015CD7  A$Project
     00015CD8  A$Project |    00015CD9  A$Project |    00015CDB  A$Project
     00015CDC  A$Project |    00015CDD  A$Project |    00015CDE  A$Project
     00015CDF  A$Project |    00015CE1  A$Project |    00015CE2  A$Project
     00015CE3  A$Project |    00015CE4  A$Project |    00015CE5  A$Project
     00015CE6  A$Project |    00015CE7  A$Project |    00015CE8  A$Project
     00015CE9  A$Project |    00015CEA  A$Project |    00015CEB  A$Project
     00015CEC  A$Project |    00015CED  A$Project |    00015CF0  A$Project
     00015CF2  A$Project |    00015CF3  A$Project |    00015CF4  A$Project
     00015CF5  A$Project |    00015CF6  A$Project |    00015CF7  A$Project
     00015CF8  A$Project |    00015CF9  A$Project |    00015CFB  A$Project
     00015CFC  A$Project |    00015CFD  A$Project |    00015CFE  A$Project
     00015CFF  A$Project |    00015D00  A$Project |    00015D01  A$Project
     00015D04  A$Project |    00015D04  C$Project |    00015D06  A$Project
     00015D07  A$Project |    00015D09  A$Project |    00015D0A  A$Project
     00015D0B  A$Project |    00015D0C  A$Project |    00015D0D  A$Project
     00015D0E  A$Project |    00015D0F  A$Project |    00015D10  A$Project
     00015D11  A$Project |    00015D12  A$Project |    00015D13  A$Project
ASxxxx Linker V03.00 + NoICE + sdld,  page 94.
Hexadecimal  [32-Bits]

Area                       Addr        Size        Decimal Bytes (Attributes)
--------------------       ----        ----        ------- ----- ------------
_CODE_1                00014000    000032A5 =       12965. bytes (REL,CON)

        Value  Global            Value  Global            Value  Global    
        -----  ------            -----  ------            -----  ------    
     00015D16  A$Project |    00015D17  A$Project |    00015D18  A$Project
     00015D19  A$Project |    00015D1B  A$Project |    00015D1C  A$Project
     00015D1D  A$Project |    00015D1E  A$Project |    00015D1F  A$Project
     00015D20  A$Project |    00015D21  A$Project |    00015D24  A$Project
     00015D25  A$Project |    00015D26  A$Project |    00015D27  A$Project
     00015D28  A$Project |    00015D29  A$Project |    00015D2A  A$Project
     00015D2B  A$Project |    00015D2C  A$Project |    00015D2E  A$Project
     00015D2E  C$Project |    00015D30  A$Project |    00015D31  A$Project
     00015D32  A$Project |    00015D33  A$Project |    00015D36  A$Project
     00015D37  A$Project |    00015D38  A$Project |    00015D39  A$Project
     00015D3A  A$Project |    00015D3C  A$Project |    00015D3D  A$Project
     00015D3F  A$Project |    00015D40  A$Project |    00015D41  A$Project
     00015D42  A$Project |    00015D43  A$Project |    00015D44  A$Project
     00015D46  A$Project |    00015D47  A$Project |    00015D48  A$Project
     00015D4A  A$Project |    00015D4A  C$Project |    00015D4C  A$Project
     00015D4D  A$Project |    00015D4E  A$Project |    00015D4F  A$Project
     00015D51  A$Project |    00015D54  A$Project |    00015D54  C$Project
     00015D56  A$Project |    00015D57  A$Project |    00015D58  A$Project
     00015D59  A$Project |    00015D5A  A$Project |    00015D5B  A$Project
     00015D5C  A$Project |    00015D5D  A$Project |    00015D5E  A$Project
     00015D5F  A$Project |    00015D5F  C$Project |    00015D61  A$Project
     00015D62  A$Project |    00015D63  A$Project |    00015D66  A$Project
     00015D66  C$Project |    00015D67  A$Project |    00015D69  A$Project
     00015D6A  A$Project |    00015D6B  A$Project |    00015D6C  A$Project
     00015D6D  A$Project |    00015D6E  A$Project |    00015D6F  A$Project
     00015D70  A$Project |    00015D71  A$Project |    00015D72  A$Project
     00015D73  A$Project |    00015D74  A$Project |    00015D75  A$Project
     00015D76  A$Project |    00015D77  A$Project |    00015D78  A$Project
     00015D79  A$Project |    00015D7B  A$Project |    00015D7C  A$Project
     00015D7D  A$Project |    00015D7E  A$Project |    00015D7F  A$Project
     00015D80  A$Project |    00015D81  A$Project |    00015D83  A$Project
     00015D84  A$Project |    00015D85  A$Project |    00015D86  A$Project
     00015D87  A$Project |    00015D88  A$Project |    00015D89  A$Project
     00015D8B  A$Project |    00015D8C  A$Project |    00015D8D  A$Project
     00015D8E  A$Project |    00015D8F  A$Project |    00015D90  A$Project
     00015D91  A$Project |    00015D92  A$Project |    00015D93  A$Project
     00015D94  A$Project |    00015D95  A$Project |    00015D96  A$Project
     00015D97  A$Project |    00015D98  A$Project |    00015D98  C$Project
     00015D99  A$Project |    00015D9A  A$Project |    00015D9B  A$Project
     00015D9C  A$Project |    00015D9D  A$Project |    00015D9E  A$Project
     00015D9F  A$Project |    00015DA0  A$Project |    00015DA2  A$Project
     00015DA3  A$Project |    00015DA4  A$Project |    00015DA5  A$Project
     00015DA6  A$Project |    00015DA7  A$Project |    00015DA8  A$Project
     00015DA9  A$Project |    00015DAA  A$Project |    00015DAB  A$Project
     00015DAC  A$Project |    00015DAD  A$Project |    00015DAE  A$Project
     00015DB0  A$Project |    00015DB1  A$Project |    00015DB2  A$Project
     00015DB3  A$Project |    00015DB4  A$Project |    00015DB5  A$Project
     00015DB6  A$Project |    00015DB9  A$Project |    00015DBA  A$Project
     00015DBB  A$Project |    00015DBC  A$Project |    00015DBE  A$Project
     00015DBF  A$Project |    00015DC0  A$Project |    00015DC1  A$Project
     00015DC2  A$Project |    00015DC3  A$Project |    00015DC4  A$Project
ASxxxx Linker V03.00 + NoICE + sdld,  page 95.
Hexadecimal  [32-Bits]

Area                       Addr        Size        Decimal Bytes (Attributes)
--------------------       ----        ----        ------- ----- ------------
_CODE_1                00014000    000032A5 =       12965. bytes (REL,CON)

        Value  Global            Value  Global            Value  Global    
        -----  ------            -----  ------            -----  ------    
     00015DC7  A$Project |    00015DC8  A$Project |    00015DC9  A$Project
     00015DCA  A$Project |    00015DCC  A$Project |    00015DCD  A$Project
     00015DCE  A$Project |    00015DCF  A$Project |    00015DD0  A$Project
     00015DD1  A$Project |    00015DD2  A$Project |    00015DD3  A$Project
     00015DD4  A$Project |    00015DD5  A$Project |    00015DD6  A$Project
     00015DD7  A$Project |    00015DD8  A$Project |    00015DD9  A$Project
     00015DDA  A$Project |    00015DDB  A$Project |    00015DDD  A$Project
     00015DDE  A$Project |    00015DDF  A$Project |    00015DE0  A$Project
     00015DE1  A$Project |    00015DE2  A$Project |    00015DE3  A$Project
     00015DE6  A$Project |    00015DE6  C$Project |    00015DE7  A$Project
     00015DE8  A$Project |    00015DE9  A$Project |    00015DEA  A$Project
     00015DEC  A$Project |    00015DED  A$Project |    00015DEE  A$Project
     00015DEF  A$Project |    00015DF0  A$Project |    00015DF1  A$Project
     00015DF2  A$Project |    00015DF2  C$Project |    00015DF4  A$Project
     00015DF5  A$Project |    00015DF6  A$Project |    00015DF7  A$Project
     00015DF8  A$Project |    00015DF9  A$Project |    00015DFB  A$Project
     00015DFC  A$Project |    00015DFD  A$Project |    00015DFE  A$Project
     00015DFF  A$Project |    00015E00  A$Project |    00015E01  A$Project
     00015E02  A$Project |    00015E03  A$Project |    00015E04  A$Project
     00015E05  A$Project |    00015E08  A$Project |    00015E09  A$Project
     00015E0A  A$Project |    00015E0B  A$Project |    00015E0D  A$Project
     00015E0E  A$Project |    00015E0F  A$Project |    00015E10  A$Project
     00015E11  A$Project |    00015E12  A$Project |    00015E13  A$Project
     00015E16  A$Project |    00015E17  A$Project |    00015E18  A$Project
     00015E19  A$Project |    00015E1B  A$Project |    00015E1C  A$Project
     00015E1D  A$Project |    00015E1E  A$Project |    00015E1F  A$Project
     00015E20  A$Project |    00015E21  A$Project |    00015E22  A$Project
     00015E24  A$Project |    00015E25  A$Project |    00015E26  A$Project
     00015E27  A$Project |    00015E27  C$Project |    00015E28  A$Project
     00015E29  A$Project |    00015E2A  A$Project |    00015E2B  A$Project
     00015E2E  A$Project |    00015E2F  A$Project |    00015E30  A$Project
     00015E31  A$Project |    00015E33  A$Project |    00015E34  A$Project
     00015E35  A$Project |    00015E36  A$Project |    00015E37  A$Project
     00015E38  A$Project |    00015E39  A$Project |    00015E3A  A$Project
     00015E3C  A$Project |    00015E3D  A$Project |    00015E3E  A$Project
     00015E40  A$Project |    00015E41  A$Project |    00015E42  A$Project
     00015E43  A$Project |    00015E44  A$Project |    00015E45  A$Project
     00015E46  A$Project |    00015E47  A$Project |    00015E48  A$Project
     00015E49  A$Project |    00015E4A  A$Project |    00015E4B  A$Project
     00015E4C  A$Project |    00015E4D  A$Project |    00015E4E  A$Project
     00015E4F  A$Project |    00015E50  A$Project |    00015E52  A$Project
     00015E53  A$Project |    00015E54  A$Project |    00015E55  A$Project
     00015E56  A$Project |    00015E57  A$Project |    00015E58  A$Project
     00015E5A  A$Project |    00015E5B  A$Project |    00015E5C  A$Project
     00015E5D  A$Project |    00015E5E  A$Project |    00015E5F  A$Project
     00015E60  A$Project |    00015E62  A$Project |    00015E63  A$Project
     00015E64  A$Project |    00015E65  A$Project |    00015E66  A$Project
     00015E67  A$Project |    00015E68  A$Project |    00015E6A  A$Project
     00015E6B  A$Project |    00015E6C  A$Project |    00015E6D  A$Project
     00015E6E  A$Project |    00015E6F  A$Project |    00015E70  A$Project
     00015E70  C$Project |    00015E72  A$Project |    00015E73  A$Project
ASxxxx Linker V03.00 + NoICE + sdld,  page 96.
Hexadecimal  [32-Bits]

Area                       Addr        Size        Decimal Bytes (Attributes)
--------------------       ----        ----        ------- ----- ------------
_CODE_1                00014000    000032A5 =       12965. bytes (REL,CON)

        Value  Global            Value  Global            Value  Global    
        -----  ------            -----  ------            -----  ------    
     00015E74  A$Project |    00015E75  A$Project |    00015E76  A$Project
     00015E77  A$Project |    00015E78  A$Project |    00015E79  A$Project
     00015E7A  A$Project |    00015E7B  A$Project |    00015E7C  A$Project
     00015E7D  A$Project |    00015E7F  A$Project |    00015E7F  C$Project
     00015E81  A$Project |    00015E82  A$Project |    00015E83  A$Project
     00015E84  A$Project |    00015E85  A$Project |    00015E87  A$Project
     00015E88  A$Project |    00015E88  C$gb.h$65 |    00015E89  A$Project
     00015E8B  A$Project |    00015E8C  A$Project |    00015E8D  A$Project
     00015E8E  A$Project |    00015E8F  A$Project |    00015E90  A$Project
     00015E91  A$Project |    00015E92  A$Project |    00015E94  A$Project
     00015E95  A$Project |    00015E96  A$Project |    00015E97  A$Project
     00015E99  A$Project |    00015E9A  A$Project |    00015E9C  A$Project
     00015E9D  A$Project |    00015E9F  A$Project |    00015EA0  A$Project
     00015EA2  A$Project |    00015EA5  A$Project |    00015EA6  A$Project
     00015EA7  A$Project |    00015EA8  A$Project |    00015EA9  A$Project
     00015EAA  A$Project |    00015EAB  A$Project |    00015EAC  A$Project
     00015EAE  A$Project |    00015EAF  A$Project |    00015EAF  C$gb.h$65
     00015EB0  A$Project |    00015EB1  A$Project |    00015EB2  A$Project
     00015EB3  A$Project |    00015EB4  A$Project |    00015EB6  A$Project
     00015EB8  A$Project |    00015EB9  A$Project |    00015EBA  A$Project
     00015EBB  A$Project |    00015EBC  A$Project |    00015EBE  A$Project
     00015EBE  C$Project |    00015EC0  A$Project |    00015EC1  A$Project
     00015EC1  C$gb.h$65 |    00015EC2  A$Project |    00015EC4  A$Project
     00015EC5  A$Project |    00015EC6  A$Project |    00015EC7  A$Project
     00015EC8  A$Project |    00015EC9  A$Project |    00015ECA  A$Project
     00015ECB  A$Project |    00015ECC  A$Project |    00015ECE  A$Project
     00015ECF  A$Project |    00015ED1  A$Project |    00015ED2  A$Project
     00015ED4  A$Project |    00015ED5  A$Project |    00015ED7  A$Project
     00015EDA  A$Project |    00015EDB  A$Project |    00015EDC  A$Project
     00015EDD  A$Project |    00015EDE  A$Project |    00015EDF  A$Project
     00015EE0  A$Project |    00015EE1  A$Project |    00015EE3  A$Project
     00015EE4  A$Project |    00015EE5  A$Project |    00015EE6  A$Project
     00015EE7  A$Project |    00015EE8  A$Project |    00015EE9  A$Project
     00015EEA  A$Project |    00015EEA  C$gb.h$65 |    00015EEB  A$Project
     00015EEC  A$Project |    00015EED  A$Project |    00015EEE  A$Project
     00015EEF  A$Project |    00015EF1  A$Project |    00015EF3  A$Project
     00015EF4  A$Project |    00015EF5  A$Project |    00015EF6  A$Project
     00015EF7  A$Project |    00015EF9  A$Project |    00015EF9  C$Project
     00015EF9  C$Project |    00015EFB  A$Project |    00015EFC  A$Project
     00015EFD  A$Project |    00015EFF  A$Project |    00015F02  A$Project
     00015F04  A$Project |    00015F04  C$Project |    00015F04  XG$Update
     00015F05  A$Scroll_ |    00015F05  C$Scroll_ |    00015F05  G$Refresh
     00015F05  _RefreshS |    00015F07  A$Scroll_ |    00015F07  C$Scroll_
     00015F08  A$Scroll_ |    00015F0A  A$Scroll_ |    00015F0B  A$Scroll_
     00015F0B  C$Scroll_ |    00015F0E  A$Scroll_ |    00015F0F  A$Scroll_
     00015F10  A$Scroll_ |    00015F12  A$Scroll_ |    00015F13  A$Scroll_
     00015F14  A$Scroll_ |    00015F15  A$Scroll_ |    00015F16  A$Scroll_
     00015F17  A$Scroll_ |    00015F18  A$Scroll_ |    00015F19  A$Scroll_
     00015F1A  A$Scroll_ |    00015F1B  A$Scroll_ |    00015F1C  A$Scroll_
     00015F1D  A$Scroll_ |    00015F1E  A$Scroll_ |    00015F20  A$Scroll_
     00015F21  A$Scroll_ |    00015F22  A$Scroll_ |    00015F24  A$Scroll_
ASxxxx Linker V03.00 + NoICE + sdld,  page 97.
Hexadecimal  [32-Bits]

Area                       Addr        Size        Decimal Bytes (Attributes)
--------------------       ----        ----        ------- ----- ------------
_CODE_1                00014000    000032A5 =       12965. bytes (REL,CON)

        Value  Global            Value  Global            Value  Global    
        -----  ------            -----  ------            -----  ------    
     00015F25  A$Scroll_ |    00015F25  C$Scroll_ |    00015F26  A$Scroll_
     00015F27  A$Scroll_ |    00015F28  A$Scroll_ |    00015F29  A$Scroll_
     00015F2A  A$Scroll_ |    00015F2B  A$Scroll_ |    00015F2C  A$Scroll_
     00015F2D  A$Scroll_ |    00015F2E  A$Scroll_ |    00015F30  A$Scroll_
     00015F31  A$Scroll_ |    00015F32  A$Scroll_ |    00015F33  A$Scroll_
     00015F34  A$Scroll_ |    00015F36  A$Scroll_ |    00015F37  A$Scroll_
     00015F38  A$Scroll_ |    00015F39  A$Scroll_ |    00015F3C  A$Scroll_
     00015F3D  A$Scroll_ |    00015F3E  A$Scroll_ |    00015F3F  A$Scroll_
     00015F40  A$Scroll_ |    00015F41  A$Scroll_ |    00015F43  A$Scroll_
     00015F44  A$Scroll_ |    00015F45  A$Scroll_ |    00015F45  C$Scroll_
     00015F47  A$Scroll_ |    00015F49  A$Scroll_ |    00015F49  C$Scroll_
     00015F4C  A$Scroll_ |    00015F4E  A$Scroll_ |    00015F4E  C$Scroll_
     00015F4F  A$Scroll_ |    00015F50  A$Scroll_ |    00015F53  A$Scroll_
     00015F54  A$Scroll_ |    00015F55  A$Scroll_ |    00015F56  A$Scroll_
     00015F57  A$Scroll_ |    00015F58  A$Scroll_ |    00015F5A  A$Scroll_
     00015F5A  C$Scroll_ |    00015F5D  A$Scroll_ |    00015F5E  A$Scroll_
     00015F5F  A$Scroll_ |    00015F60  A$Scroll_ |    00015F61  A$Scroll_
     00015F61  C$Scroll_ |    00015F63  A$Scroll_ |    00015F65  A$Scroll_
     00015F67  A$Scroll_ |    00015F67  C$Scroll_ |    00015F68  A$Scroll_
     00015F6A  A$Scroll_ |    00015F6B  A$Scroll_ |    00015F6C  A$Scroll_
     00015F6E  A$Scroll_ |    00015F6E  C$Scroll_ |    00015F70  A$Scroll_
     00015F71  A$Scroll_ |    00015F72  A$Scroll_ |    00015F73  A$Scroll_
     00015F76  A$Scroll_ |    00015F77  A$Scroll_ |    00015F78  A$Scroll_
     00015F79  A$Scroll_ |    00015F7A  A$Scroll_ |    00015F7B  A$Scroll_
     00015F7D  A$Scroll_ |    00015F7D  C$Scroll_ |    00015F80  A$Scroll_
     00015F81  A$Scroll_ |    00015F82  A$Scroll_ |    00015F84  A$Scroll_
     00015F85  A$Scroll_ |    00015F86  A$Scroll_ |    00015F86  C$Scroll_
     00015F89  A$Scroll_ |    00015F8B  A$Scroll_ |    00015F8C  A$Scroll_
     00015F8F  A$Scroll_ |    00015F91  A$Scroll_ |    00015F92  A$Scroll_
     00015F94  A$Scroll_ |    00015F95  A$Scroll_ |    00015F97  A$Scroll_
     00015F98  A$Scroll_ |    00015F9A  A$Scroll_ |    00015F9B  A$Scroll_
     00015F9D  A$Scroll_ |    00015F9E  A$Scroll_ |    00015FA0  A$Scroll_
     00015FA1  A$Scroll_ |    00015FA3  A$Scroll_ |    00015FA3  C$Scroll_
     00015FA4  A$Scroll_ |    00015FA5  A$Scroll_ |    00015FA6  A$Scroll_
     00015FA7  A$Scroll_ |    00015FA8  A$Scroll_ |    00015FAA  A$Scroll_
     00015FAB  A$Scroll_ |    00015FAD  A$Scroll_ |    00015FAE  A$Scroll_
     00015FB0  A$Scroll_ |    00015FB1  A$Scroll_ |    00015FB3  A$Scroll_
     00015FB4  A$Scroll_ |    00015FB6  A$Scroll_ |    00015FB7  A$Scroll_
     00015FB9  A$Scroll_ |    00015FB9  C$Scroll_ |    00015FBC  A$Scroll_
     00015FBE  A$Scroll_ |    00015FBF  A$Scroll_ |    00015FC2  A$Scroll_
     00015FC4  A$Scroll_ |    00015FC5  A$Scroll_ |    00015FC7  A$Scroll_
     00015FC8  A$Scroll_ |    00015FCA  A$Scroll_ |    00015FCB  A$Scroll_
     00015FCD  A$Scroll_ |    00015FCE  A$Scroll_ |    00015FD0  A$Scroll_
     00015FD1  A$Scroll_ |    00015FD3  A$Scroll_ |    00015FD4  A$Scroll_
     00015FD6  A$Scroll_ |    00015FD6  C$Scroll_ |    00015FD8  A$Scroll_
     00015FD9  A$Scroll_ |    00015FDB  A$Scroll_ |    00015FDC  A$Scroll_
     00015FDE  A$Scroll_ |    00015FDF  A$Scroll_ |    00015FE1  A$Scroll_
     00015FE2  A$Scroll_ |    00015FE4  A$Scroll_ |    00015FE5  A$Scroll_
     00015FE7  A$Scroll_ |    00015FE8  A$Scroll_ |    00015FEA  A$Scroll_
     00015FEB  A$Scroll_ |    00015FED  A$Scroll_ |    00015FEE  A$Scroll_
     00015FF0  A$Scroll_ |    00015FF1  A$Scroll_ |    00015FF3  A$Scroll_
ASxxxx Linker V03.00 + NoICE + sdld,  page 98.
Hexadecimal  [32-Bits]

Area                       Addr        Size        Decimal Bytes (Attributes)
--------------------       ----        ----        ------- ----- ------------
_CODE_1                00014000    000032A5 =       12965. bytes (REL,CON)

        Value  Global            Value  Global            Value  Global    
        -----  ------            -----  ------            -----  ------    
     00015FF5  A$Scroll_ |    00015FF6  A$Scroll_ |    00015FF7  A$Scroll_
     00015FF8  A$Scroll_ |    00015FFB  A$Scroll_ |    00015FFC  A$Scroll_
     00015FFD  A$Scroll_ |    00015FFE  A$Scroll_ |    00015FFF  A$Scroll_
     00016000  A$Scroll_ |    00016002  A$Scroll_ |    00016003  A$Scroll_
     00016003  C$Scroll_ |    00016004  A$Scroll_ |    00016005  A$Scroll_
     00016006  A$Scroll_ |    00016007  A$Scroll_ |    00016008  A$Scroll_
     00016009  A$Scroll_ |    0001600C  A$Scroll_ |    0001600D  A$Scroll_
     0001600E  A$Scroll_ |    0001600F  A$Scroll_ |    00016010  A$Scroll_
     00016011  A$Scroll_ |    00016013  A$Scroll_ |    00016014  A$Scroll_
     00016015  A$Scroll_ |    00016015  C$Scroll_ |    00016017  A$Scroll_
     00016018  A$Scroll_ |    0001601A  A$Scroll_ |    0001601B  A$Scroll_
     0001601D  A$Scroll_ |    0001601F  A$Scroll_ |    00016020  A$Scroll_
     00016022  A$Scroll_ |    00016023  A$Scroll_ |    00016025  A$Scroll_
     00016025  C$Scroll_ |    00016027  A$Scroll_ |    00016028  A$Scroll_
     00016029  A$Scroll_ |    0001602A  A$Scroll_ |    0001602D  A$Scroll_
     0001602E  A$Scroll_ |    0001602F  A$Scroll_ |    00016030  A$Scroll_
     00016031  A$Scroll_ |    00016033  A$Scroll_ |    00016034  A$Scroll_
     00016035  A$Scroll_ |    00016036  A$Scroll_ |    00016037  A$Scroll_
     00016038  A$Scroll_ |    0001603B  A$Scroll_ |    0001603D  A$Scroll_
     0001603E  A$Scroll_ |    00016040  A$Scroll_ |    00016040  C$Scroll_
     00016042  A$Scroll_ |    00016043  A$Scroll_ |    00016044  A$Scroll_
     00016045  A$Scroll_ |    00016046  A$Scroll_ |    00016048  A$Scroll_
     00016049  A$Scroll_ |    0001604A  A$Scroll_ |    0001604C  A$Scroll_
     0001604D  A$Scroll_ |    0001604E  A$Scroll_ |    0001604F  A$Scroll_
     00016051  A$Scroll_ |    00016051  C$Scroll_ |    00016052  A$Scroll_
     00016054  A$Scroll_ |    00016055  A$Scroll_ |    00016056  A$Scroll_
     00016057  A$Scroll_ |    00016058  A$Scroll_ |    0001605A  A$Scroll_
     0001605B  A$Scroll_ |    0001605C  A$Scroll_ |    0001605D  A$Scroll_
     0001605E  A$Scroll_ |    00016061  A$Scroll_ |    00016063  A$Scroll_
     00016064  A$Scroll_ |    00016066  A$Scroll_ |    00016066  C$Scroll_
     00016068  A$Scroll_ |    00016069  A$Scroll_ |    0001606A  A$Scroll_
     0001606B  A$Scroll_ |    0001606D  A$Scroll_ |    0001606E  A$Scroll_
     0001606F  A$Scroll_ |    00016070  A$Scroll_ |    00016071  A$Scroll_
     00016073  A$Scroll_ |    00016073  C$Scroll_ |    00016075  A$Scroll_
     00016077  A$Scroll_ |    00016077  C$Scroll_ |    00016079  A$Scroll_
     0001607A  A$Scroll_ |    0001607C  A$Scroll_ |    0001607D  A$Scroll_
     0001607F  A$Scroll_ |    00016081  A$Scroll_ |    00016082  A$Scroll_
     00016084  A$Scroll_ |    00016085  A$Scroll_ |    00016087  A$Scroll_
     00016087  C$Scroll_ |    00016089  A$Scroll_ |    0001608A  A$Scroll_
     0001608B  A$Scroll_ |    0001608C  A$Scroll_ |    0001608F  A$Scroll_
     00016090  A$Scroll_ |    00016091  A$Scroll_ |    00016092  A$Scroll_
     00016092  C$Scroll_ |    00016093  A$Scroll_ |    00016094  A$Scroll_
     00016096  A$Scroll_ |    00016097  A$Scroll_ |    00016098  A$Scroll_
     00016099  A$Scroll_ |    0001609A  A$Scroll_ |    0001609D  A$Scroll_
     0001609F  A$Scroll_ |    000160A0  A$Scroll_ |    000160A2  A$Scroll_
     000160A2  C$Scroll_ |    000160A4  A$Scroll_ |    000160A5  A$Scroll_
     000160A6  A$Scroll_ |    000160A7  A$Scroll_ |    000160A8  A$Scroll_
     000160AA  A$Scroll_ |    000160AB  A$Scroll_ |    000160AC  A$Scroll_
     000160AE  A$Scroll_ |    000160AF  A$Scroll_ |    000160B0  A$Scroll_
     000160B1  A$Scroll_ |    000160B3  A$Scroll_ |    000160B3  C$Scroll_
     000160B4  A$Scroll_ |    000160B6  A$Scroll_ |    000160B7  A$Scroll_
ASxxxx Linker V03.00 + NoICE + sdld,  page 99.
Hexadecimal  [32-Bits]

Area                       Addr        Size        Decimal Bytes (Attributes)
--------------------       ----        ----        ------- ----- ------------
_CODE_1                00014000    000032A5 =       12965. bytes (REL,CON)

        Value  Global            Value  Global            Value  Global    
        -----  ------            -----  ------            -----  ------    
     000160B8  A$Scroll_ |    000160B9  A$Scroll_ |    000160BA  A$Scroll_
     000160BC  A$Scroll_ |    000160BD  A$Scroll_ |    000160BE  A$Scroll_
     000160BF  A$Scroll_ |    000160C0  A$Scroll_ |    000160C3  A$Scroll_
     000160C5  A$Scroll_ |    000160C6  A$Scroll_ |    000160C8  A$Scroll_
     000160C8  C$Scroll_ |    000160CA  A$Scroll_ |    000160CB  A$Scroll_
     000160CC  A$Scroll_ |    000160CD  A$Scroll_ |    000160CF  A$Scroll_
     000160D0  A$Scroll_ |    000160D1  A$Scroll_ |    000160D2  A$Scroll_
     000160D3  A$Scroll_ |    000160D5  A$Scroll_ |    000160D5  C$Scroll_
     000160D7  A$Scroll_ |    000160D9  A$Scroll_ |    000160D9  C$Scroll_
     000160DC  A$Scroll_ |    000160DD  A$Scroll_ |    000160DE  A$Scroll_
     000160DF  A$Scroll_ |    000160DF  C$Scroll_ |    000160E1  A$Scroll_
     000160E2  A$Scroll_ |    000160E3  A$Scroll_ |    000160E6  A$Scroll_
     000160E7  A$Scroll_ |    000160E8  A$Scroll_ |    000160E8  C$Scroll_
     000160E9  A$Scroll_ |    000160EC  A$Scroll_ |    000160ED  A$Scroll_
     000160F0  A$Scroll_ |    000160F1  A$Scroll_ |    000160F4  A$Scroll_
     000160F5  A$Scroll_ |    000160F8  A$Scroll_ |    000160F8  C$Scroll_
     000160FA  A$Scroll_ |    000160FB  A$Scroll_ |    000160FC  A$Scroll_
     000160FE  A$Scroll_ |    000160FE  C$Scroll_ |    00016101  A$Scroll_
     00016103  A$Scroll_ |    00016103  C$Scroll_ |    00016106  A$Scroll_
     00016107  A$Scroll_ |    00016109  A$Scroll_ |    00016109  C$Scroll_
     0001610C  A$Scroll_ |    0001610D  A$Scroll_ |    0001610F  A$Scroll_
     0001610F  C$Scroll_ |    00016112  A$Scroll_ |    00016112  C$Scroll_
     00016115  A$Scroll_ |    00016116  A$Scroll_ |    00016118  A$Scroll_
     00016118  C$Scroll_ |    0001611B  A$Scroll_ |    0001611D  A$Scroll_
     0001611D  C$Scroll_ |    0001611D  XG$Refres |    0001611E  A$Sprite_
     0001611E  C$Sprite_ |    0001611E  C$Sprite_ |    0001611E  G$SpriteP
     0001611E  _SpritePo |    00016121  A$Sprite_ |    00016123  A$Sprite_
     00016123  C$Sprite_ |    00016125  A$Sprite_ |    00016125  C$Sprite_
     00016126  A$Sprite_ |    00016128  A$Sprite_ |    00016129  A$Sprite_
     0001612A  A$Sprite_ |    0001612B  A$Sprite_ |    0001612B  C$Sprite_
     0001612C  A$Sprite_ |    0001612D  A$Sprite_ |    0001612E  A$Sprite_
     0001612F  A$Sprite_ |    00016132  A$Sprite_ |    00016133  A$Sprite_
     00016136  A$Sprite_ |    00016138  A$Sprite_ |    00016139  A$Sprite_
     00016139  C$gb.h$65 |    0001613C  A$Sprite_ |    0001613D  A$Sprite_
     0001613F  A$Sprite_ |    00016140  A$Sprite_ |    00016141  A$Sprite_
     00016142  A$Sprite_ |    00016142  C$gb.h$65 |    00016144  A$Sprite_
     00016145  A$Sprite_ |    00016147  A$Sprite_ |    00016147  C$Sprite_
     00016148  A$Sprite_ |    00016148  C$gb.h$65 |    0001614B  A$Sprite_
     0001614C  A$Sprite_ |    0001614E  A$Sprite_ |    0001614F  A$Sprite_
     00016150  A$Sprite_ |    00016151  A$Sprite_ |    00016151  C$gb.h$65
     00016153  A$Sprite_ |    00016154  A$Sprite_ |    00016156  A$Sprite_
     00016156  C$Sprite_ |    00016157  A$Sprite_ |    00016158  A$Sprite_
     0001615A  A$Sprite_ |    0001615C  A$Sprite_ |    0001615C  C$Sprite_
     0001615F  A$Sprite_ |    00016161  A$Sprite_ |    00016161  C$Sprite_
     00016164  A$Sprite_ |    00016166  A$Sprite_ |    00016166  C$Sprite_
     00016166  XG$Sprite |    00016167  A$Sprite_ |    00016167  C$Sprite_
     00016167  C$Sprite_ |    00016167  G$SpriteP |    00016167  _SpritePo
     00016169  A$Sprite_ |    00016169  C$Sprite_ |    0001616A  A$Sprite_
     0001616C  A$Sprite_ |    0001616D  A$Sprite_ |    0001616E  A$Sprite_
     0001616F  A$Sprite_ |    00016172  A$Sprite_ |    00016173  A$Sprite_
     00016176  A$Sprite_ |    00016178  A$Sprite_ |    00016179  A$Sprite_
ASxxxx Linker V03.00 + NoICE + sdld,  page 100.
Hexadecimal  [32-Bits]

Area                       Addr        Size        Decimal Bytes (Attributes)
--------------------       ----        ----        ------- ----- ------------
_CODE_1                00014000    000032A5 =       12965. bytes (REL,CON)

        Value  Global            Value  Global            Value  Global    
        -----  ------            -----  ------            -----  ------    
     0001617B  A$Sprite_ |    0001617D  A$Sprite_ |    00016180  A$Sprite_
     00016181  A$Sprite_ |    00016183  A$Sprite_ |    00016183  C$Sprite_
     00016186  A$Sprite_ |    00016188  A$Sprite_ |    00016189  A$Sprite_
     0001618A  A$Sprite_ |    0001618C  A$Sprite_ |    0001618D  A$Sprite_
     0001618E  A$Sprite_ |    00016190  A$Sprite_ |    00016190  C$Sprite_
     00016191  A$Sprite_ |    00016191  C$Sprite_ |    00016193  A$Sprite_
     00016193  C$Sprite_ |    00016194  A$Sprite_ |    00016195  A$Sprite_
     00016197  A$Sprite_ |    00016197  C$Sprite_ |    00016198  A$Sprite_
     00016199  A$Sprite_ |    0001619A  A$Sprite_ |    0001619A  C$Sprite_
     0001619C  A$Sprite_ |    0001619D  A$Sprite_ |    0001619E  A$Sprite_
     000161A0  A$Sprite_ |    000161A2  A$Sprite_ |    000161A3  A$Sprite_
     000161A6  A$Sprite_ |    000161A7  A$Sprite_ |    000161A9  A$Sprite_
     000161AA  A$Sprite_ |    000161AB  A$Sprite_ |    000161AD  A$Sprite_
     000161AF  A$Sprite_ |    000161B0  A$Sprite_ |    000161B1  A$Sprite_
     000161B2  A$Sprite_ |    000161B2  C$Sprite_ |    000161B4  A$Sprite_
     000161B5  A$Sprite_ |    000161B5  C$gb.h$65 |    000161B6  A$Sprite_
     000161B8  A$Sprite_ |    000161B9  A$Sprite_ |    000161BA  A$Sprite_
     000161BD  A$Sprite_ |    000161BE  A$Sprite_ |    000161BE  C$gb.h$65
     000161C0  A$Sprite_ |    000161C1  A$Sprite_ |    000161C3  A$Sprite_
     000161C3  C$Sprite_ |    000161C4  A$Sprite_ |    000161C4  C$gb.h$65
     000161C6  A$Sprite_ |    000161C7  A$Sprite_ |    000161C8  A$Sprite_
     000161C9  A$Sprite_ |    000161CC  A$Sprite_ |    000161CD  A$Sprite_
     000161CD  C$gb.h$65 |    000161CF  A$Sprite_ |    000161D0  A$Sprite_
     000161D2  A$Sprite_ |    000161D2  C$Sprite_ |    000161D2  C$Sprite_
     000161D2  XG$Sprite |    000161D3  A$Sprite_ |    000161D3  C$Sprite_
     000161D3  C$Sprite_ |    000161D3  G$SpriteP |    000161D3  _SpritePo
     000161D6  A$Sprite_ |    000161D7  A$Sprite_ |    000161DA  A$Sprite_
     000161DC  A$Sprite_ |    000161DC  C$Sprite_ |    000161DF  A$Sprite_
     000161E0  A$Sprite_ |    000161E1  A$Sprite_ |    000161E4  A$Sprite_
     000161E6  A$Sprite_ |    000161E7  A$Sprite_ |    000161E8  A$Sprite_
     000161E8  C$Sprite_ |    000161E8  C$Sprite_ |    000161E8  XG$Sprite
     000161E9  A$Trigger |    000161E9  C$Trigger |    000161E9  G$Trigger
     000161E9  _TriggerA |    000161EB  A$Trigger |    000161EC  A$Trigger
     000161EE  A$Trigger |    000161EF  A$Trigger |    000161F1  A$Trigger
     000161F4  A$Trigger |    000161F5  A$Trigger |    000161F8  A$Trigger
     000161F8  C$Trigger |    000161FA  A$Trigger |    000161FB  A$Trigger
     000161FC  A$Trigger |    000161FD  A$Trigger |    000161FE  A$Trigger
     000161FF  A$Trigger |    00016200  A$Trigger |    00016201  A$Trigger
     00016203  A$Trigger |    00016204  A$Trigger |    00016205  A$Trigger
     00016207  A$Trigger |    00016208  A$Trigger |    00016209  A$Trigger
     0001620A  A$Trigger |    0001620A  C$Trigger |    0001620B  A$Trigger
     0001620C  A$Trigger |    0001620D  A$Trigger |    0001620E  A$Trigger
     00016210  A$Trigger |    00016211  A$Trigger |    00016211  C$Trigger
     00016212  A$Trigger |    00016213  A$Trigger |    00016214  A$Trigger
     00016215  A$Trigger |    00016216  A$Trigger |    00016217  A$Trigger
     00016219  A$Trigger |    0001621B  A$Trigger |    0001621C  A$Trigger
     0001621C  C$Trigger |    0001621D  A$Trigger |    0001621E  A$Trigger
     0001621F  A$Trigger |    00016220  A$Trigger |    00016221  A$Trigger
     00016222  A$Trigger |    00016224  A$Trigger |    00016225  A$Trigger
     00016226  A$Trigger |    00016227  A$Trigger |    00016227  C$Trigger
     00016229  A$Trigger |    0001622A  A$Trigger |    0001622C  A$Trigger
ASxxxx Linker V03.00 + NoICE + sdld,  page 101.
Hexadecimal  [32-Bits]

Area                       Addr        Size        Decimal Bytes (Attributes)
--------------------       ----        ----        ------- ----- ------------
_CODE_1                00014000    000032A5 =       12965. bytes (REL,CON)

        Value  Global            Value  Global            Value  Global    
        -----  ------            -----  ------            -----  ------    
     0001622D  A$Trigger |    0001622F  A$Trigger |    00016230  A$Trigger
     00016231  A$Trigger |    00016232  A$Trigger |    00016233  A$Trigger
     00016234  A$Trigger |    00016235  A$Trigger |    00016236  A$Trigger
     00016237  A$Trigger |    00016239  A$Trigger |    0001623A  A$Trigger
     0001623B  A$Trigger |    0001623D  A$Trigger |    0001623E  A$Trigger
     0001623F  A$Trigger |    00016240  A$Trigger |    00016241  A$Trigger
     00016242  A$Trigger |    00016243  A$Trigger |    00016244  A$Trigger
     00016245  A$Trigger |    00016247  A$Trigger |    00016249  A$Trigger
     0001624B  A$Trigger |    0001624D  A$Trigger |    0001624E  A$Trigger
     00016250  A$Trigger |    00016252  A$Trigger |    00016254  A$Trigger
     00016255  A$Trigger |    00016257  A$Trigger |    00016259  A$Trigger
     0001625A  A$Trigger |    0001625C  A$Trigger |    0001625D  A$Trigger
     0001625F  A$Trigger |    00016260  A$Trigger |    00016261  A$Trigger
     00016263  A$Trigger |    00016264  A$Trigger |    00016266  A$Trigger
     00016267  A$Trigger |    00016268  A$Trigger |    00016269  A$Trigger
     0001626B  A$Trigger |    0001626C  A$Trigger |    0001626E  A$Trigger
     0001626E  C$Trigger |    00016270  A$Trigger |    00016271  A$Trigger
     00016273  A$Trigger |    00016273  C$Trigger |    00016274  A$Trigger
     00016276  A$Trigger |    00016277  A$Trigger |    0001627A  A$Trigger
     0001627A  C$Trigger |    0001627C  A$Trigger |    0001627E  A$Trigger
     0001627E  C$Trigger |    0001627E  XG$Trigge |    0001627F  A$UI_b$92
     0001627F  C$UI_b.c$ |    0001627F  C$UI_b.c$ |    0001627F  G$UIInit_
     0001627F  _UIInit_b |    00016281  A$UI_b$93 |    00016282  A$UI_b$94
     00016283  A$UI_b$95 |    00016284  A$UI_b$96 |    00016285  A$UI_b$97
     00016286  A$UI_b$98 |    00016289  A$UI_b$99 |    0001628B  A$UI_b$10
     0001628B  C$UI_b.c$ |    0001628E  A$UI_b$10 |    0001628F  A$UI_b$10
     00016292  A$UI_b$10 |    00016293  A$UI_b$10 |    00016295  A$UI_b$10
     00016296  A$UI_b$10 |    00016297  A$UI_b$11 |    0001629A  A$UI_b$11
     0001629C  A$UI_b$11 |    0001629C  C$UI_b.c$ |    0001629F  A$UI_b$11
     000162A0  A$UI_b$11 |    000162A3  A$UI_b$11 |    000162A4  A$UI_b$11
     000162A7  A$UI_b$12 |    000162A9  A$UI_b$12 |    000162A9  C$UI_b.c$
     000162AC  A$UI_b$12 |    000162AD  A$UI_b$12 |    000162B0  A$UI_b$12
     000162B1  A$UI_b$12 |    000162B4  A$UI_b$12 |    000162B6  A$UI_b$13
     000162B6  C$UI_b.c$ |    000162B9  A$UI_b$13 |    000162BA  A$UI_b$13
     000162BD  A$UI_b$13 |    000162BE  A$UI_b$13 |    000162C0  A$UI_b$13
     000162C1  A$UI_b$13 |    000162C2  A$UI_b$14 |    000162C5  A$UI_b$14
     000162C7  A$UI_b$14 |    000162C7  C$UI_b.c$ |    000162C7  XG$UIInit
     000162C8  G$ui_fram |    000162C8  _ui_frame |    000162C9  G$ui_fram
     000162C9  _ui_frame |    000162CA  G$ui_fram |    000162CA  _ui_frame
     000162CB  G$ui_fram |    000162CB  _ui_frame |    000162CC  G$ui_fram
     000162CC  _ui_frame |    000162CD  G$ui_fram |    000162CD  _ui_frame
     000162CE  G$ui_fram |    000162CE  _ui_frame |    000162CF  G$ui_fram
     000162CF  _ui_frame |    000162D0  G$ui_fram |    000162D0  _ui_frame
     000162D1  G$ui_colo |    000162D1  _ui_color |    000165A1  G$ui_whit
     000165A1  _ui_white |    000165B1  G$ui_blac |    000165B1  _ui_black
     000165C1  G$ui_curs |    000165C1  _ui_curso |    000165C2  G$ui_bg_t
     000165C2  _ui_bg_ti |    000165C3  G$win_til |    000165C3  _win_tile
     0001672B  G$text_dr |    0001672B  _text_dra |    00016731  A$UI_b$13
     00016731  C$UI_b.c$ |    00016731  C$UI_b.c$ |    00016731  G$UIReset
     00016731  _UIReset_ |    00016733  A$UI_b$13 |    00016734  A$UI_b$13
     00016735  A$UI_b$13 |    00016736  A$UI_b$13 |    00016737  A$UI_b$13
ASxxxx Linker V03.00 + NoICE + sdld,  page 102.
Hexadecimal  [32-Bits]

Area                       Addr        Size        Decimal Bytes (Attributes)
--------------------       ----        ----        ------- ----- ------------
_CODE_1                00014000    000032A5 =       12965. bytes (REL,CON)

        Value  Global            Value  Global            Value  Global    
        -----  ------            -----  ------            -----  ------    
     00016738  A$UI_b$13 |    0001673B  A$UI_b$13 |    0001673D  A$UI_b$13
     0001673D  C$UI_b.c$ |    0001673D  XG$UIRese |    0001673E  A$UI_b$13
     0001673E  C$UI_b.c$ |    0001673E  C$UI_b.c$ |    0001673E  G$UIUpdat
     0001673E  _UIUpdate |    00016741  A$UI_b$13 |    00016742  A$UI_b$13
     00016745  A$UI_b$13 |    00016747  A$UI_b$13 |    00016749  A$UI_b$13
     0001674A  A$UI_b$13 |    0001674C  A$UI_b$13 |    0001674C  C$UI_b.c$
     0001674D  A$UI_b$13 |    0001674D  C$UI_b.c$ |    00016750  A$UI_b$13
     00016752  A$UI_b$13 |    00016754  A$UI_b$13 |    00016755  A$UI_b$13
     00016757  A$UI_b$13 |    00016757  C$UI_b.c$ |    00016758  A$UI_b$13
     00016758  C$UI_b.c$ |    0001675B  A$UI_b$13 |    0001675D  A$UI_b$13
     0001675F  A$UI_b$13 |    00016761  A$UI_b$13 |    00016761  C$UI_b.c$
     00016762  A$UI_b$13 |    00016762  C$UI_b.c$ |    00016765  A$UI_b$13
     00016766  A$UI_b$13 |    00016766  C$UI_b.c$ |    00016766  C$UI_b.c$
     00016768  A$UI_b$14 |    0001676A  A$UI_b$14 |    0001676C  A$UI_b$14
     0001676C  C$UI_b.c$ |    0001676F  A$UI_b$14 |    00016772  A$UI_b$14
     00016773  A$UI_b$14 |    00016775  A$UI_b$14 |    00016775  C$UI_b.c$
     00016778  A$UI_b$14 |    0001677B  A$UI_b$14 |    0001677C  A$UI_b$14
     0001677E  A$UI_b$14 |    0001677E  C$UI_b.c$ |    00016781  A$UI_b$14
     00016782  A$UI_b$14 |    00016783  A$UI_b$14 |    00016784  A$UI_b$14
     00016786  A$UI_b$14 |    00016786  C$UI_b.c$ |    00016789  A$UI_b$14
     0001678A  A$UI_b$14 |    0001678B  A$UI_b$14 |    0001678C  A$UI_b$14
     0001678C  C$UI_b.c$ |    0001678F  A$UI_b$14 |    00016792  A$UI_b$14
     00016793  A$UI_b$14 |    00016795  A$UI_b$14 |    00016795  C$UI_b.c$
     00016798  A$UI_b$14 |    0001679B  A$UI_b$14 |    0001679C  A$UI_b$14
     0001679E  A$UI_b$14 |    0001679E  C$UI_b.c$ |    000167A1  A$UI_b$14
     000167A2  A$UI_b$14 |    000167A3  A$UI_b$14 |    000167A4  A$UI_b$14
     000167A6  A$UI_b$14 |    000167A6  C$UI_b.c$ |    000167A9  A$UI_b$14
     000167AA  A$UI_b$14 |    000167AB  A$UI_b$14 |    000167AC  A$UI_b$14
     000167AE  A$UI_b$14 |    000167AE  C$UI_b.c$ |    000167B1  A$UI_b$14
     000167B2  A$UI_b$14 |    000167B4  A$UI_b$14 |    000167B4  C$UI_b.c$
     000167B7  A$UI_b$14 |    000167BA  A$UI_b$14 |    000167BB  A$UI_b$14
     000167BC  A$UI_b$14 |    000167BF  A$UI_b$14 |    000167C2  A$UI_b$14
     000167C3  A$UI_b$14 |    000167C5  A$UI_b$14 |    000167C7  A$UI_b$14
     000167C8  A$UI_b$14 |    000167C9  A$UI_b$14 |    000167CA  A$UI_b$14
     000167CC  A$UI_b$14 |    000167CC  C$UI_b.c$ |    000167CF  A$UI_b$14
     000167CF  C$UI_b.c$ |    000167D2  A$UI_b$14 |    000167D4  A$UI_b$14
     000167D6  A$UI_b$15 |    000167D6  C$UI_b.c$ |    000167D9  A$UI_b$15
     000167DB  A$UI_b$15 |    000167DB  C$UI_b.c$ |    000167DB  XG$UIUpda
     000167DC  A$UI_b$15 |    000167DC  C$UI_b.c$ |    000167DC  G$UIDrawF
     000167DC  _UIDrawFr |    000167DE  A$UI_b$15 |    000167DE  C$UI_b.c$
     000167E0  A$UI_b$15 |    000167E1  A$UI_b$15 |    000167E3  A$UI_b$15
     000167E5  A$UI_b$15 |    000167E6  A$UI_b$15 |    000167E7  A$UI_b$15
     000167E8  A$UI_b$15 |    000167EA  A$UI_b$15 |    000167EB  A$UI_b$15
     000167EC  A$UI_b$15 |    000167ED  A$UI_b$15 |    000167EE  A$UI_b$15
     000167EF  A$UI_b$15 |    000167F0  A$UI_b$15 |    000167F1  A$UI_b$15
     000167F2  A$UI_b$15 |    000167F3  A$UI_b$15 |    000167F4  A$UI_b$15
     000167F5  A$UI_b$15 |    000167F6  A$UI_b$15 |    000167F7  A$UI_b$15
     000167F7  C$UI_b.c$ |    000167FA  A$UI_b$15 |    000167FB  A$UI_b$15
     000167FC  A$UI_b$15 |    000167FE  A$UI_b$15 |    000167FF  A$UI_b$15
     00016800  A$UI_b$15 |    00016801  A$UI_b$15 |    00016802  A$UI_b$15
     00016805  A$UI_b$15 |    00016807  A$UI_b$15 |    00016807  C$UI_b.c$
ASxxxx Linker V03.00 + NoICE + sdld,  page 103.
Hexadecimal  [32-Bits]

Area                       Addr        Size        Decimal Bytes (Attributes)
--------------------       ----        ----        ------- ----- ------------
_CODE_1                00014000    000032A5 =       12965. bytes (REL,CON)

        Value  Global            Value  Global            Value  Global    
        -----  ------            -----  ------            -----  ------    
     0001680A  A$UI_b$15 |    0001680B  A$UI_b$15 |    0001680D  A$UI_b$15
     0001680E  A$UI_b$15 |    00016810  A$UI_b$15 |    00016811  A$UI_b$15
     00016813  A$UI_b$15 |    00016814  A$UI_b$15 |    00016815  A$UI_b$15
     00016816  A$UI_b$15 |    00016817  A$UI_b$15 |    00016818  A$UI_b$15
     00016819  A$UI_b$15 |    0001681A  A$UI_b$15 |    0001681C  A$UI_b$15
     0001681E  A$UI_b$15 |    00016820  A$UI_b$15 |    00016822  A$UI_b$15
     00016824  A$UI_b$15 |    00016826  A$UI_b$15 |    00016828  A$UI_b$15
     0001682A  A$UI_b$15 |    0001682C  A$UI_b$15 |    0001682E  A$UI_b$15
     0001682F  A$UI_b$15 |    00016830  A$UI_b$15 |    00016831  A$UI_b$15
     00016832  A$UI_b$15 |    00016833  A$UI_b$15 |    00016835  A$UI_b$15
     00016836  A$UI_b$15 |    00016837  A$UI_b$15 |    00016838  A$UI_b$15
     00016839  A$UI_b$15 |    0001683A  A$UI_b$15 |    0001683B  A$UI_b$15
     0001683C  A$UI_b$16 |    0001683D  A$UI_b$16 |    0001683E  A$UI_b$16
     00016841  A$UI_b$16 |    00016843  A$UI_b$16 |    00016843  C$UI_b.c$
     00016846  A$UI_b$16 |    00016847  A$UI_b$16 |    00016849  A$UI_b$16
     0001684A  A$UI_b$16 |    0001684C  A$UI_b$16 |    0001684E  A$UI_b$16
     0001684F  A$UI_b$16 |    00016850  A$UI_b$16 |    00016851  A$UI_b$16
     00016852  A$UI_b$16 |    00016853  A$UI_b$16 |    00016854  A$UI_b$16
     00016855  A$UI_b$16 |    00016856  A$UI_b$16 |    00016857  A$UI_b$16
     00016858  A$UI_b$16 |    00016859  A$UI_b$16 |    0001685A  A$UI_b$16
     0001685B  A$UI_b$16 |    0001685C  A$UI_b$16 |    0001685D  A$UI_b$16
     00016860  A$UI_b$16 |    00016862  A$UI_b$16 |    00016862  C$UI_b.c$
     00016865  A$UI_b$16 |    00016866  A$UI_b$16 |    00016868  A$UI_b$16
     00016869  A$UI_b$16 |    0001686A  A$UI_b$16 |    0001686B  A$UI_b$16
     0001686D  A$UI_b$16 |    0001686E  A$UI_b$16 |    0001686F  A$UI_b$16
     00016870  A$UI_b$16 |    00016871  A$UI_b$16 |    00016872  A$UI_b$16
     00016873  A$UI_b$16 |    00016874  A$UI_b$16 |    00016875  A$UI_b$16
     00016876  A$UI_b$16 |    00016879  A$UI_b$16 |    0001687B  A$UI_b$16
     0001687B  C$UI_b.c$ |    0001687D  A$UI_b$16 |    0001687F  A$UI_b$16
     00016881  A$UI_b$16 |    00016882  A$UI_b$16 |    00016883  A$UI_b$16
     00016884  A$UI_b$16 |    00016885  A$UI_b$16 |    00016886  A$UI_b$16
     00016887  A$UI_b$16 |    00016889  A$UI_b$16 |    0001688A  A$UI_b$16
     0001688C  A$UI_b$16 |    0001688D  A$UI_b$16 |    0001688F  A$UI_b$16
     00016891  A$UI_b$16 |    00016892  A$UI_b$16 |    00016894  A$UI_b$16
     00016895  A$UI_b$16 |    00016897  A$UI_b$16 |    00016897  C$UI_b.c$
     0001689A  A$UI_b$16 |    0001689B  A$UI_b$16 |    0001689D  A$UI_b$16
     0001689E  A$UI_b$16 |    0001689F  A$UI_b$16 |    000168A0  A$UI_b$16
     000168A2  A$UI_b$16 |    000168A4  A$UI_b$16 |    000168A6  A$UI_b$16
     000168A8  A$UI_b$16 |    000168AA  A$UI_b$16 |    000168AC  A$UI_b$16
     000168AE  A$UI_b$16 |    000168B0  A$UI_b$16 |    000168B2  A$UI_b$16
     000168B4  A$UI_b$16 |    000168B5  A$UI_b$16 |    000168B6  A$UI_b$16
     000168B7  A$UI_b$16 |    000168B8  A$UI_b$16 |    000168B9  A$UI_b$16
     000168BB  A$UI_b$17 |    000168BC  A$UI_b$17 |    000168BD  A$UI_b$17
     000168BE  A$UI_b$17 |    000168BF  A$UI_b$17 |    000168C0  A$UI_b$17
     000168C1  A$UI_b$17 |    000168C2  A$UI_b$17 |    000168C3  A$UI_b$17
     000168C4  A$UI_b$17 |    000168C7  A$UI_b$17 |    000168C9  A$UI_b$17
     000168C9  C$UI_b.c$ |    000168CC  A$UI_b$17 |    000168CD  A$UI_b$17
     000168CF  A$UI_b$17 |    000168D0  A$UI_b$17 |    000168D1  A$UI_b$17
     000168D2  A$UI_b$17 |    000168D4  A$UI_b$17 |    000168D5  A$UI_b$17
     000168D6  A$UI_b$17 |    000168D7  A$UI_b$17 |    000168D8  A$UI_b$17
     000168D9  A$UI_b$17 |    000168DA  A$UI_b$17 |    000168DB  A$UI_b$17
ASxxxx Linker V03.00 + NoICE + sdld,  page 104.
Hexadecimal  [32-Bits]

Area                       Addr        Size        Decimal Bytes (Attributes)
--------------------       ----        ----        ------- ----- ------------
_CODE_1                00014000    000032A5 =       12965. bytes (REL,CON)

        Value  Global            Value  Global            Value  Global    
        -----  ------            -----  ------            -----  ------    
     000168DC  A$UI_b$17 |    000168DD  A$UI_b$17 |    000168E0  A$UI_b$17
     000168E2  A$UI_b$17 |    000168E2  C$UI_b.c$ |    000168E4  A$UI_b$17
     000168E6  A$UI_b$17 |    000168E7  A$UI_b$17 |    000168E8  A$UI_b$17
     000168EA  A$UI_b$17 |    000168EA  C$UI_b.c$ |    000168ED  A$UI_b$17
     000168EE  A$UI_b$17 |    000168EF  A$UI_b$17 |    000168F1  A$UI_b$17
     000168F3  A$UI_b$17 |    000168F4  A$UI_b$17 |    000168F5  A$UI_b$17
     000168F6  A$UI_b$17 |    000168F7  A$UI_b$17 |    000168F8  A$UI_b$17
     000168F9  A$UI_b$17 |    000168FA  A$UI_b$17 |    000168FB  A$UI_b$17
     000168FC  A$UI_b$17 |    000168FD  A$UI_b$17 |    00016900  A$UI_b$17
     00016902  A$UI_b$17 |    00016903  A$UI_b$17 |    00016903  C$UI_b.c$
     00016904  A$UI_b$17 |    00016906  A$UI_b$17 |    00016906  C$UI_b.c$
     00016908  A$UI_b$17 |    00016909  A$UI_b$17 |    0001690C  A$UI_b$17
     0001690C  C$UI_b.c$ |    0001690E  A$UI_b$17 |    00016910  A$UI_b$17
     00016912  A$UI_b$17 |    00016913  A$UI_b$17 |    00016915  A$UI_b$17
     00016916  A$UI_b$17 |    00016918  A$UI_b$17 |    00016918  C$UI_b.c$
     0001691B  A$UI_b$17 |    0001691D  A$UI_b$17 |    0001691E  A$UI_b$17
     00016920  A$UI_b$17 |    00016921  A$UI_b$17 |    00016922  A$UI_b$17
     00016923  A$UI_b$17 |    00016924  A$UI_b$17 |    00016925  A$UI_b$17
     00016926  A$UI_b$17 |    00016927  A$UI_b$18 |    00016928  A$UI_b$18
     00016929  A$UI_b$18 |    0001692A  A$UI_b$18 |    0001692B  A$UI_b$18
     0001692C  A$UI_b$18 |    0001692D  A$UI_b$18 |    0001692E  A$UI_b$18
     0001692F  A$UI_b$18 |    00016931  A$UI_b$18 |    00016932  A$UI_b$18
     00016933  A$UI_b$18 |    00016934  A$UI_b$18 |    00016935  A$UI_b$18
     00016938  A$UI_b$18 |    0001693A  A$UI_b$18 |    0001693B  A$UI_b$18
     0001693B  C$UI_b.c$ |    0001693E  A$UI_b$18 |    00016940  A$UI_b$18
     00016941  A$UI_b$18 |    00016943  A$UI_b$18 |    00016944  A$UI_b$18
     00016945  A$UI_b$18 |    00016946  A$UI_b$18 |    00016947  A$UI_b$18
     00016948  A$UI_b$18 |    00016949  A$UI_b$18 |    0001694B  A$UI_b$18
     0001694C  A$UI_b$18 |    0001694D  A$UI_b$18 |    0001694E  A$UI_b$18
     0001694F  A$UI_b$18 |    00016952  A$UI_b$18 |    00016954  A$UI_b$18
     00016954  C$UI_b.c$ |    00016956  A$UI_b$18 |    00016957  A$UI_b$18
     00016959  A$UI_b$18 |    0001695B  A$UI_b$18 |    0001695B  C$UI_b.c$
     0001695B  XG$UIDraw |    0001695C  A$UI_b$18 |    0001695C  C$UI_b.c$
     0001695C  C$UI_b.c$ |    0001695C  G$UIDrawD |    0001695C  _UIDrawDi
     0001695E  A$UI_b$18 |    0001695F  A$UI_b$18 |    00016961  A$UI_b$18
     00016962  A$UI_b$18 |    00016963  A$UI_b$18 |    00016964  A$UI_b$18
     00016965  A$UI_b$18 |    00016966  A$UI_b$18 |    00016967  A$UI_b$18
     00016968  A$UI_b$18 |    0001696B  A$UI_b$18 |    0001696D  A$UI_b$18
     0001696D  C$UI_b.c$ |    0001696D  XG$UIDraw |    0001696E  A$UI_b$18
     0001696E  C$UI_b.c$ |    0001696E  G$UISetCo |    0001696E  _UISetCol
     00016970  A$UI_b$18 |    00016970  C$UI_b.c$ |    00016973  A$UI_b$18
     00016974  A$UI_b$18 |    00016977  A$UI_b$19 |    00016978  A$UI_b$19
     0001697B  A$UI_b$19 |    0001697D  A$UI_b$19 |    0001697D  C$UI_b.c$
     00016980  A$UI_b$19 |    00016981  A$UI_b$19 |    00016984  A$UI_b$19
     00016985  A$UI_b$19 |    00016988  A$UI_b$19 |    0001698A  A$UI_b$19
     0001698A  C$UI_b.c$ |    0001698C  A$UI_b$19 |    0001698C  C$UI_b.c$
     0001698E  A$UI_b$19 |    0001698E  C$UI_b.c$ |    00016990  A$UI_b$19
     00016991  A$UI_b$19 |    00016993  A$UI_b$19 |    00016994  A$UI_b$19
     00016995  A$UI_b$19 |    00016996  A$UI_b$19 |    00016997  A$UI_b$19
     00016998  A$UI_b$19 |    00016999  A$UI_b$19 |    0001699A  A$UI_b$19
     0001699B  A$UI_b$19 |    0001699C  A$UI_b$19 |    0001699D  A$UI_b$19
ASxxxx Linker V03.00 + NoICE + sdld,  page 105.
Hexadecimal  [32-Bits]

Area                       Addr        Size        Decimal Bytes (Attributes)
--------------------       ----        ----        ------- ----- ------------
_CODE_1                00014000    000032A5 =       12965. bytes (REL,CON)

        Value  Global            Value  Global            Value  Global    
        -----  ------            -----  ------            -----  ------    
     0001699E  A$UI_b$19 |    0001699F  A$UI_b$19 |    000169A0  A$UI_b$19
     000169A1  A$UI_b$19 |    000169A2  A$UI_b$19 |    000169A3  A$UI_b$19
     000169A4  A$UI_b$19 |    000169A5  A$UI_b$19 |    000169A6  A$UI_b$19
     000169A7  A$UI_b$19 |    000169AA  A$UI_b$19 |    000169AB  A$UI_b$19
     000169AC  A$UI_b$19 |    000169AE  A$UI_b$19 |    000169AF  A$UI_b$19
     000169B0  A$UI_b$19 |    000169B2  A$UI_b$19 |    000169B5  A$UI_b$19
     000169B6  A$UI_b$19 |    000169B7  A$UI_b$19 |    000169B8  A$UI_b$19
     000169BA  A$UI_b$19 |    000169BB  A$UI_b$19 |    000169BC  A$UI_b$19
     000169BD  A$UI_b$19 |    000169BF  A$UI_b$19 |    000169C0  A$UI_b$19
     000169C1  A$UI_b$19 |    000169C2  A$UI_b$19 |    000169C3  A$UI_b$19
     000169C4  A$UI_b$19 |    000169C5  A$UI_b$19 |    000169C6  A$UI_b$19
     000169C8  A$UI_b$19 |    000169C9  A$UI_b$19 |    000169CA  A$UI_b$19
     000169CB  A$UI_b$19 |    000169CC  A$UI_b$19 |    000169CD  A$UI_b$19
     000169CE  A$UI_b$19 |    000169CF  A$UI_b$19 |    000169D1  A$UI_b$19
     000169D2  A$UI_b$19 |    000169D3  A$UI_b$19 |    000169D4  A$UI_b$19
     000169D5  A$UI_b$19 |    000169D8  A$UI_b$19 |    000169DA  A$UI_b$19
     000169DB  A$UI_b$19 |    000169DB  C$UI_b.c$ |    000169DC  A$UI_b$19
     000169DD  A$UI_b$19 |    000169DF  A$UI_b$19 |    000169E1  A$UI_b$19
     000169E1  C$UI_b.c$ |    000169E2  A$UI_b$19 |    000169E3  A$UI_b$19
     000169E5  A$UI_b$20 |    000169E7  A$UI_b$20 |    000169E9  A$UI_b$20
     000169E9  C$UI_b.c$ |    000169E9  XG$UISetC |    000169EA  A$UI_b$20
     000169EA  C$UI_b.c$ |    000169EA  G$UIShowT |    000169EA  _UIShowTe
     000169EC  A$UI_b$20 |    000169EC  C$UI_b.c$ |    000169EF  A$UI_b$20
     000169F1  A$UI_b$20 |    000169F1  C$UI_b.c$ |    000169F4  A$UI_b$20
     000169F7  A$UI_b$20 |    000169F9  A$UI_b$20 |    000169FB  A$UI_b$20
     000169FC  A$UI_b$20 |    000169FD  A$UI_b$20 |    000169FE  A$UI_b$20
     00016A00  A$UI_b$20 |    00016A01  A$UI_b$20 |    00016A02  A$UI_b$20
     00016A04  A$UI_b$20 |    00016A05  A$UI_b$20 |    00016A06  A$UI_b$20
     00016A07  A$UI_b$20 |    00016A08  A$UI_b$20 |    00016A09  A$UI_b$20
     00016A0A  A$UI_b$20 |    00016A0B  A$UI_b$20 |    00016A0C  A$UI_b$20
     00016A0E  A$UI_b$20 |    00016A0F  A$UI_b$20 |    00016A11  A$UI_b$20
     00016A14  A$UI_b$20 |    00016A17  A$UI_b$20 |    00016A19  A$UI_b$20
     00016A1A  A$UI_b$20 |    00016A1C  A$UI_b$20 |    00016A1D  A$UI_b$20
     00016A1E  A$UI_b$20 |    00016A1F  A$UI_b$20 |    00016A20  A$UI_b$20
     00016A22  A$UI_b$20 |    00016A23  A$UI_b$20 |    00016A25  A$UI_b$20
     00016A26  A$UI_b$20 |    00016A27  A$UI_b$20 |    00016A29  A$UI_b$20
     00016A2B  A$UI_b$20 |    00016A2C  A$UI_b$20 |    00016A2E  A$UI_b$20
     00016A2F  A$UI_b$20 |    00016A30  A$UI_b$20 |    00016A31  A$UI_b$20
     00016A32  A$UI_b$20 |    00016A33  A$UI_b$20 |    00016A35  A$UI_b$20
     00016A37  A$UI_b$20 |    00016A38  A$UI_b$20 |    00016A38  C$UI_b.c$
     00016A3A  A$UI_b$20 |    00016A3B  A$UI_b$20 |    00016A3D  A$UI_b$20
     00016A3F  A$UI_b$20 |    00016A41  A$UI_b$20 |    00016A42  A$UI_b$20
     00016A44  A$UI_b$21 |    00016A45  A$UI_b$21 |    00016A46  A$UI_b$21
     00016A48  A$UI_b$21 |    00016A49  A$UI_b$21 |    00016A4A  A$UI_b$21
     00016A4B  A$UI_b$21 |    00016A4C  A$UI_b$21 |    00016A4D  A$UI_b$21
     00016A4E  A$UI_b$21 |    00016A4F  A$UI_b$21 |    00016A50  A$UI_b$21
     00016A51  A$UI_b$21 |    00016A52  A$UI_b$21 |    00016A53  A$UI_b$21
     00016A54  A$UI_b$21 |    00016A56  A$UI_b$21 |    00016A57  A$UI_b$21
     00016A59  A$UI_b$21 |    00016A5A  A$UI_b$21 |    00016A5B  A$UI_b$21
     00016A5C  A$UI_b$21 |    00016A5D  A$UI_b$21 |    00016A5E  A$UI_b$21
     00016A61  A$UI_b$21 |    00016A63  A$UI_b$21 |    00016A64  A$UI_b$21
ASxxxx Linker V03.00 + NoICE + sdld,  page 106.
Hexadecimal  [32-Bits]

Area                       Addr        Size        Decimal Bytes (Attributes)
--------------------       ----        ----        ------- ----- ------------
_CODE_1                00014000    000032A5 =       12965. bytes (REL,CON)

        Value  Global            Value  Global            Value  Global    
        -----  ------            -----  ------            -----  ------    
     00016A65  A$UI_b$21 |    00016A66  A$UI_b$21 |    00016A67  A$UI_b$21
     00016A68  A$UI_b$21 |    00016A69  A$UI_b$21 |    00016A6B  A$UI_b$21
     00016A6C  A$UI_b$21 |    00016A6D  A$UI_b$21 |    00016A6D  C$UI_b.c$
     00016A70  A$UI_b$21 |    00016A72  A$UI_b$21 |    00016A73  A$UI_b$21
     00016A74  A$UI_b$21 |    00016A75  A$UI_b$21 |    00016A76  A$UI_b$21
     00016A77  A$UI_b$21 |    00016A78  A$UI_b$21 |    00016A7A  A$UI_b$21
     00016A7B  A$UI_b$21 |    00016A7C  A$UI_b$21 |    00016A7D  A$UI_b$21
     00016A7E  A$UI_b$21 |    00016A81  A$UI_b$21 |    00016A82  A$UI_b$21
     00016A83  A$UI_b$21 |    00016A84  A$UI_b$21 |    00016A86  A$UI_b$21
     00016A87  A$UI_b$21 |    00016A88  A$UI_b$21 |    00016A88  C$UI_b.c$
     00016A8A  A$UI_b$21 |    00016A8B  A$UI_b$21 |    00016A8D  A$UI_b$21
     00016A8F  A$UI_b$21 |    00016A91  A$UI_b$21 |    00016A92  A$UI_b$21
     00016A93  A$UI_b$21 |    00016A96  A$UI_b$21 |    00016A96  C$UI_b.c$
     00016A98  A$UI_b$21 |    00016A99  A$UI_b$21 |    00016A9A  A$UI_b$21
     00016A9B  A$UI_b$21 |    00016A9C  A$UI_b$21 |    00016A9E  A$UI_b$21
     00016A9E  C$UI_b.c$ |    00016A9F  A$UI_b$21 |    00016AA0  A$UI_b$21
     00016AA1  A$UI_b$21 |    00016AA2  A$UI_b$21 |    00016AA3  A$UI_b$21
     00016AA3  C$UI_b.c$ |    00016AA4  A$UI_b$21 |    00016AA5  A$UI_b$22
     00016AA7  A$UI_b$22 |    00016AA9  A$UI_b$22 |    00016AAB  A$UI_b$22
     00016AAC  A$UI_b$22 |    00016AAE  A$UI_b$22 |    00016AB0  A$UI_b$22
     00016AB0  C$UI_b.c$ |    00016AB2  A$UI_b$22 |    00016AB3  A$UI_b$22
     00016AB4  A$UI_b$22 |    00016AB5  A$UI_b$22 |    00016AB6  A$UI_b$22
     00016AB7  A$UI_b$22 |    00016AB9  A$UI_b$22 |    00016ABA  A$UI_b$22
     00016ABC  A$UI_b$22 |    00016ABD  A$UI_b$22 |    00016ABE  A$UI_b$22
     00016AC0  A$UI_b$22 |    00016AC1  A$UI_b$22 |    00016AC2  A$UI_b$22
     00016AC3  A$UI_b$22 |    00016AC4  A$UI_b$22 |    00016AC5  A$UI_b$22
     00016AC6  A$UI_b$22 |    00016AC7  A$UI_b$22 |    00016AC8  A$UI_b$22
     00016AC9  A$UI_b$22 |    00016ACB  A$UI_b$22 |    00016ACC  A$UI_b$22
     00016ACD  A$UI_b$22 |    00016ACE  A$UI_b$22 |    00016ACF  A$UI_b$22
     00016AD0  A$UI_b$22 |    00016AD2  A$UI_b$22 |    00016AD3  A$UI_b$22
     00016AD5  A$UI_b$22 |    00016AD6  A$UI_b$22 |    00016AD7  A$UI_b$22
     00016AD9  A$UI_b$22 |    00016ADA  A$UI_b$22 |    00016ADB  A$UI_b$22
     00016ADC  A$UI_b$22 |    00016ADD  A$UI_b$22 |    00016ADF  A$UI_b$22
     00016ADF  C$UI_b.c$ |    00016AE1  A$UI_b$22 |    00016AE2  A$UI_b$22
     00016AE3  A$UI_b$22 |    00016AE4  A$UI_b$22 |    00016AE5  A$UI_b$22
     00016AE6  A$UI_b$22 |    00016AE9  A$UI_b$22 |    00016AEA  A$UI_b$22
     00016AEB  A$UI_b$22 |    00016AED  A$UI_b$22 |    00016AEF  A$UI_b$22
     00016AF1  A$UI_b$22 |    00016AF3  A$UI_b$22 |    00016AF3  C$UI_b.c$
     00016AF5  A$UI_b$22 |    00016AF6  A$UI_b$22 |    00016AF7  A$UI_b$22
     00016AF8  A$UI_b$22 |    00016AF9  A$UI_b$22 |    00016AFA  A$UI_b$22
     00016AFC  A$UI_b$22 |    00016AFD  A$UI_b$22 |    00016AFF  A$UI_b$22
     00016B00  A$UI_b$22 |    00016B01  A$UI_b$22 |    00016B03  A$UI_b$22
     00016B04  A$UI_b$22 |    00016B05  A$UI_b$22 |    00016B06  A$UI_b$22
     00016B07  A$UI_b$22 |    00016B08  A$UI_b$22 |    00016B09  A$UI_b$22
     00016B0A  A$UI_b$22 |    00016B0B  A$UI_b$22 |    00016B0C  A$UI_b$22
     00016B0D  A$UI_b$22 |    00016B0E  A$UI_b$22 |    00016B0F  A$UI_b$22
     00016B10  A$UI_b$22 |    00016B12  A$UI_b$22 |    00016B13  A$UI_b$22
     00016B14  A$UI_b$22 |    00016B15  A$UI_b$22 |    00016B16  A$UI_b$22
     00016B17  A$UI_b$23 |    00016B19  A$UI_b$23 |    00016B1A  A$UI_b$23
     00016B1C  A$UI_b$23 |    00016B1D  A$UI_b$23 |    00016B1E  A$UI_b$23
     00016B20  A$UI_b$23 |    00016B21  A$UI_b$23 |    00016B22  A$UI_b$23
ASxxxx Linker V03.00 + NoICE + sdld,  page 107.
Hexadecimal  [32-Bits]

Area                       Addr        Size        Decimal Bytes (Attributes)
--------------------       ----        ----        ------- ----- ------------
_CODE_1                00014000    000032A5 =       12965. bytes (REL,CON)

        Value  Global            Value  Global            Value  Global    
        -----  ------            -----  ------            -----  ------    
     00016B23  A$UI_b$23 |    00016B24  A$UI_b$23 |    00016B25  A$UI_b$23
     00016B26  A$UI_b$23 |    00016B27  A$UI_b$23 |    00016B28  A$UI_b$23
     00016B29  A$UI_b$23 |    00016B2A  A$UI_b$23 |    00016B2A  C$UI_b.c$
     00016B2C  A$UI_b$23 |    00016B2D  A$UI_b$23 |    00016B2F  A$UI_b$23
     00016B30  A$UI_b$23 |    00016B32  A$UI_b$23 |    00016B33  A$UI_b$23
     00016B34  A$UI_b$23 |    00016B36  A$UI_b$23 |    00016B37  A$UI_b$23
     00016B38  A$UI_b$23 |    00016B39  A$UI_b$23 |    00016B3A  A$UI_b$23
     00016B3C  A$UI_b$23 |    00016B3C  C$UI_b.c$ |    00016B3F  A$UI_b$23
     00016B41  A$UI_b$23 |    00016B42  A$UI_b$23 |    00016B44  A$UI_b$23
     00016B45  A$UI_b$23 |    00016B46  A$UI_b$23 |    00016B47  A$UI_b$23
     00016B49  A$UI_b$23 |    00016B4A  A$UI_b$23 |    00016B4B  A$UI_b$23
     00016B4B  C$UI_b.c$ |    00016B4D  A$UI_b$23 |    00016B4E  A$UI_b$23
     00016B4E  C$UI_b.c$ |    00016B51  A$UI_b$23 |    00016B51  C$UI_b.c$
     00016B54  A$UI_b$23 |    00016B55  A$UI_b$23 |    00016B56  A$UI_b$23
     00016B58  A$UI_b$23 |    00016B59  A$UI_b$23 |    00016B59  C$UI_b.c$
     00016B5B  A$UI_b$23 |    00016B5C  A$UI_b$23 |    00016B5D  A$UI_b$23
     00016B5F  A$UI_b$23 |    00016B5F  C$UI_b.c$ |    00016B62  A$UI_b$23
     00016B64  A$UI_b$23 |    00016B65  A$UI_b$23 |    00016B67  A$UI_b$23
     00016B68  A$UI_b$23 |    00016B69  A$UI_b$23 |    00016B6A  A$UI_b$23
     00016B6C  A$UI_b$23 |    00016B6D  A$UI_b$23 |    00016B6F  A$UI_b$23
     00016B70  A$UI_b$23 |    00016B73  A$UI_b$23 |    00016B73  C$UI_b.c$
     00016B75  A$UI_b$23 |    00016B76  A$UI_b$23 |    00016B77  A$UI_b$23
     00016B79  A$UI_b$23 |    00016B79  C$UI_b.c$ |    00016B7C  A$UI_b$23
     00016B7E  A$UI_b$23 |    00016B7F  A$UI_b$24 |    00016B81  A$UI_b$24
     00016B82  A$UI_b$24 |    00016B84  A$UI_b$24 |    00016B87  A$UI_b$24
     00016B87  C$UI_b.c$ |    00016B88  A$UI_b$24 |    00016B8A  A$UI_b$24
     00016B8B  A$UI_b$24 |    00016B8D  A$UI_b$24 |    00016B8E  A$UI_b$24
     00016B8F  A$UI_b$24 |    00016B91  A$UI_b$24 |    00016B91  C$UI_b.c$
     00016B93  A$UI_b$24 |    00016B94  A$UI_b$24 |    00016B95  A$UI_b$24
     00016B96  A$UI_b$24 |    00016B98  A$UI_b$24 |    00016B99  A$UI_b$24
     00016B9B  A$UI_b$24 |    00016B9C  A$UI_b$24 |    00016B9D  A$UI_b$24
     00016B9E  A$UI_b$24 |    00016BA0  A$UI_b$24 |    00016BA1  A$UI_b$24
     00016BA2  A$UI_b$24 |    00016BA4  A$UI_b$24 |    00016BA5  A$UI_b$24
     00016BA6  A$UI_b$24 |    00016BA7  A$UI_b$24 |    00016BA8  A$UI_b$24
     00016BA9  A$UI_b$24 |    00016BAA  A$UI_b$24 |    00016BAB  A$UI_b$24
     00016BAC  A$UI_b$24 |    00016BAD  A$UI_b$24 |    00016BB0  A$UI_b$24
     00016BB1  A$UI_b$24 |    00016BB3  A$UI_b$24 |    00016BB4  A$UI_b$24
     00016BB5  A$UI_b$24 |    00016BB6  A$UI_b$24 |    00016BB7  A$UI_b$24
     00016BBA  A$UI_b$24 |    00016BBC  A$UI_b$24 |    00016BBD  A$UI_b$24
     00016BBE  A$UI_b$24 |    00016BC0  A$UI_b$24 |    00016BC2  A$UI_b$24
     00016BC3  A$UI_b$24 |    00016BC4  A$UI_b$24 |    00016BC5  A$UI_b$24
     00016BC6  A$UI_b$24 |    00016BC7  A$UI_b$24 |    00016BC8  A$UI_b$24
     00016BC8  C$UI_b.c$ |    00016BC9  A$UI_b$24 |    00016BCC  A$UI_b$24
     00016BCD  A$UI_b$24 |    00016BCF  A$UI_b$24 |    00016BD0  A$UI_b$24
     00016BD1  A$UI_b$24 |    00016BD2  A$UI_b$24 |    00016BD3  A$UI_b$24
     00016BD6  A$UI_b$24 |    00016BD8  A$UI_b$24 |    00016BD9  A$UI_b$24
     00016BDB  A$UI_b$24 |    00016BDC  A$UI_b$24 |    00016BDE  A$UI_b$24
     00016BDE  C$UI_b.c$ |    00016BE0  A$UI_b$24 |    00016BE1  A$UI_b$24
     00016BE1  C$UI_b.c$ |    00016BE3  A$UI_b$24 |    00016BE4  A$UI_b$24
     00016BE5  A$UI_b$24 |    00016BE7  A$UI_b$24 |    00016BE7  C$UI_b.c$
     00016BEA  A$UI_b$24 |    00016BEC  A$UI_b$24 |    00016BED  A$UI_b$24
ASxxxx Linker V03.00 + NoICE + sdld,  page 108.
Hexadecimal  [32-Bits]

Area                       Addr        Size        Decimal Bytes (Attributes)
--------------------       ----        ----        ------- ----- ------------
_CODE_1                00014000    000032A5 =       12965. bytes (REL,CON)

        Value  Global            Value  Global            Value  Global    
        -----  ------            -----  ------            -----  ------    
     00016BEF  A$UI_b$24 |    00016BF0  A$UI_b$25 |    00016BF1  A$UI_b$25
     00016BF2  A$UI_b$25 |    00016BF4  A$UI_b$25 |    00016BF5  A$UI_b$25
     00016BF6  A$UI_b$25 |    00016BF8  A$UI_b$25 |    00016BF9  A$UI_b$25
     00016BFA  A$UI_b$25 |    00016BFB  A$UI_b$25 |    00016BFD  A$UI_b$25
     00016BFE  A$UI_b$25 |    00016C00  A$UI_b$25 |    00016C01  A$UI_b$25
     00016C02  A$UI_b$25 |    00016C03  A$UI_b$25 |    00016C04  A$UI_b$25
     00016C06  A$UI_b$25 |    00016C07  A$UI_b$25 |    00016C08  A$UI_b$25
     00016C09  A$UI_b$25 |    00016C0A  A$UI_b$25 |    00016C0B  A$UI_b$25
     00016C0C  A$UI_b$25 |    00016C0C  C$UI_b.c$ |    00016C0E  A$UI_b$25
     00016C0F  A$UI_b$25 |    00016C0F  C$UI_b.c$ |    00016C10  A$UI_b$25
     00016C11  A$UI_b$25 |    00016C13  A$UI_b$25 |    00016C13  C$UI_b.c$
     00016C15  A$UI_b$25 |    00016C16  A$UI_b$25 |    00016C16  C$UI_b.c$
     00016C17  A$UI_b$25 |    00016C19  A$UI_b$25 |    00016C1A  A$UI_b$25
     00016C1C  A$UI_b$25 |    00016C1E  A$UI_b$25 |    00016C1E  C$UI_b.c$
     00016C20  A$UI_b$25 |    00016C21  A$UI_b$25 |    00016C22  A$UI_b$25
     00016C24  A$UI_b$25 |    00016C24  C$UI_b.c$ |    00016C26  A$UI_b$25
     00016C27  A$UI_b$25 |    00016C29  A$UI_b$25 |    00016C2A  A$UI_b$25
     00016C2C  A$UI_b$25 |    00016C2C  C$UI_b.c$ |    00016C2E  A$UI_b$25
     00016C2F  A$UI_b$25 |    00016C31  A$UI_b$25 |    00016C33  A$UI_b$25
     00016C35  A$UI_b$25 |    00016C36  A$UI_b$25 |    00016C37  A$UI_b$25
     00016C38  A$UI_b$25 |    00016C39  A$UI_b$25 |    00016C3B  A$UI_b$25
     00016C3D  A$UI_b$25 |    00016C3D  C$UI_b.c$ |    00016C3F  A$UI_b$25
     00016C40  A$UI_b$25 |    00016C41  A$UI_b$25 |    00016C42  A$UI_b$25
     00016C43  A$UI_b$25 |    00016C45  A$UI_b$25 |    00016C47  A$UI_b$25
     00016C47  C$UI_b.c$ |    00016C48  A$UI_b$25 |    00016C49  A$UI_b$25
     00016C4A  A$UI_b$25 |    00016C4B  A$UI_b$25 |    00016C4C  A$UI_b$25
     00016C4E  A$UI_b$25 |    00016C4F  A$UI_b$26 |    00016C4F  C$UI_b.c$
     00016C52  A$UI_b$26 |    00016C54  A$UI_b$26 |    00016C55  A$UI_b$26
     00016C57  A$UI_b$26 |    00016C58  A$UI_b$26 |    00016C59  A$UI_b$26
     00016C5A  A$UI_b$26 |    00016C5B  A$UI_b$26 |    00016C5D  A$UI_b$26
     00016C5E  A$UI_b$26 |    00016C5E  C$UI_b.c$ |    00016C60  A$UI_b$26
     00016C61  A$UI_b$26 |    00016C63  A$UI_b$26 |    00016C64  A$UI_b$26
     00016C66  A$UI_b$26 |    00016C66  C$UI_b.c$ |    00016C69  A$UI_b$26
     00016C6B  A$UI_b$26 |    00016C6C  A$UI_b$26 |    00016C6E  A$UI_b$26
     00016C6F  A$UI_b$26 |    00016C70  A$UI_b$26 |    00016C71  A$UI_b$26
     00016C73  A$UI_b$26 |    00016C74  A$UI_b$26 |    00016C75  A$UI_b$26
     00016C77  A$UI_b$26 |    00016C77  C$UI_b.c$ |    00016C7A  A$UI_b$26
     00016C7C  A$UI_b$26 |    00016C7D  A$UI_b$26 |    00016C7F  A$UI_b$26
     00016C80  A$UI_b$26 |    00016C81  A$UI_b$26 |    00016C82  A$UI_b$26
     00016C84  A$UI_b$26 |    00016C85  A$UI_b$26 |    00016C86  A$UI_b$26
     00016C86  C$UI_b.c$ |    00016C88  A$UI_b$26 |    00016C89  A$UI_b$26
     00016C89  C$UI_b.c$ |    00016C8B  A$UI_b$26 |    00016C8C  A$UI_b$26
     00016C8F  A$UI_b$26 |    00016C8F  C$UI_b.c$ |    00016C92  A$UI_b$26
     00016C93  A$UI_b$26 |    00016C93  C$UI_b.c$ |    00016C96  A$UI_b$26
     00016C97  A$UI_b$26 |    00016C99  A$UI_b$26 |    00016C99  C$UI_b.c$
     00016C9C  A$UI_b$26 |    00016C9D  A$UI_b$26 |    00016C9D  C$UI_b.c$
     00016C9E  A$UI_b$26 |    00016CA0  A$UI_b$26 |    00016CA1  A$UI_b$26
     00016CA2  A$UI_b$26 |    00016CA3  A$UI_b$26 |    00016CA4  A$UI_b$26
     00016CA5  A$UI_b$26 |    00016CA6  A$UI_b$26 |    00016CA7  A$UI_b$26
     00016CAA  A$UI_b$26 |    00016CAC  A$UI_b$26 |    00016CAC  C$UI_b.c$
     00016CAF  A$UI_b$26 |    00016CB0  A$UI_b$26 |    00016CB3  A$UI_b$27
ASxxxx Linker V03.00 + NoICE + sdld,  page 109.
Hexadecimal  [32-Bits]

Area                       Addr        Size        Decimal Bytes (Attributes)
--------------------       ----        ----        ------- ----- ------------
_CODE_1                00014000    000032A5 =       12965. bytes (REL,CON)

        Value  Global            Value  Global            Value  Global    
        -----  ------            -----  ------            -----  ------    
     00016CB5  A$UI_b$27 |    00016CB5  C$UI_b.c$ |    00016CB8  A$UI_b$27
     00016CBA  A$UI_b$27 |    00016CBB  A$UI_b$27 |    00016CBC  A$UI_b$27
     00016CBD  A$UI_b$27 |    00016CBE  A$UI_b$27 |    00016CC0  A$UI_b$27
     00016CC1  A$UI_b$27 |    00016CC4  A$UI_b$27 |    00016CC5  A$UI_b$27
     00016CC6  A$UI_b$27 |    00016CC7  A$UI_b$27 |    00016CC8  A$UI_b$27
     00016CCA  A$UI_b$27 |    00016CCB  A$UI_b$27 |    00016CCE  A$UI_b$27
     00016CD0  A$UI_b$27 |    00016CD2  A$UI_b$27 |    00016CD2  C$UI_b.c$
     00016CD3  A$UI_b$27 |    00016CD5  A$UI_b$27 |    00016CD7  A$UI_b$27
     00016CDA  A$UI_b$27 |    00016CDD  A$UI_b$27 |    00016CDE  A$UI_b$27
     00016CDE  C$UI_b.c$ |    00016CDF  A$UI_b$27 |    00016CE0  A$UI_b$27
     00016CE1  A$UI_b$27 |    00016CE4  A$UI_b$27 |    00016CE5  A$UI_b$27
     00016CE5  C$UI_b.c$ |    00016CE7  A$UI_b$27 |    00016CE8  A$UI_b$27
     00016CE9  A$UI_b$27 |    00016CEA  A$UI_b$27 |    00016CEB  A$UI_b$27
     00016CEC  A$UI_b$27 |    00016CEF  A$UI_b$27 |    00016CF1  A$UI_b$27
     00016CF1  C$UI_b.c$ |    00016CF4  A$UI_b$27 |    00016CF6  A$UI_b$27
     00016CF7  A$UI_b$27 |    00016CF8  A$UI_b$27 |    00016CF9  A$UI_b$27
     00016CFA  A$UI_b$27 |    00016CFC  A$UI_b$27 |    00016CFD  A$UI_b$27
     00016D00  A$UI_b$27 |    00016D01  A$UI_b$27 |    00016D02  A$UI_b$27
     00016D03  A$UI_b$27 |    00016D04  A$UI_b$27 |    00016D05  A$UI_b$27
     00016D06  A$UI_b$27 |    00016D07  A$UI_b$27 |    00016D08  A$UI_b$27
     00016D0B  A$UI_b$27 |    00016D0D  A$UI_b$27 |    00016D0D  C$UI_b.c$
     00016D10  A$UI_b$27 |    00016D12  A$UI_b$27 |    00016D12  C$UI_b.c$
     00016D15  A$UI_b$27 |    00016D17  A$UI_b$27 |    00016D17  C$UI_b.c$
     00016D1A  A$UI_b$27 |    00016D1C  A$UI_b$27 |    00016D1C  C$UI_b.c$
     00016D1F  A$UI_b$27 |    00016D21  A$UI_b$27 |    00016D21  C$UI_b.c$
     00016D24  A$UI_b$27 |    00016D26  A$UI_b$28 |    00016D26  C$UI_b.c$
     00016D29  A$UI_b$28 |    00016D2A  A$UI_b$28 |    00016D2C  A$UI_b$28
     00016D2C  C$UI_b.c$ |    00016D2F  A$UI_b$28 |    00016D31  A$UI_b$28
     00016D31  C$UI_b.c$ |    00016D31  XG$UIShow |    00016D32  A$UI_b$28
     00016D32  C$UI_b.c$ |    00016D32  G$UIDrawT |    00016D32  _UIDrawTe
     00016D34  A$UI_b$28 |    00016D34  C$UI_b.c$ |    00016D37  A$UI_b$28
     00016D38  A$UI_b$28 |    00016D39  A$UI_b$28 |    00016D3B  A$UI_b$28
     00016D3B  C$UI_b.c$ |    00016D3C  A$UI_b$28 |    00016D3C  C$UI_b.c$
     00016D3F  A$UI_b$28 |    00016D3F  C$UI_b.c$ |    00016D42  A$UI_b$28
     00016D43  A$UI_b$28 |    00016D46  A$UI_b$28 |    00016D48  A$UI_b$28
     00016D49  A$UI_b$28 |    00016D49  C$UI_b.c$ |    00016D4C  A$UI_b$28
     00016D4D  A$UI_b$28 |    00016D4E  A$UI_b$28 |    00016D50  A$UI_b$28
     00016D53  A$UI_b$28 |    00016D53  C$UI_b.c$ |    00016D56  A$UI_b$28
     00016D58  A$UI_b$28 |    00016D58  C$UI_b.c$ |    00016D5B  A$UI_b$28
     00016D5C  A$UI_b$28 |    00016D5E  A$UI_b$28 |    00016D5E  C$UI_b.c$
     00016D61  A$UI_b$28 |    00016D63  A$UI_b$28 |    00016D63  C$UI_b.c$
     00016D66  A$UI_b$28 |    00016D68  A$UI_b$28 |    00016D68  C$UI_b.c$
     00016D6B  A$UI_b$28 |    00016D6E  A$UI_b$28 |    00016D6F  A$UI_b$28
     00016D71  A$UI_b$28 |    00016D72  A$UI_b$28 |    00016D73  A$UI_b$28
     00016D74  A$UI_b$28 |    00016D75  A$UI_b$28 |    00016D76  A$UI_b$28
     00016D77  A$UI_b$28 |    00016D78  A$UI_b$28 |    00016D7A  A$UI_b$28
     00016D7C  A$UI_b$29 |    00016D7D  A$UI_b$29 |    00016D7D  C$UI_b.c$
     00016D80  A$UI_b$29 |    00016D81  A$UI_b$29 |    00016D83  A$UI_b$29
     00016D84  A$UI_b$29 |    00016D85  A$UI_b$29 |    00016D88  A$UI_b$29
     00016D89  A$UI_b$29 |    00016D8B  A$UI_b$29 |    00016D8C  A$UI_b$29
     00016D8D  A$UI_b$29 |    00016D8F  A$UI_b$29 |    00016D8F  C$UI_b.c$
ASxxxx Linker V03.00 + NoICE + sdld,  page 110.
Hexadecimal  [32-Bits]

Area                       Addr        Size        Decimal Bytes (Attributes)
--------------------       ----        ----        ------- ----- ------------
_CODE_1                00014000    000032A5 =       12965. bytes (REL,CON)

        Value  Global            Value  Global            Value  Global    
        -----  ------            -----  ------            -----  ------    
     00016D91  A$UI_b$29 |    00016D92  A$UI_b$29 |    00016D93  A$UI_b$29
     00016D95  A$UI_b$29 |    00016D97  A$UI_b$29 |    00016D98  A$UI_b$29
     00016D99  A$UI_b$29 |    00016D9B  A$UI_b$29 |    00016D9D  A$UI_b$29
     00016D9D  C$UI_b.c$ |    00016D9E  A$UI_b$29 |    00016D9E  C$UI_b.c$
     00016D9F  A$UI_b$29 |    00016DA1  A$UI_b$29 |    00016DA1  C$UI_b.c$
     00016DA3  A$UI_b$29 |    00016DA4  A$UI_b$29 |    00016DA5  A$UI_b$29
     00016DA6  A$UI_b$29 |    00016DA7  A$UI_b$29 |    00016DA8  A$UI_b$29
     00016DA9  A$UI_b$29 |    00016DAA  A$UI_b$29 |    00016DAB  A$UI_b$29
     00016DAC  A$UI_b$29 |    00016DAD  A$UI_b$29 |    00016DAF  A$UI_b$29
     00016DB1  A$UI_b$29 |    00016DB3  A$UI_b$29 |    00016DB4  A$UI_b$29
     00016DB5  A$UI_b$29 |    00016DB7  A$UI_b$29 |    00016DB8  A$UI_b$29
     00016DB9  A$UI_b$29 |    00016DBA  A$UI_b$29 |    00016DBB  A$UI_b$29
     00016DBC  A$UI_b$29 |    00016DBD  A$UI_b$29 |    00016DC0  A$UI_b$29
     00016DC1  A$UI_b$29 |    00016DC2  A$UI_b$29 |    00016DC3  A$UI_b$29
     00016DC4  A$UI_b$29 |    00016DC5  A$UI_b$29 |    00016DC7  A$UI_b$29
     00016DC8  A$UI_b$29 |    00016DC9  A$UI_b$29 |    00016DCB  A$UI_b$29
     00016DCD  A$UI_b$29 |    00016DCD  C$UI_b.c$ |    00016DD0  A$UI_b$29
     00016DD2  A$UI_b$29 |    00016DD2  C$UI_b.c$ |    00016DD5  A$UI_b$29
     00016DD6  A$UI_b$29 |    00016DD6  C$UI_b.c$ |    00016DD7  A$UI_b$29
     00016DD8  A$UI_b$29 |    00016DD9  A$UI_b$29 |    00016DDB  A$UI_b$29
     00016DDE  A$UI_b$30 |    00016DDE  C$UI_b.c$ |    00016DE1  A$UI_b$30
     00016DE2  A$UI_b$30 |    00016DE3  A$UI_b$30 |    00016DE5  A$UI_b$30
     00016DE6  A$UI_b$30 |    00016DE9  A$UI_b$30 |    00016DEB  A$UI_b$30
     00016DEC  A$UI_b$30 |    00016DED  A$UI_b$30 |    00016DEE  A$UI_b$30
     00016DEF  A$UI_b$30 |    00016DF0  A$UI_b$30 |    00016DF1  A$UI_b$30
     00016DF1  C$UI_b.c$ |    00016DF2  A$UI_b$30 |    00016DF3  A$UI_b$30
     00016DF4  A$UI_b$30 |    00016DF5  A$UI_b$30 |    00016DF6  A$UI_b$30
     00016DF7  A$UI_b$30 |    00016DF8  A$UI_b$30 |    00016DF9  A$UI_b$30
     00016DFA  A$UI_b$30 |    00016DFC  A$UI_b$30 |    00016DFD  A$UI_b$30
     00016DFE  A$UI_b$30 |    00016DFF  A$UI_b$30 |    00016E01  A$UI_b$30
     00016E02  A$UI_b$30 |    00016E04  A$UI_b$30 |    00016E05  A$UI_b$30
     00016E07  A$UI_b$30 |    00016E08  A$UI_b$30 |    00016E0A  A$UI_b$30
     00016E0B  A$UI_b$30 |    00016E0C  A$UI_b$30 |    00016E0D  A$UI_b$30
     00016E0E  A$UI_b$30 |    00016E11  A$UI_b$30 |    00016E12  A$UI_b$30
     00016E13  A$UI_b$30 |    00016E14  A$UI_b$30 |    00016E16  A$UI_b$30
     00016E17  A$UI_b$30 |    00016E18  A$UI_b$30 |    00016E19  A$UI_b$30
     00016E1A  A$UI_b$30 |    00016E1C  A$UI_b$30 |    00016E1D  A$UI_b$30
     00016E1E  A$UI_b$30 |    00016E1F  A$UI_b$30 |    00016E20  A$UI_b$30
     00016E21  A$UI_b$30 |    00016E22  A$UI_b$30 |    00016E24  A$UI_b$30
     00016E25  A$UI_b$30 |    00016E26  A$UI_b$30 |    00016E28  A$UI_b$30
     00016E29  A$UI_b$30 |    00016E2B  A$UI_b$30 |    00016E2C  A$UI_b$30
     00016E2F  A$UI_b$30 |    00016E31  A$UI_b$30 |    00016E31  C$UI_b.c$
     00016E33  A$UI_b$30 |    00016E34  A$UI_b$30 |    00016E36  A$UI_b$30
     00016E37  A$UI_b$30 |    00016E37  C$UI_b.c$ |    00016E3A  A$UI_b$30
     00016E3C  A$UI_b$30 |    00016E3D  A$UI_b$30 |    00016E3E  A$UI_b$30
     00016E3F  A$UI_b$30 |    00016E40  A$UI_b$30 |    00016E41  A$UI_b$30
     00016E42  A$UI_b$30 |    00016E43  A$UI_b$30 |    00016E46  A$UI_b$30
     00016E47  A$UI_b$30 |    00016E48  A$UI_b$30 |    00016E49  A$UI_b$30
     00016E4B  A$UI_b$30 |    00016E4C  A$UI_b$30 |    00016E4D  A$UI_b$30
     00016E50  A$UI_b$30 |    00016E52  A$UI_b$30 |    00016E53  A$UI_b$30
     00016E54  A$UI_b$30 |    00016E55  A$UI_b$30 |    00016E56  A$UI_b$30
ASxxxx Linker V03.00 + NoICE + sdld,  page 111.
Hexadecimal  [32-Bits]

Area                       Addr        Size        Decimal Bytes (Attributes)
--------------------       ----        ----        ------- ----- ------------
_CODE_1                00014000    000032A5 =       12965. bytes (REL,CON)

        Value  Global            Value  Global            Value  Global    
        -----  ------            -----  ------            -----  ------    
     00016E57  A$UI_b$30 |    00016E58  A$UI_b$31 |    00016E59  A$UI_b$31
     00016E5A  A$UI_b$31 |    00016E5C  A$UI_b$31 |    00016E5D  A$UI_b$31
     00016E5F  A$UI_b$31 |    00016E60  A$UI_b$31 |    00016E61  A$UI_b$31
     00016E62  A$UI_b$31 |    00016E63  A$UI_b$31 |    00016E65  A$UI_b$31
     00016E66  A$UI_b$31 |    00016E67  A$UI_b$31 |    00016E68  A$UI_b$31
     00016E69  A$UI_b$31 |    00016E6A  A$UI_b$31 |    00016E6B  A$UI_b$31
     00016E6D  A$UI_b$31 |    00016E6E  A$UI_b$31 |    00016E6F  A$UI_b$31
     00016E72  A$UI_b$31 |    00016E74  A$UI_b$31 |    00016E75  A$UI_b$31
     00016E76  A$UI_b$31 |    00016E77  A$UI_b$31 |    00016E78  A$UI_b$31
     00016E79  A$UI_b$31 |    00016E7A  A$UI_b$31 |    00016E7B  A$UI_b$31
     00016E7D  A$UI_b$31 |    00016E7E  A$UI_b$31 |    00016E7F  A$UI_b$31
     00016E80  A$UI_b$31 |    00016E81  A$UI_b$31 |    00016E82  A$UI_b$31
     00016E83  A$UI_b$31 |    00016E85  A$UI_b$31 |    00016E86  A$UI_b$31
     00016E87  A$UI_b$31 |    00016E8A  A$UI_b$31 |    00016E8D  A$UI_b$31
     00016E8E  A$UI_b$31 |    00016E90  A$UI_b$31 |    00016E92  A$UI_b$31
     00016E94  A$UI_b$31 |    00016E95  A$UI_b$31 |    00016E96  A$UI_b$31
     00016E97  A$UI_b$31 |    00016E99  A$UI_b$31 |    00016E9A  A$UI_b$31
     00016E9C  A$UI_b$31 |    00016E9D  A$UI_b$31 |    00016E9E  A$UI_b$31
     00016EA0  A$UI_b$31 |    00016EA1  A$UI_b$31 |    00016EA2  A$UI_b$31
     00016EA3  A$UI_b$31 |    00016EA5  A$UI_b$31 |    00016EA6  A$UI_b$31
     00016EA7  A$UI_b$31 |    00016EA8  A$UI_b$31 |    00016EA9  A$UI_b$31
     00016EAA  A$UI_b$31 |    00016EAB  A$UI_b$31 |    00016EAD  A$UI_b$31
     00016EAE  A$UI_b$31 |    00016EAF  A$UI_b$31 |    00016EB0  A$UI_b$31
     00016EB1  A$UI_b$31 |    00016EB3  A$UI_b$31 |    00016EB4  A$UI_b$31
     00016EB5  A$UI_b$31 |    00016EB6  A$UI_b$31 |    00016EB8  A$UI_b$31
     00016EB9  A$UI_b$31 |    00016EBA  A$UI_b$31 |    00016EBB  A$UI_b$31
     00016EBC  A$UI_b$31 |    00016EBF  A$UI_b$31 |    00016EC0  A$UI_b$31
     00016EC1  A$UI_b$31 |    00016EC2  A$UI_b$31 |    00016EC4  A$UI_b$31
     00016EC5  A$UI_b$31 |    00016EC6  A$UI_b$31 |    00016EC6  C$UI_b.c$
     00016EC9  A$UI_b$31 |    00016ECA  A$UI_b$31 |    00016ECB  A$UI_b$31
     00016ECE  A$UI_b$31 |    00016ECF  A$UI_b$31 |    00016ED0  A$UI_b$31
     00016ED3  A$UI_b$31 |    00016ED5  A$UI_b$31 |    00016ED7  A$UI_b$31
     00016ED8  A$UI_b$31 |    00016ED9  A$UI_b$32 |    00016EDA  A$UI_b$32
     00016EDB  A$UI_b$32 |    00016EDC  A$UI_b$32 |    00016EDD  A$UI_b$32
     00016EDE  A$UI_b$32 |    00016EE1  A$UI_b$32 |    00016EE2  A$UI_b$32
     00016EE3  A$UI_b$32 |    00016EE4  A$UI_b$32 |    00016EE6  A$UI_b$32
     00016EE7  A$UI_b$32 |    00016EE8  A$UI_b$32 |    00016EE9  A$UI_b$32
     00016EEA  A$UI_b$32 |    00016EEC  A$UI_b$32 |    00016EED  A$UI_b$32
     00016EEE  A$UI_b$32 |    00016EEF  A$UI_b$32 |    00016EF1  A$UI_b$32
     00016EF2  A$UI_b$32 |    00016EF3  A$UI_b$32 |    00016EF4  A$UI_b$32
     00016EF5  A$UI_b$32 |    00016EF7  A$UI_b$32 |    00016EF8  A$UI_b$32
     00016EF9  A$UI_b$32 |    00016EFA  A$UI_b$32 |    00016EFC  A$UI_b$32
     00016EFD  A$UI_b$32 |    00016EFF  A$UI_b$32 |    00016F00  A$UI_b$32
     00016F02  A$UI_b$32 |    00016F03  A$UI_b$32 |    00016F05  A$UI_b$32
     00016F06  A$UI_b$32 |    00016F07  A$UI_b$32 |    00016F08  A$UI_b$32
     00016F09  A$UI_b$32 |    00016F0B  A$UI_b$32 |    00016F0C  A$UI_b$32
     00016F0D  A$UI_b$32 |    00016F0E  A$UI_b$32 |    00016F0F  A$UI_b$32
     00016F10  A$UI_b$32 |    00016F11  A$UI_b$32 |    00016F13  A$UI_b$32
     00016F14  A$UI_b$32 |    00016F15  A$UI_b$32 |    00016F16  A$UI_b$32
     00016F17  A$UI_b$32 |    00016F18  A$UI_b$32 |    00016F19  A$UI_b$32
     00016F19  C$UI_b.c$ |    00016F1B  A$UI_b$32 |    00016F1C  A$UI_b$32
ASxxxx Linker V03.00 + NoICE + sdld,  page 112.
Hexadecimal  [32-Bits]

Area                       Addr        Size        Decimal Bytes (Attributes)
--------------------       ----        ----        ------- ----- ------------
_CODE_1                00014000    000032A5 =       12965. bytes (REL,CON)

        Value  Global            Value  Global            Value  Global    
        -----  ------            -----  ------            -----  ------    
     00016F1D  A$UI_b$32 |    00016F1E  A$UI_b$32 |    00016F1F  A$UI_b$32
     00016F22  A$UI_b$32 |    00016F24  A$UI_b$32 |    00016F24  C$UI_b.c$
     00016F27  A$UI_b$32 |    00016F28  A$UI_b$32 |    00016F28  C$UI_b.c$
     00016F2A  A$UI_b$32 |    00016F2D  A$UI_b$32 |    00016F2E  A$UI_b$32
     00016F2F  A$UI_b$32 |    00016F31  A$UI_b$32 |    00016F33  A$UI_b$32
     00016F34  A$UI_b$32 |    00016F35  A$UI_b$32 |    00016F37  A$UI_b$32
     00016F38  A$UI_b$32 |    00016F3A  A$UI_b$32 |    00016F3C  A$UI_b$32
     00016F3C  C$UI_b.c$ |    00016F3D  A$UI_b$32 |    00016F3F  A$UI_b$32
     00016F41  A$UI_b$32 |    00016F43  A$UI_b$32 |    00016F44  A$UI_b$32
     00016F46  A$UI_b$32 |    00016F47  A$UI_b$32 |    00016F48  A$UI_b$32
     00016F49  A$UI_b$32 |    00016F4A  A$UI_b$32 |    00016F4B  A$UI_b$32
     00016F4E  A$UI_b$32 |    00016F4F  A$UI_b$33 |    00016F50  A$UI_b$33
     00016F51  A$UI_b$33 |    00016F52  A$UI_b$33 |    00016F53  A$UI_b$33
     00016F54  A$UI_b$33 |    00016F55  A$UI_b$33 |    00016F57  A$UI_b$33
     00016F58  A$UI_b$33 |    00016F59  A$UI_b$33 |    00016F5A  A$UI_b$33
     00016F5B  A$UI_b$33 |    00016F5C  A$UI_b$33 |    00016F5D  A$UI_b$33
     00016F5E  A$UI_b$33 |    00016F61  A$UI_b$33 |    00016F61  C$UI_b.c$
     00016F64  A$UI_b$33 |    00016F65  A$UI_b$33 |    00016F65  C$UI_b.c$
     00016F68  A$UI_b$33 |    00016F69  A$UI_b$33 |    00016F69  C$UI_b.c$
     00016F6C  A$UI_b$33 |    00016F6D  A$UI_b$33 |    00016F6F  A$UI_b$33
     00016F72  A$UI_b$33 |    00016F73  A$UI_b$33 |    00016F74  A$UI_b$33
     00016F76  A$UI_b$33 |    00016F78  A$UI_b$33 |    00016F79  A$UI_b$33
     00016F7A  A$UI_b$33 |    00016F7A  C$UI_b.c$ |    00016F7D  A$UI_b$33
     00016F7E  A$UI_b$33 |    00016F7F  A$UI_b$33 |    00016F7F  C$UI_b.c$
     00016F81  A$UI_b$33 |    00016F83  A$UI_b$33 |    00016F83  C$UI_b.c$
     00016F86  A$UI_b$33 |    00016F88  A$UI_b$33 |    00016F88  C$UI_b.c$
     00016F8B  A$UI_b$33 |    00016F8C  A$UI_b$33 |    00016F8C  C$UI_b.c$
     00016F8F  A$UI_b$33 |    00016F90  A$UI_b$33 |    00016F92  A$UI_b$33
     00016F92  C$UI_b.c$ |    00016F95  A$UI_b$33 |    00016F96  A$UI_b$33
     00016F98  A$UI_b$33 |    00016F99  A$UI_b$33 |    00016F9B  A$UI_b$33
     00016F9D  A$UI_b$33 |    00016F9D  C$UI_b.c$ |    00016FA0  A$UI_b$33
     00016FA2  A$UI_b$33 |    00016FA2  C$UI_b.c$ |    00016FA5  A$UI_b$33
     00016FA6  A$UI_b$33 |    00016FA6  C$UI_b.c$ |    00016FA9  A$UI_b$33
     00016FAA  A$UI_b$33 |    00016FAC  A$UI_b$33 |    00016FAC  C$UI_b.c$
     00016FAF  A$UI_b$34 |    00016FB1  A$UI_b$34 |    00016FB1  C$UI_b.c$
     00016FB4  A$UI_b$34 |    00016FB6  A$UI_b$34 |    00016FB8  A$UI_b$34
     00016FB8  C$UI_b.c$ |    00016FB8  XG$UIDraw |    00016FB9  A$UI_b$34
     00016FB9  C$UI_b.c$ |    00016FB9  C$UI_b.c$ |    00016FB9  G$UIClose
     00016FB9  _UICloseD |    00016FBC  A$UI_b$34 |    00016FBD  A$UI_b$34
     00016FBF  A$UI_b$34 |    00016FC2  A$UI_b$34 |    00016FC4  A$UI_b$34
     00016FC7  A$UI_b$34 |    00016FC8  A$UI_b$34 |    00016FCB  A$UI_b$34
     00016FCC  A$UI_b$34 |    00016FCD  A$UI_b$34 |    00016FCE  A$UI_b$34
     00016FD0  A$UI_b$34 |    00016FD1  A$UI_b$34 |    00016FD2  A$UI_b$34
     00016FD3  A$UI_b$34 |    00016FD4  A$UI_b$34 |    00016FD7  A$UI_b$34
     00016FD9  A$UI_b$34 |    00016FD9  C$UI_b.c$ |    00016FDC  A$UI_b$34
     00016FDE  A$UI_b$34 |    00016FDE  C$UI_b.c$ |    00016FE1  A$UI_b$34
     00016FE3  A$UI_b$34 |    00016FE3  C$UI_b.c$ |    00016FE6  A$UI_b$34
     00016FE8  A$UI_b$34 |    00016FE8  C$UI_b.c$ |    00016FEB  A$UI_b$34
     00016FED  A$UI_b$34 |    00016FED  C$UI_b.c$ |    00016FF0  A$UI_b$34
     00016FF2  A$UI_b$34 |    00016FF2  C$UI_b.c$ |    00016FF5  A$UI_b$34
     00016FF7  A$UI_b$34 |    00016FF7  C$UI_b.c$ |    00016FFA  A$UI_b$34
ASxxxx Linker V03.00 + NoICE + sdld,  page 113.
Hexadecimal  [32-Bits]

Area                       Addr        Size        Decimal Bytes (Attributes)
--------------------       ----        ----        ------- ----- ------------
_CODE_1                00014000    000032A5 =       12965. bytes (REL,CON)

        Value  Global            Value  Global            Value  Global    
        -----  ------            -----  ------            -----  ------    
     00016FFC  A$UI_b$34 |    00016FFC  C$UI_b.c$ |    00016FFF  A$UI_b$34
     00017001  A$UI_b$34 |    00017001  C$UI_b.c$ |    00017001  XG$UIClos
     00017002  A$UI_b$35 |    00017002  C$UI_b.c$ |    00017002  G$UIOnInt
     00017002  _UIOnInte |    00017004  A$UI_b$35 |    00017007  A$UI_b$35
     00017009  A$UI_b$35 |    0001700A  A$UI_b$35 |    0001700D  A$UI_b$35
     0001700F  A$UI_b$35 |    00017010  A$UI_b$35 |    00017013  A$UI_b$35
     00017015  A$UI_b$35 |    00017016  A$UI_b$35 |    00017017  A$UI_b$35
     00017018  A$UI_b$35 |    00017019  A$UI_b$35 |    0001701A  A$UI_b$35
     0001701D  A$UI_b$35 |    0001701F  A$UI_b$35 |    00017020  A$UI_b$35
     00017021  A$UI_b$35 |    00017022  A$UI_b$35 |    00017023  A$UI_b$35
     00017023  C$UI_b.c$ |    00017026  A$UI_b$35 |    00017027  A$UI_b$35
     00017029  A$UI_b$35 |    00017029  C$UI_b.c$ |    0001702A  A$UI_b$35
     0001702B  A$UI_b$35 |    0001702C  A$UI_b$35 |    0001702D  A$UI_b$35
     0001702E  A$UI_b$35 |    00017031  A$UI_b$35 |    00017032  A$UI_b$35
     00017033  A$UI_b$35 |    00017034  A$UI_b$35 |    00017036  A$UI_b$35
     00017037  A$UI_b$35 |    00017038  A$UI_b$35 |    00017038  C$UI_b.c$
     0001703A  A$UI_b$35 |    0001703C  A$UI_b$35 |    0001703E  A$UI_b$35
     00017040  A$UI_b$35 |    00017042  A$UI_b$35 |    00017044  A$UI_b$35
     00017044  C$UI_b.c$ |    00017047  A$UI_b$35 |    00017048  A$UI_b$35
     0001704B  A$UI_b$35 |    0001704E  A$UI_b$35 |    0001704F  A$UI_b$35
     00017052  A$UI_b$35 |    00017052  C$UI_b.c$ |    00017055  A$UI_b$35
     00017056  A$UI_b$35 |    00017058  A$UI_b$35 |    00017058  C$UI_b.c$
     0001705B  A$UI_b$35 |    0001705C  A$UI_b$35 |    0001705E  A$UI_b$35
     00017060  A$UI_b$35 |    00017061  A$UI_b$35 |    00017063  A$UI_b$35
     00017064  A$UI_b$35 |    00017066  A$UI_b$35 |    00017068  A$UI_b$35
     00017069  A$UI_b$35 |    0001706B  A$UI_b$35 |    0001706C  A$UI_b$35
     0001706E  A$UI_b$35 |    0001706E  C$UI_b.c$ |    00017070  A$UI_b$35
     00017073  A$UI_b$35 |    00017074  A$UI_b$35 |    00017075  A$UI_b$36
     00017077  A$UI_b$36 |    00017078  A$UI_b$36 |    00017079  A$UI_b$36
     0001707A  A$UI_b$36 |    0001707B  A$UI_b$36 |    0001707C  A$UI_b$36
     0001707E  A$UI_b$36 |    0001707E  C$UI_b.c$ |    00017080  A$UI_b$36
     00017083  A$UI_b$36 |    00017084  A$UI_b$36 |    00017085  A$UI_b$36
     00017087  A$UI_b$36 |    00017088  A$UI_b$36 |    00017089  A$UI_b$36
     0001708A  A$UI_b$36 |    0001708C  A$UI_b$36 |    0001708D  A$UI_b$36
     0001708E  A$UI_b$36 |    0001708E  C$UI_b.c$ |    00017091  A$UI_b$36
     00017094  A$UI_b$36 |    00017094  C$UI_b.c$ |    00017097  A$UI_b$36
     0001709A  A$UI_b$36 |    0001709A  C$UI_b.c$ |    0001709D  A$UI_b$36
     0001709E  A$UI_b$36 |    000170A1  A$UI_b$36 |    000170A1  C$UI_b.c$
     000170A3  A$UI_b$36 |    000170A5  A$UI_b$36 |    000170A7  A$UI_b$36
     000170A9  A$UI_b$36 |    000170AB  A$UI_b$36 |    000170AD  A$UI_b$36
     000170AD  C$UI_b.c$ |    000170AF  A$UI_b$36 |    000170B0  A$UI_b$36
     000170B1  A$UI_b$36 |    000170B2  A$UI_b$36 |    000170B3  A$UI_b$36
     000170B4  A$UI_b$36 |    000170B6  A$UI_b$36 |    000170B7  A$UI_b$36
     000170B8  A$UI_b$36 |    000170B9  A$UI_b$36 |    000170BB  A$UI_b$36
     000170BD  A$UI_b$36 |    000170BF  A$UI_b$36 |    000170C1  A$UI_b$36
     000170C2  A$UI_b$36 |    000170C4  A$UI_b$36 |    000170C6  A$UI_b$36
     000170C8  A$UI_b$36 |    000170C9  A$UI_b$36 |    000170CB  A$UI_b$36
     000170CE  A$UI_b$36 |    000170CF  A$UI_b$36 |    000170D1  A$UI_b$36
     000170D2  A$UI_b$36 |    000170D3  A$UI_b$36 |    000170D4  A$UI_b$36
     000170D5  A$UI_b$36 |    000170D6  A$UI_b$36 |    000170D8  A$UI_b$36
     000170D9  A$UI_b$36 |    000170DB  A$UI_b$36 |    000170DC  A$UI_b$36
ASxxxx Linker V03.00 + NoICE + sdld,  page 114.
Hexadecimal  [32-Bits]

Area                       Addr        Size        Decimal Bytes (Attributes)
--------------------       ----        ----        ------- ----- ------------
_CODE_1                00014000    000032A5 =       12965. bytes (REL,CON)

        Value  Global            Value  Global            Value  Global    
        -----  ------            -----  ------            -----  ------    
     000170DD  A$UI_b$36 |    000170DF  A$UI_b$36 |    000170E0  A$UI_b$36
     000170E3  A$UI_b$36 |    000170E3  C$UI_b.c$ |    000170E6  A$UI_b$36
     000170E9  A$UI_b$37 |    000170E9  C$UI_b.c$ |    000170EC  A$UI_b$37
     000170ED  A$UI_b$37 |    000170EE  A$UI_b$37 |    000170EF  A$UI_b$37
     000170F2  A$UI_b$37 |    000170F3  A$UI_b$37 |    000170F4  A$UI_b$37
     000170F5  A$UI_b$37 |    000170F6  A$UI_b$37 |    000170F7  A$UI_b$37
     000170F9  A$UI_b$37 |    000170FA  A$UI_b$37 |    000170FB  A$UI_b$37
     000170FC  A$UI_b$37 |    000170FE  A$UI_b$37 |    000170FF  A$UI_b$37
     00017100  A$UI_b$37 |    00017101  A$UI_b$37 |    00017101  C$UI_b.c$
     00017103  A$UI_b$37 |    00017105  A$UI_b$37 |    00017107  A$UI_b$37
     00017109  A$UI_b$37 |    0001710B  A$UI_b$37 |    0001710D  A$UI_b$37
     0001710D  C$UI_b.c$ |    0001710F  A$UI_b$37 |    00017110  A$UI_b$37
     00017111  A$UI_b$37 |    00017113  A$UI_b$37 |    00017114  A$UI_b$37
     00017115  A$UI_b$37 |    00017116  A$UI_b$37 |    00017117  A$UI_b$37
     00017118  A$UI_b$37 |    00017119  A$UI_b$37 |    0001711A  A$UI_b$37
     0001711B  A$UI_b$37 |    0001711D  A$UI_b$37 |    0001711F  A$UI_b$37
     00017121  A$UI_b$37 |    00017123  A$UI_b$37 |    00017124  A$UI_b$37
     00017126  A$UI_b$37 |    00017128  A$UI_b$37 |    0001712A  A$UI_b$37
     0001712B  A$UI_b$37 |    0001712D  A$UI_b$37 |    0001712F  A$UI_b$37
     00017130  A$UI_b$37 |    00017132  A$UI_b$37 |    00017133  A$UI_b$37
     00017135  A$UI_b$37 |    00017136  A$UI_b$37 |    00017139  A$UI_b$37
     00017139  C$UI_b.c$ |    0001713C  A$UI_b$37 |    0001713F  A$UI_b$37
     0001713F  C$UI_b.c$ |    00017141  A$UI_b$37 |    00017143  A$UI_b$37
     00017145  A$UI_b$37 |    00017147  A$UI_b$37 |    00017149  A$UI_b$37
     0001714B  A$UI_b$37 |    0001714B  C$UI_b.c$ |    0001714E  A$UI_b$37
     0001714F  A$UI_b$37 |    00017151  A$UI_b$37 |    00017151  C$UI_b.c$
     00017153  A$UI_b$37 |    00017154  A$UI_b$37 |    00017155  A$UI_b$37
     00017156  A$UI_b$37 |    00017159  A$UI_b$37 |    0001715A  A$UI_b$37
     0001715B  A$UI_b$37 |    0001715C  A$UI_b$37 |    0001715D  A$UI_b$37
     0001715E  A$UI_b$37 |    0001715F  A$UI_b$37 |    00017160  A$UI_b$38
     00017161  A$UI_b$38 |    00017163  A$UI_b$38 |    00017164  A$UI_b$38
     00017165  A$UI_b$38 |    00017166  A$UI_b$38 |    00017168  A$UI_b$38
     0001716A  A$UI_b$38 |    0001716C  A$UI_b$38 |    0001716E  A$UI_b$38
     0001716F  A$UI_b$38 |    00017171  A$UI_b$38 |    00017173  A$UI_b$38
     00017175  A$UI_b$38 |    00017176  A$UI_b$38 |    00017178  A$UI_b$38
     0001717B  A$UI_b$38 |    0001717D  A$UI_b$38 |    0001717E  A$UI_b$38
     0001717F  A$UI_b$38 |    00017181  A$UI_b$38 |    00017184  A$UI_b$38
     00017187  A$UI_b$38 |    00017188  A$UI_b$38 |    0001718A  A$UI_b$38
     0001718A  C$UI_b.c$ |    0001718D  A$UI_b$38 |    0001718F  A$UI_b$38
     0001718F  C$UI_b.c$ |    00017192  A$UI_b$38 |    00017194  A$UI_b$38
     00017194  C$UI_b.c$ |    00017196  A$UI_b$38 |    00017198  A$UI_b$38
     0001719A  A$UI_b$38 |    0001719C  A$UI_b$38 |    0001719E  A$UI_b$38
     000171A0  A$UI_b$38 |    000171A0  C$UI_b.c$ |    000171A3  A$UI_b$38
     000171A4  A$UI_b$38 |    000171A6  A$UI_b$38 |    000171A6  C$UI_b.c$
     000171A8  A$UI_b$38 |    000171A9  A$UI_b$38 |    000171AA  A$UI_b$38
     000171AB  A$UI_b$38 |    000171AE  A$UI_b$38 |    000171AF  A$UI_b$38
     000171B0  A$UI_b$38 |    000171B1  A$UI_b$38 |    000171B3  A$UI_b$38
     000171B4  A$UI_b$38 |    000171B5  A$UI_b$38 |    000171B6  A$UI_b$38
     000171B7  A$UI_b$38 |    000171B8  A$UI_b$38 |    000171B9  A$UI_b$38
     000171BA  A$UI_b$38 |    000171BC  A$UI_b$38 |    000171BE  A$UI_b$38
     000171C0  A$UI_b$38 |    000171C2  A$UI_b$38 |    000171C3  A$UI_b$38
ASxxxx Linker V03.00 + NoICE + sdld,  page 115.
Hexadecimal  [32-Bits]

Area                       Addr        Size        Decimal Bytes (Attributes)
--------------------       ----        ----        ------- ----- ------------
_CODE_1                00014000    000032A5 =       12965. bytes (REL,CON)

        Value  Global            Value  Global            Value  Global    
        -----  ------            -----  ------            -----  ------    
     000171C5  A$UI_b$38 |    000171C7  A$UI_b$38 |    000171C9  A$UI_b$38
     000171CA  A$UI_b$38 |    000171CC  A$UI_b$38 |    000171CF  A$UI_b$38
     000171D0  A$UI_b$38 |    000171D1  A$UI_b$38 |    000171D2  A$UI_b$38
     000171D3  A$UI_b$38 |    000171D5  A$UI_b$38 |    000171D7  A$UI_b$38
     000171D8  A$UI_b$38 |    000171DB  A$UI_b$38 |    000171DD  A$UI_b$39
     000171DD  C$UI_b.c$ |    000171DF  A$UI_b$39 |    000171E0  A$UI_b$39
     000171E3  A$UI_b$39 |    000171E3  C$UI_b.c$ |    000171E6  A$UI_b$39
     000171E8  A$UI_b$39 |    000171E8  C$UI_b.c$ |    000171EB  A$UI_b$39
     000171EC  A$UI_b$39 |    000171EE  A$UI_b$39 |    000171F0  A$UI_b$39
     000171F2  A$UI_b$39 |    000171F4  A$UI_b$39 |    000171F6  A$UI_b$39
     000171F8  A$UI_b$39 |    000171FA  A$UI_b$39 |    000171FA  C$UI_b.c$
     000171FC  A$UI_b$39 |    000171FF  A$UI_b$39 |    00017200  A$UI_b$39
     00017201  A$UI_b$39 |    00017203  A$UI_b$39 |    00017204  A$UI_b$39
     00017205  A$UI_b$39 |    00017206  A$UI_b$39 |    00017207  A$UI_b$39
     00017208  A$UI_b$39 |    00017208  C$UI_b.c$ |    0001720B  A$UI_b$39
     0001720D  A$UI_b$39 |    0001720D  C$UI_b.c$ |    0001720D  XG$UIOnIn
     0001720E  A$UI_b$39 |    0001720E  C$UI_b.c$ |    0001720E  C$UI_b.c$
     0001720E  G$UIShowM |    0001720E  _UIShowMe |    00017211  A$UI_b$39
     00017213  A$UI_b$39 |    00017213  C$UI_b.c$ |    00017215  A$UI_b$39
     00017216  A$UI_b$39 |    00017217  A$UI_b$39 |    0001721A  A$UI_b$39
     0001721B  A$UI_b$39 |    0001721C  A$UI_b$39 |    0001721C  C$UI_b.c$
     0001721F  A$UI_b$39 |    00017221  A$UI_b$39 |    00017221  C$UI_b.c$
     00017223  A$UI_b$39 |    00017224  A$UI_b$39 |    00017225  A$UI_b$39
     00017227  A$UI_b$39 |    0001722A  A$UI_b$39 |    0001722B  A$UI_b$39
     0001722B  C$UI_b.c$ |    0001722D  A$UI_b$39 |    00017230  A$UI_b$39
     00017230  C$UI_b.c$ |    00017232  A$UI_b$39 |    00017233  A$UI_b$39
     00017236  A$UI_b$40 |    00017236  C$UI_b.c$ |    00017239  A$UI_b$40
     0001723A  A$UI_b$40 |    0001723A  C$UI_b.c$ |    0001723C  A$UI_b$40
     0001723C  C$UI_b.c$ |    0001723D  A$UI_b$40 |    0001723F  A$UI_b$40
     00017240  A$UI_b$40 |    00017241  A$UI_b$40 |    00017242  A$UI_b$40
     00017243  A$UI_b$40 |    00017245  A$UI_b$40 |    00017246  A$UI_b$40
     00017247  A$UI_b$40 |    00017248  A$UI_b$40 |    0001724B  A$UI_b$40
     0001724D  A$UI_b$40 |    0001724E  A$UI_b$40 |    0001724E  C$UI_b.c$
     00017251  A$UI_b$40 |    00017252  A$UI_b$40 |    00017252  C$UI_b.c$
     00017255  A$UI_b$40 |    00017258  A$UI_b$40 |    00017258  C$UI_b.c$
     00017258  C$UI_b.c$ |    00017258  XG$UIShow |    0001725B  A$UI_b$40
     0001725B  C$UI_b.c$ |    0001725B  C$UI_b.c$ |    0001725B  G$UIDrawM
     0001725B  _UIDrawMe |    0001725D  A$UI_b$40 |    00017260  A$UI_b$40
     00017261  A$UI_b$40 |    00017262  A$UI_b$40 |    00017262  C$UI_b.c$
     00017263  A$UI_b$40 |    00017266  A$UI_b$40 |    00017267  A$UI_b$40
     00017269  A$UI_b$40 |    0001726C  A$UI_b$40 |    0001726E  A$UI_b$40
     00017271  A$UI_b$40 |    00017271  C$UI_b.c$ |    00017272  A$UI_b$40
     00017273  A$UI_b$40 |    00017276  A$UI_b$40 |    00017277  A$UI_b$40
     00017278  A$UI_b$40 |    0001727B  A$UI_b$40 |    0001727D  A$UI_b$40
     0001727E  A$UI_b$40 |    0001727F  A$UI_b$40 |    00017280  A$UI_b$40
     00017281  A$UI_b$40 |    00017282  A$UI_b$40 |    00017283  A$UI_b$40
     00017286  A$UI_b$40 |    00017287  A$UI_b$40 |    00017289  A$UI_b$40
     0001728C  A$UI_b$40 |    0001728E  A$UI_b$40 |    00017291  A$UI_b$40
     00017292  A$UI_b$41 |    00017293  A$UI_b$41 |    00017295  A$UI_b$41
     00017296  A$UI_b$41 |    00017297  A$UI_b$41 |    00017299  A$UI_b$41
     0001729A  A$UI_b$41 |    0001729B  A$UI_b$41 |    0001729C  A$UI_b$41
ASxxxx Linker V03.00 + NoICE + sdld,  page 116.
Hexadecimal  [32-Bits]

Area                       Addr        Size        Decimal Bytes (Attributes)
--------------------       ----        ----        ------- ----- ------------
_CODE_1                00014000    000032A5 =       12965. bytes (REL,CON)

        Value  Global            Value  Global            Value  Global    
        -----  ------            -----  ------            -----  ------    
     0001729D  A$UI_b$41 |    000172A0  A$UI_b$41 |    000172A2  A$UI_b$41
     000172A2  C$UI_b.c$ |    000172A3  A$UI_b$41 |    000172A3  C$UI_b.c$
     000172A3  XG$UIDraw
ASxxxx Linker V03.00 + NoICE + sdld,  page 117.
Hexadecimal  [32-Bits]

Area                       Addr        Size        Decimal Bytes (Attributes)
--------------------       ----        ----        ------- ----- ------------
_CODE_4                00044000    00002CEA =       11498. bytes (REL,CON)

        Value  Global            Value  Global            Value  Global    
        -----  ------            -----  ------            -----  ------    
     00044000  A$ScriptR |    00044000  C$ScriptR |    00044000  C$ScriptR
     00044000  G$ScriptT |    00044000  _ScriptTi |    00044003  A$ScriptR
     00044004  A$ScriptR |    00044005  A$ScriptR |    00044005  C$ScriptR
     00044006  A$ScriptR |    00044006  C$ScriptR |    00044009  A$ScriptR
     0004400A  A$ScriptR |    0004400B  A$ScriptR |    0004400B  C$ScriptR
     0004400E  A$ScriptR |    0004400F  A$ScriptR |    00044011  A$ScriptR
     00044011  C$ScriptR |    00044014  A$ScriptR |    00044015  A$ScriptR
     00044017  A$ScriptR |    00044018  A$ScriptR |    00044018  C$ScriptR
     0004401A  A$ScriptR |    0004401B  A$ScriptR |    0004401C  A$ScriptR
     0004401F  A$ScriptR |    00044020  A$ScriptR |    00044023  A$ScriptR
     00044025  A$ScriptR |    00044025  C$ScriptR |    00044028  A$ScriptR
     0004402B  A$ScriptR |    0004402C  A$ScriptR |    0004402C  C$ScriptR
     0004402F  A$ScriptR |    00044031  A$ScriptR |    00044032  A$ScriptR
     00044032  C$ScriptR |    00044035  A$ScriptR |    00044036  A$ScriptR
     00044036  C$ScriptR |    00044036  XG$Script |    00044037  G$emote_o
     00044037  _emote_of |    0004406F  G$script_ |    0004406F  _script_c
     000441B0  A$ScriptR |    000441B0  C$ScriptR |    000441B0  G$ScriptU
     000441B0  _ScriptUp |    000441B2  A$ScriptR |    000441B2  C$ScriptR
     000441B3  A$ScriptR |    000441B5  A$ScriptR |    000441B6  A$ScriptR
     000441B6  C$ScriptR |    000441B7  A$ScriptR |    000441B8  A$ScriptR
     000441B9  A$ScriptR |    000441B9  C$ScriptR |    000441BC  A$ScriptR
     000441BF  A$ScriptR |    000441C0  A$ScriptR |    000441C2  A$ScriptR
     000441C3  A$ScriptR |    000441C4  A$ScriptR |    000441C5  A$ScriptR
     000441C6  A$ScriptR |    000441C7  A$ScriptR |    000441C8  A$ScriptR
     000441C9  A$ScriptR |    000441CA  A$ScriptR |    000441CB  A$ScriptR
     000441CC  A$ScriptR |    000441CD  A$ScriptR |    000441CE  A$ScriptR
     000441CF  A$ScriptR |    000441D2  A$ScriptR |    000441D3  A$ScriptR
     000441D4  A$ScriptR |    000441D7  A$ScriptR |    000441D8  A$ScriptR
     000441D9  A$ScriptR |    000441DB  A$ScriptR |    000441DC  A$ScriptR
     000441DD  A$ScriptR |    000441DE  A$ScriptR |    000441DF  A$ScriptR
     000441E0  A$ScriptR |    000441E1  A$ScriptR |    000441E2  A$ScriptR
     000441E3  A$ScriptR |    000441E4  A$ScriptR |    000441E5  A$ScriptR
     000441E6  A$ScriptR |    000441E9  A$ScriptR |    000441EA  A$ScriptR
     000441EB  A$ScriptR |    000441EC  A$ScriptR |    000441ED  A$ScriptR
     000441EE  A$ScriptR |    000441EE  C$ScriptR |    000441EF  A$ScriptR
     000441F0  A$ScriptR |    000441F1  A$ScriptR |    000441F2  A$ScriptR
     000441F3  A$ScriptR |    000441F4  A$ScriptR |    000441F7  A$ScriptR
     000441F8  A$ScriptR |    000441F9  A$ScriptR |    000441FA  A$ScriptR
     000441FC  A$ScriptR |    000441FD  A$ScriptR |    000441FE  A$ScriptR
     00044200  A$ScriptR |    00044201  A$ScriptR |    00044202  A$ScriptR
     00044204  A$ScriptR |    00044205  A$ScriptR |    00044206  A$ScriptR
     00044207  A$ScriptR |    00044209  A$ScriptR |    0004420A  A$ScriptR
     0004420B  A$ScriptR |    0004420C  A$ScriptR |    0004420D  A$ScriptR
     0004420E  A$ScriptR |    0004420F  A$ScriptR |    00044210  A$ScriptR
     00044211  A$ScriptR |    00044212  A$ScriptR |    00044215  A$ScriptR
     00044216  A$ScriptR |    00044217  A$ScriptR |    00044218  A$ScriptR
     0004421A  A$ScriptR |    0004421B  A$ScriptR |    0004421C  A$ScriptR
     0004421E  A$ScriptR |    0004421E  C$ScriptR |    00044220  A$ScriptR
     00044221  A$ScriptR |    00044222  A$ScriptR |    00044223  A$ScriptR
     00044225  A$ScriptR |    00044225  C$ScriptR |    00044228  A$ScriptR
ASxxxx Linker V03.00 + NoICE + sdld,  page 118.
Hexadecimal  [32-Bits]

Area                       Addr        Size        Decimal Bytes (Attributes)
--------------------       ----        ----        ------- ----- ------------
_CODE_4                00044000    00002CEA =       11498. bytes (REL,CON)

        Value  Global            Value  Global            Value  Global    
        -----  ------            -----  ------            -----  ------    
     00044229  A$ScriptR |    0004422A  A$ScriptR |    0004422B  A$ScriptR
     0004422C  A$ScriptR |    0004422F  A$ScriptR |    00044230  A$ScriptR
     00044232  A$ScriptR |    00044232  C$ScriptR |    00044235  A$ScriptR
     00044237  A$ScriptR |    00044238  A$ScriptR |    0004423A  A$ScriptR
     0004423B  A$ScriptR |    0004423C  A$ScriptR |    0004423E  A$ScriptR
     0004423E  C$ScriptR |    00044241  A$ScriptR |    00044243  A$ScriptR
     00044244  A$ScriptR |    00044246  A$ScriptR |    00044246  C$ScriptR
     00044249  A$ScriptR |    0004424B  A$ScriptR |    0004424C  A$ScriptR
     0004424E  A$ScriptR |    0004424E  C$ScriptR |    00044250  A$ScriptR
     00044253  A$ScriptR |    00044253  C$ScriptR |    00044255  A$ScriptR
     00044256  A$ScriptR |    00044257  A$ScriptR |    00044258  A$ScriptR
     0004425A  A$ScriptR |    0004425D  A$ScriptR |    0004425E  A$ScriptR
     0004425F  A$ScriptR |    00044261  A$ScriptR |    00044262  A$ScriptR
     00044263  A$ScriptR |    00044264  A$ScriptR |    00044265  A$ScriptR
     00044266  A$ScriptR |    00044267  A$ScriptR |    00044268  A$ScriptR
     00044269  A$ScriptR |    0004426A  A$ScriptR |    0004426B  A$ScriptR
     0004426C  A$ScriptR |    0004426D  A$ScriptR |    0004426D  C$ScriptR
     00044270  A$ScriptR |    00044271  A$ScriptR |    00044272  A$ScriptR
     00044273  A$ScriptR |    00044274  A$ScriptR |    00044275  A$ScriptR
     00044276  A$ScriptR |    00044277  A$ScriptR |    00044278  A$ScriptR
     00044279  A$ScriptR |    0004427A  A$ScriptR |    0004427B  A$ScriptR
     0004427C  A$ScriptR |    0004427D  A$ScriptR |    0004427E  A$ScriptR
     00044280  A$ScriptR |    00044281  A$ScriptR |    00044282  A$ScriptR
     00044283  A$ScriptR |    00044285  A$ScriptR |    00044285  C$ScriptR
     00044288  A$ScriptR |    00044289  A$ScriptR |    0004428B  A$ScriptR
     0004428C  A$ScriptR |    0004428D  A$ScriptR |    0004428E  A$ScriptR
     0004428F  A$ScriptR |    00044290  A$ScriptR |    00044291  A$ScriptR
     00044292  A$ScriptR |    00044293  A$ScriptR |    00044294  A$ScriptR
     00044297  A$ScriptR |    00044298  A$ScriptR |    00044299  A$ScriptR
     0004429A  A$ScriptR |    0004429C  A$ScriptR |    0004429D  A$ScriptR
     0004429E  A$ScriptR |    000442A0  A$ScriptR |    000442A0  C$ScriptR
     000442A2  A$ScriptR |    000442A3  A$ScriptR |    000442A4  A$ScriptR
     000442A5  A$ScriptR |    000442A6  A$ScriptR |    000442A8  A$ScriptR
     000442A9  A$ScriptR |    000442AA  A$ScriptR |    000442AB  A$ScriptR
     000442AC  A$ScriptR |    000442AF  A$ScriptR |    000442B1  A$ScriptR
     000442B2  A$ScriptR |    000442B3  A$ScriptR |    000442B5  A$ScriptR
     000442B5  C$ScriptR |    000442B7  A$ScriptR |    000442B9  A$ScriptR
     000442BC  A$ScriptR |    000442BC  C$ScriptR |    000442BF  A$ScriptR
     000442C0  A$ScriptR |    000442C2  A$ScriptR |    000442C3  A$ScriptR
     000442C4  A$ScriptR |    000442C5  A$ScriptR |    000442C6  A$ScriptR
     000442C9  A$ScriptR |    000442CA  A$ScriptR |    000442CB  A$ScriptR
     000442CC  A$ScriptR |    000442CD  A$ScriptR |    000442CE  A$ScriptR
     000442CF  A$ScriptR |    000442D0  A$ScriptR |    000442D1  A$ScriptR
     000442D2  A$ScriptR |    000442D4  A$ScriptR |    000442D5  A$ScriptR
     000442D6  A$ScriptR |    000442D7  A$ScriptR |    000442D8  A$ScriptR
     000442D9  A$ScriptR |    000442DC  A$ScriptR |    000442DE  A$ScriptR
     000442DF  A$ScriptR |    000442E0  A$ScriptR |    000442E2  A$ScriptR
     000442E2  C$ScriptR |    000442E4  A$ScriptR |    000442E6  A$ScriptR
     000442E8  A$ScriptR |    000442E8  C$ScriptR |    000442EA  A$ScriptR
     000442EB  A$ScriptR |    000442EC  A$ScriptR |    000442ED  A$ScriptR
     000442F0  A$ScriptR |    000442F1  A$ScriptR |    000442F2  A$ScriptR
ASxxxx Linker V03.00 + NoICE + sdld,  page 119.
Hexadecimal  [32-Bits]

Area                       Addr        Size        Decimal Bytes (Attributes)
--------------------       ----        ----        ------- ----- ------------
_CODE_4                00044000    00002CEA =       11498. bytes (REL,CON)

        Value  Global            Value  Global            Value  Global    
        -----  ------            -----  ------            -----  ------    
     000442F3  A$ScriptR |    000442F4  A$ScriptR |    000442F5  A$ScriptR
     000442F5  C$ScriptR |    000442F8  A$ScriptR |    000442F9  A$ScriptR
     000442FA  A$ScriptR |    000442FB  A$ScriptR |    000442FE  A$ScriptR
     000442FF  A$ScriptR |    00044300  A$ScriptR |    00044301  A$ScriptR
     00044302  A$ScriptR |    00044303  A$ScriptR |    00044304  A$ScriptR
     00044305  A$ScriptR |    00044306  A$ScriptR |    00044307  A$ScriptR
     00044308  A$ScriptR |    00044309  A$ScriptR |    0004430A  A$ScriptR
     0004430B  A$ScriptR |    0004430E  A$ScriptR |    00044310  A$ScriptR
     00044311  A$ScriptR |    00044312  A$ScriptR |    00044314  A$ScriptR
     00044314  C$ScriptR |    00044316  A$ScriptR |    00044318  A$ScriptR
     0004431A  A$ScriptR |    0004431A  C$ScriptR |    0004431D  A$ScriptR
     0004431E  A$ScriptR |    0004431F  A$ScriptR |    00044320  A$ScriptR
     00044323  A$ScriptR |    00044324  A$ScriptR |    00044325  A$ScriptR
     00044326  A$ScriptR |    00044327  A$ScriptR |    00044328  A$ScriptR
     00044329  A$ScriptR |    0004432A  A$ScriptR |    0004432B  A$ScriptR
     0004432C  A$ScriptR |    0004432D  A$ScriptR |    0004432E  A$ScriptR
     0004432F  A$ScriptR |    00044330  A$ScriptR |    00044333  A$ScriptR
     00044335  A$ScriptR |    00044336  A$ScriptR |    00044337  A$ScriptR
     00044339  A$ScriptR |    00044339  C$ScriptR |    0004433B  A$ScriptR
     0004433D  A$ScriptR |    00044340  A$ScriptR |    00044341  A$ScriptR
     00044342  A$ScriptR |    00044344  A$ScriptR |    00044345  A$ScriptR
     00044345  C$ScriptR |    00044346  A$ScriptR |    00044347  A$ScriptR
     00044348  A$ScriptR |    00044349  A$ScriptR |    0004434A  A$ScriptR
     0004434D  A$ScriptR |    0004434E  A$ScriptR |    0004434F  A$ScriptR
     00044351  A$ScriptR |    00044352  A$ScriptR |    00044353  A$ScriptR
     00044355  A$ScriptR |    00044355  C$ScriptR |    00044357  A$ScriptR
     00044358  A$ScriptR |    00044359  A$ScriptR |    0004435A  A$ScriptR
     0004435D  A$ScriptR |    0004435E  A$ScriptR |    0004435F  A$ScriptR
     00044361  A$ScriptR |    00044362  A$ScriptR |    00044363  A$ScriptR
     00044365  A$ScriptR |    00044365  C$ScriptR |    00044367  A$ScriptR
     00044368  A$ScriptR |    00044369  A$ScriptR |    0004436A  A$ScriptR
     0004436D  A$ScriptR |    0004436E  A$ScriptR |    00044370  A$ScriptR
     00044370  C$ScriptR |    00044373  A$ScriptR |    00044374  A$ScriptR
     00044375  A$ScriptR |    00044376  A$ScriptR |    00044377  A$ScriptR
     00044378  A$ScriptR |    00044379  A$ScriptR |    0004437A  A$ScriptR
     0004437B  A$ScriptR |    0004437C  A$ScriptR |    0004437E  A$ScriptR
     0004437F  A$ScriptR |    00044380  A$ScriptR |    00044380  C$ScriptR
     00044383  A$ScriptR |    00044384  A$ScriptR |    00044385  A$ScriptR
     00044386  A$ScriptR |    00044387  A$ScriptR |    00044389  A$ScriptR
     0004438A  A$ScriptR |    0004438C  A$ScriptR |    0004438D  A$ScriptR
     0004438F  A$ScriptR |    00044390  A$ScriptR |    00044391  A$ScriptR
     00044394  A$ScriptR |    00044395  A$ScriptR |    00044396  A$ScriptR
     00044398  A$ScriptR |    00044399  A$ScriptR |    00044399  C$ScriptR
     0004439A  A$ScriptR |    0004439B  A$ScriptR |    0004439C  A$ScriptR
     0004439D  A$ScriptR |    0004439E  A$ScriptR |    000443A1  A$ScriptR
     000443A2  A$ScriptR |    000443A3  A$ScriptR |    000443A4  A$ScriptR
     000443A5  A$ScriptR |    000443A6  A$ScriptR |    000443A8  A$ScriptR
     000443A8  C$ScriptR |    000443AB  A$ScriptR |    000443AC  A$ScriptR
     000443AF  A$ScriptR |    000443AF  C$ScriptR |    000443B1  A$ScriptR
     000443B2  A$ScriptR |    000443B3  A$ScriptR |    000443B4  A$ScriptR
     000443B5  A$ScriptR |    000443B6  A$ScriptR |    000443B7  A$ScriptR
ASxxxx Linker V03.00 + NoICE + sdld,  page 120.
Hexadecimal  [32-Bits]

Area                       Addr        Size        Decimal Bytes (Attributes)
--------------------       ----        ----        ------- ----- ------------
_CODE_4                00044000    00002CEA =       11498. bytes (REL,CON)

        Value  Global            Value  Global            Value  Global    
        -----  ------            -----  ------            -----  ------    
     000443B8  A$ScriptR |    000443B9  A$ScriptR |    000443BB  A$ScriptR
     000443BC  A$ScriptR |    000443BD  A$ScriptR |    000443BE  A$ScriptR
     000443BF  A$ScriptR |    000443C0  A$ScriptR |    000443C1  A$ScriptR
     000443C2  A$ScriptR |    000443C3  A$ScriptR |    000443C4  A$ScriptR
     000443C5  A$ScriptR |    000443C6  A$ScriptR |    000443C8  A$ScriptR
     000443C9  A$ScriptR |    000443CA  A$ScriptR |    000443CB  A$ScriptR
     000443CC  A$ScriptR |    000443CD  A$ScriptR |    000443CE  A$ScriptR
     000443D1  A$ScriptR |    000443D2  A$ScriptR |    000443D3  A$ScriptR
     000443D4  A$ScriptR |    000443D5  A$ScriptR |    000443D6  A$ScriptR
     000443D7  A$ScriptR |    000443D7  C$ScriptR |    000443D8  A$ScriptR
     000443D9  A$ScriptR |    000443DA  A$ScriptR |    000443DC  A$ScriptR
     000443DD  A$ScriptR |    000443DE  A$ScriptR |    000443DF  A$ScriptR
     000443E0  A$ScriptR |    000443E2  A$ScriptR |    000443E3  A$ScriptR
     000443E4  A$ScriptR |    000443E5  A$ScriptR |    000443E6  A$ScriptR
     000443E7  A$ScriptR |    000443E9  A$ScriptR |    000443EA  A$ScriptR
     000443EB  A$ScriptR |    000443EC  A$ScriptR |    000443ED  A$ScriptR
     000443EE  A$ScriptR |    000443EF  A$ScriptR |    000443F0  A$ScriptR
     000443F1  A$ScriptR |    000443F2  A$ScriptR |    000443F3  A$ScriptR
     000443F4  A$ScriptR |    000443F6  A$ScriptR |    000443F6  C$ScriptR
     000443F8  A$ScriptR |    000443F9  A$ScriptR |    000443FA  A$ScriptR
     000443FB  A$ScriptR |    000443FC  A$ScriptR |    000443FD  A$ScriptR
     000443FE  A$ScriptR |    000443FF  A$ScriptR |    00044400  A$ScriptR
     00044401  A$ScriptR |    00044402  A$ScriptR |    00044403  A$ScriptR
     00044405  A$ScriptR |    00044406  A$ScriptR |    00044407  A$ScriptR
     00044408  A$ScriptR |    0004440B  A$ScriptR |    0004440D  A$ScriptR
     0004440F  A$ScriptR |    00044410  A$ScriptR |    00044411  A$ScriptR
     00044412  A$ScriptR |    00044413  A$ScriptR |    00044414  A$ScriptR
     00044415  A$ScriptR |    00044417  A$ScriptR |    00044418  A$ScriptR
     00044419  A$ScriptR |    0004441A  A$ScriptR |    0004441B  A$ScriptR
     0004441C  A$ScriptR |    0004441D  A$ScriptR |    0004441D  C$ScriptR
     00044420  A$ScriptR |    00044421  A$ScriptR |    00044422  A$ScriptR
     00044423  A$ScriptR |    00044424  A$ScriptR |    00044424  C$ScriptR
     00044427  A$ScriptR |    00044428  A$ScriptR |    00044429  A$ScriptR
     0004442A  A$ScriptR |    0004442C  A$ScriptR |    0004442D  A$ScriptR
     0004442D  C$ScriptR |    0004442E  A$ScriptR |    0004442F  A$ScriptR
     00044430  A$ScriptR |    00044431  A$ScriptR |    00044432  A$ScriptR
     00044433  A$ScriptR |    00044434  A$ScriptR |    00044435  A$ScriptR
     00044436  A$ScriptR |    00044437  A$ScriptR |    00044438  A$ScriptR
     00044439  A$ScriptR |    0004443A  A$ScriptR |    0004443B  A$ScriptR
     0004443C  A$ScriptR |    0004443D  A$ScriptR |    0004443E  A$ScriptR
     0004443F  A$ScriptR |    00044441  A$ScriptR |    00044442  A$ScriptR
     00044443  A$ScriptR |    00044444  A$ScriptR |    00044447  A$ScriptR
     00044449  A$ScriptR |    0004444B  A$ScriptR |    0004444C  A$ScriptR
     0004444D  A$ScriptR |    0004444E  A$ScriptR |    0004444F  A$ScriptR
     00044450  A$ScriptR |    00044451  A$ScriptR |    00044453  A$ScriptR
     00044454  A$ScriptR |    00044455  A$ScriptR |    00044456  A$ScriptR
     00044457  A$ScriptR |    00044458  A$ScriptR |    00044459  A$ScriptR
     00044459  C$ScriptR |    0004445B  A$ScriptR |    0004445D  A$ScriptR
     0004445D  C$ScriptR |    0004445D  XG$Script |    0004445E  A$ScriptR
     0004445E  C$ScriptR |    0004445E  G$ScriptU |    0004445E  _ScriptUp
     00044460  A$ScriptR |    00044460  C$ScriptR |    00044461  A$ScriptR
ASxxxx Linker V03.00 + NoICE + sdld,  page 121.
Hexadecimal  [32-Bits]

Area                       Addr        Size        Decimal Bytes (Attributes)
--------------------       ----        ----        ------- ----- ------------
_CODE_4                00044000    00002CEA =       11498. bytes (REL,CON)

        Value  Global            Value  Global            Value  Global    
        -----  ------            -----  ------            -----  ------    
     00044463  A$ScriptR |    00044464  A$ScriptR |    00044464  C$ScriptR
     00044465  A$ScriptR |    00044466  A$ScriptR |    00044467  A$ScriptR
     00044467  C$ScriptR |    0004446A  A$ScriptR |    0004446D  A$ScriptR
     0004446E  A$ScriptR |    00044470  A$ScriptR |    00044471  A$ScriptR
     00044472  A$ScriptR |    00044473  A$ScriptR |    00044474  A$ScriptR
     00044475  A$ScriptR |    00044476  A$ScriptR |    00044477  A$ScriptR
     00044478  A$ScriptR |    00044479  A$ScriptR |    0004447A  A$ScriptR
     0004447B  A$ScriptR |    0004447C  A$ScriptR |    0004447D  A$ScriptR
     00044480  A$ScriptR |    00044481  A$ScriptR |    00044482  A$ScriptR
     00044485  A$ScriptR |    00044486  A$ScriptR |    00044487  A$ScriptR
     00044489  A$ScriptR |    0004448A  A$ScriptR |    0004448B  A$ScriptR
     0004448C  A$ScriptR |    0004448D  A$ScriptR |    0004448E  A$ScriptR
     0004448F  A$ScriptR |    00044490  A$ScriptR |    00044491  A$ScriptR
     00044492  A$ScriptR |    00044495  A$ScriptR |    00044496  A$ScriptR
     00044498  A$ScriptR |    00044499  A$ScriptR |    0004449A  A$ScriptR
     0004449B  A$ScriptR |    0004449C  A$ScriptR |    0004449C  C$ScriptR
     0004449D  A$ScriptR |    0004449E  A$ScriptR |    000444A1  A$ScriptR
     000444A2  A$ScriptR |    000444A3  A$ScriptR |    000444A4  A$ScriptR
     000444A6  A$ScriptR |    000444A7  A$ScriptR |    000444A8  A$ScriptR
     000444AA  A$ScriptR |    000444AB  A$ScriptR |    000444AC  A$ScriptR
     000444AE  A$ScriptR |    000444AF  A$ScriptR |    000444B0  A$ScriptR
     000444B1  A$ScriptR |    000444B3  A$ScriptR |    000444B4  A$ScriptR
     000444B5  A$ScriptR |    000444B6  A$ScriptR |    000444B7  A$ScriptR
     000444B8  A$ScriptR |    000444B9  A$ScriptR |    000444BA  A$ScriptR
     000444BD  A$ScriptR |    000444BE  A$ScriptR |    000444BF  A$ScriptR
     000444C0  A$ScriptR |    000444C2  A$ScriptR |    000444C3  A$ScriptR
     000444C4  A$ScriptR |    000444C6  A$ScriptR |    000444C6  C$ScriptR
     000444C8  A$ScriptR |    000444C9  A$ScriptR |    000444CA  A$ScriptR
     000444CB  A$ScriptR |    000444CD  A$ScriptR |    000444CD  C$ScriptR
     000444D0  A$ScriptR |    000444D1  A$ScriptR |    000444D2  A$ScriptR
     000444D3  A$ScriptR |    000444D4  A$ScriptR |    000444D7  A$ScriptR
     000444D8  A$ScriptR |    000444DA  A$ScriptR |    000444DA  C$ScriptR
     000444DD  A$ScriptR |    000444DF  A$ScriptR |    000444E0  A$ScriptR
     000444E2  A$ScriptR |    000444E3  A$ScriptR |    000444E4  A$ScriptR
     000444E6  A$ScriptR |    000444E6  C$ScriptR |    000444E9  A$ScriptR
     000444EB  A$ScriptR |    000444EC  A$ScriptR |    000444EE  A$ScriptR
     000444EE  C$ScriptR |    000444F1  A$ScriptR |    000444F3  A$ScriptR
     000444F4  A$ScriptR |    000444F6  A$ScriptR |    000444F6  C$ScriptR
     000444F8  A$ScriptR |    000444FB  A$ScriptR |    000444FB  C$ScriptR
     000444FD  A$ScriptR |    000444FE  A$ScriptR |    000444FF  A$ScriptR
     00044500  A$ScriptR |    00044502  A$ScriptR |    00044505  A$ScriptR
     00044506  A$ScriptR |    00044507  A$ScriptR |    00044508  A$ScriptR
     00044509  A$ScriptR |    0004450A  A$ScriptR |    0004450B  A$ScriptR
     0004450C  A$ScriptR |    0004450D  A$ScriptR |    0004450E  A$ScriptR
     0004450E  C$ScriptR |    00044511  A$ScriptR |    00044512  A$ScriptR
     00044514  A$ScriptR |    00044515  A$ScriptR |    00044516  A$ScriptR
     00044517  A$ScriptR |    00044518  A$ScriptR |    00044519  A$ScriptR
     0004451A  A$ScriptR |    0004451B  A$ScriptR |    0004451C  A$ScriptR
     0004451D  A$ScriptR |    0004451F  A$ScriptR |    00044520  A$ScriptR
     00044521  A$ScriptR |    00044522  A$ScriptR |    00044524  A$ScriptR
     00044524  C$ScriptR |    00044526  A$ScriptR |    00044527  A$ScriptR
ASxxxx Linker V03.00 + NoICE + sdld,  page 122.
Hexadecimal  [32-Bits]

Area                       Addr        Size        Decimal Bytes (Attributes)
--------------------       ----        ----        ------- ----- ------------
_CODE_4                00044000    00002CEA =       11498. bytes (REL,CON)

        Value  Global            Value  Global            Value  Global    
        -----  ------            -----  ------            -----  ------    
     00044528  A$ScriptR |    00044529  A$ScriptR |    0004452A  A$ScriptR
     0004452B  A$ScriptR |    0004452E  A$ScriptR |    00044530  A$ScriptR
     00044531  A$ScriptR |    00044532  A$ScriptR |    00044534  A$ScriptR
     00044534  C$ScriptR |    00044536  A$ScriptR |    00044538  A$ScriptR
     0004453A  A$ScriptR |    0004453A  C$ScriptR |    0004453D  A$ScriptR
     0004453E  A$ScriptR |    00044540  A$ScriptR |    00044541  A$ScriptR
     00044542  A$ScriptR |    00044543  A$ScriptR |    00044544  A$ScriptR
     00044547  A$ScriptR |    00044548  A$ScriptR |    00044549  A$ScriptR
     0004454A  A$ScriptR |    0004454B  A$ScriptR |    0004454C  A$ScriptR
     0004454D  A$ScriptR |    0004454E  A$ScriptR |    0004454F  A$ScriptR
     00044550  A$ScriptR |    00044552  A$ScriptR |    00044553  A$ScriptR
     00044554  A$ScriptR |    00044555  A$ScriptR |    00044556  A$ScriptR
     00044557  A$ScriptR |    0004455A  A$ScriptR |    0004455C  A$ScriptR
     0004455D  A$ScriptR |    0004455E  A$ScriptR |    00044560  A$ScriptR
     00044560  C$ScriptR |    00044562  A$ScriptR |    00044564  A$ScriptR
     00044567  A$ScriptR |    00044568  A$ScriptR |    00044569  A$ScriptR
     0004456A  A$ScriptR |    0004456B  A$ScriptR |    0004456C  A$ScriptR
     0004456D  A$ScriptR |    0004456E  A$ScriptR |    0004456E  C$ScriptR
     0004456F  A$ScriptR |    00044570  A$ScriptR |    00044571  A$ScriptR
     00044572  A$ScriptR |    00044575  A$ScriptR |    00044576  A$ScriptR
     00044578  A$ScriptR |    00044579  A$ScriptR |    0004457A  A$ScriptR
     0004457B  A$ScriptR |    0004457C  A$ScriptR |    0004457D  A$ScriptR
     0004457E  A$ScriptR |    0004457F  A$ScriptR |    00044580  A$ScriptR
     00044581  A$ScriptR |    00044583  A$ScriptR |    00044584  A$ScriptR
     00044585  A$ScriptR |    00044586  A$ScriptR |    00044588  A$ScriptR
     00044588  C$ScriptR |    0004458A  A$ScriptR |    0004458B  A$ScriptR
     0004458C  A$ScriptR |    0004458D  A$ScriptR |    0004458E  A$ScriptR
     0004458F  A$ScriptR |    00044592  A$ScriptR |    00044594  A$ScriptR
     00044595  A$ScriptR |    00044596  A$ScriptR |    00044598  A$ScriptR
     00044598  C$ScriptR |    0004459A  A$ScriptR |    0004459C  A$ScriptR
     0004459E  A$ScriptR |    0004459E  C$ScriptR |    000445A1  A$ScriptR
     000445A2  A$ScriptR |    000445A3  A$ScriptR |    000445A4  A$ScriptR
     000445A7  A$ScriptR |    000445A8  A$ScriptR |    000445A9  A$ScriptR
     000445AA  A$ScriptR |    000445AB  A$ScriptR |    000445AC  A$ScriptR
     000445AD  A$ScriptR |    000445AE  A$ScriptR |    000445AF  A$ScriptR
     000445B0  A$ScriptR |    000445B1  A$ScriptR |    000445B2  A$ScriptR
     000445B3  A$ScriptR |    000445B4  A$ScriptR |    000445B7  A$ScriptR
     000445B9  A$ScriptR |    000445BA  A$ScriptR |    000445BB  A$ScriptR
     000445BD  A$ScriptR |    000445BD  C$ScriptR |    000445BF  A$ScriptR
     000445C1  A$ScriptR |    000445C4  A$ScriptR |    000445C5  A$ScriptR
     000445C6  A$ScriptR |    000445C7  A$ScriptR |    000445C8  A$ScriptR
     000445C8  C$ScriptR |    000445CB  A$ScriptR |    000445CC  A$ScriptR
     000445CD  A$ScriptR |    000445CF  A$ScriptR |    000445D0  A$ScriptR
     000445D1  A$ScriptR |    000445D3  A$ScriptR |    000445D3  C$ScriptR
     000445D6  A$ScriptR |    000445D7  A$ScriptR |    000445D8  A$ScriptR
     000445DA  A$ScriptR |    000445DB  A$ScriptR |    000445DC  A$ScriptR
     000445DE  A$ScriptR |    000445DE  C$ScriptR |    000445E1  A$ScriptR
     000445E2  A$ScriptR |    000445E4  A$ScriptR |    000445E4  C$ScriptR
     000445E7  A$ScriptR |    000445E8  A$ScriptR |    000445E9  A$ScriptR
     000445EA  A$ScriptR |    000445EB  A$ScriptR |    000445EC  A$ScriptR
     000445ED  A$ScriptR |    000445EE  A$ScriptR |    000445EF  A$ScriptR
ASxxxx Linker V03.00 + NoICE + sdld,  page 123.
Hexadecimal  [32-Bits]

Area                       Addr        Size        Decimal Bytes (Attributes)
--------------------       ----        ----        ------- ----- ------------
_CODE_4                00044000    00002CEA =       11498. bytes (REL,CON)

        Value  Global            Value  Global            Value  Global    
        -----  ------            -----  ------            -----  ------    
     000445F0  A$ScriptR |    000445F2  A$ScriptR |    000445F3  A$ScriptR
     000445F4  A$ScriptR |    000445F4  C$ScriptR |    000445F7  A$ScriptR
     000445F8  A$ScriptR |    000445F9  A$ScriptR |    000445FA  A$ScriptR
     000445FB  A$ScriptR |    000445FD  A$ScriptR |    000445FE  A$ScriptR
     00044600  A$ScriptR |    00044601  A$ScriptR |    00044603  A$ScriptR
     00044604  A$ScriptR |    00044605  A$ScriptR |    00044608  A$ScriptR
     00044609  A$ScriptR |    0004460A  A$ScriptR |    0004460C  A$ScriptR
     0004460D  A$ScriptR |    0004460D  C$ScriptR |    0004460E  A$ScriptR
     0004460F  A$ScriptR |    00044610  A$ScriptR |    00044611  A$ScriptR
     00044612  A$ScriptR |    00044615  A$ScriptR |    00044616  A$ScriptR
     00044617  A$ScriptR |    00044618  A$ScriptR |    00044619  A$ScriptR
     0004461B  A$ScriptR |    0004461C  A$ScriptR |    0004461D  A$ScriptR
     0004461F  A$ScriptR |    0004461F  C$ScriptR |    00044622  A$ScriptR
     00044623  A$ScriptR |    00044626  A$ScriptR |    00044626  C$ScriptR
     00044628  A$ScriptR |    00044629  A$ScriptR |    0004462A  A$ScriptR
     0004462B  A$ScriptR |    0004462C  A$ScriptR |    0004462D  A$ScriptR
     0004462E  A$ScriptR |    0004462F  A$ScriptR |    00044630  A$ScriptR
     00044632  A$ScriptR |    00044633  A$ScriptR |    00044634  A$ScriptR
     00044635  A$ScriptR |    00044636  A$ScriptR |    00044637  A$ScriptR
     00044638  A$ScriptR |    00044639  A$ScriptR |    0004463A  A$ScriptR
     0004463B  A$ScriptR |    0004463C  A$ScriptR |    0004463D  A$ScriptR
     0004463E  A$ScriptR |    0004463F  A$ScriptR |    00044640  A$ScriptR
     00044641  A$ScriptR |    00044642  A$ScriptR |    00044643  A$ScriptR
     00044644  A$ScriptR |    00044645  A$ScriptR |    00044648  A$ScriptR
     00044649  A$ScriptR |    0004464A  A$ScriptR |    0004464C  A$ScriptR
     0004464D  A$ScriptR |    0004464E  A$ScriptR |    0004464F  A$ScriptR
     00044650  A$ScriptR |    00044651  A$ScriptR |    00044652  A$ScriptR
     00044655  A$ScriptR |    00044656  A$ScriptR |    00044657  A$ScriptR
     00044658  A$ScriptR |    0004465A  A$ScriptR |    0004465B  A$ScriptR
     0004465B  C$ScriptR |    0004465C  A$ScriptR |    0004465D  A$ScriptR
     0004465E  A$ScriptR |    0004465F  A$ScriptR |    00044660  A$ScriptR
     00044661  A$ScriptR |    00044662  A$ScriptR |    00044663  A$ScriptR
     00044664  A$ScriptR |    00044665  A$ScriptR |    00044666  A$ScriptR
     00044668  A$ScriptR |    00044669  A$ScriptR |    0004466A  A$ScriptR
     0004466B  A$ScriptR |    0004466C  A$ScriptR |    0004466D  A$ScriptR
     0004466F  A$ScriptR |    00044670  A$ScriptR |    00044671  A$ScriptR
     00044672  A$ScriptR |    00044673  A$ScriptR |    00044674  A$ScriptR
     00044675  A$ScriptR |    00044677  A$ScriptR |    00044678  A$ScriptR
     00044679  A$ScriptR |    0004467A  A$ScriptR |    0004467B  A$ScriptR
     0004467C  A$ScriptR |    0004467D  A$ScriptR |    0004467F  A$ScriptR
     0004467F  C$ScriptR |    00044681  A$ScriptR |    00044682  A$ScriptR
     00044683  A$ScriptR |    00044684  A$ScriptR |    00044685  A$ScriptR
     00044686  A$ScriptR |    00044687  A$ScriptR |    00044688  A$ScriptR
     00044689  A$ScriptR |    0004468A  A$ScriptR |    0004468B  A$ScriptR
     0004468C  A$ScriptR |    0004468D  A$ScriptR |    0004468E  A$ScriptR
     0004468F  A$ScriptR |    00044691  A$ScriptR |    00044692  A$ScriptR
     00044693  A$ScriptR |    00044694  A$ScriptR |    00044697  A$ScriptR
     00044699  A$ScriptR |    0004469B  A$ScriptR |    0004469C  A$ScriptR
     0004469D  A$ScriptR |    0004469E  A$ScriptR |    0004469F  A$ScriptR
     000446A0  A$ScriptR |    000446A1  A$ScriptR |    000446A3  A$ScriptR
     000446A4  A$ScriptR |    000446A5  A$ScriptR |    000446A6  A$ScriptR
ASxxxx Linker V03.00 + NoICE + sdld,  page 124.
Hexadecimal  [32-Bits]

Area                       Addr        Size        Decimal Bytes (Attributes)
--------------------       ----        ----        ------- ----- ------------
_CODE_4                00044000    00002CEA =       11498. bytes (REL,CON)

        Value  Global            Value  Global            Value  Global    
        -----  ------            -----  ------            -----  ------    
     000446A7  A$ScriptR |    000446A8  A$ScriptR |    000446A9  A$ScriptR
     000446A9  C$ScriptR |    000446AC  A$ScriptR |    000446AD  A$ScriptR
     000446AE  A$ScriptR |    000446AF  A$ScriptR |    000446B0  A$ScriptR
     000446B0  C$ScriptR |    000446B3  A$ScriptR |    000446B4  A$ScriptR
     000446B5  A$ScriptR |    000446B6  A$ScriptR |    000446B8  A$ScriptR
     000446B9  A$ScriptR |    000446B9  C$ScriptR |    000446BA  A$ScriptR
     000446BB  A$ScriptR |    000446BC  A$ScriptR |    000446BD  A$ScriptR
     000446BE  A$ScriptR |    000446BF  A$ScriptR |    000446C0  A$ScriptR
     000446C1  A$ScriptR |    000446C2  A$ScriptR |    000446C3  A$ScriptR
     000446C4  A$ScriptR |    000446C5  A$ScriptR |    000446C6  A$ScriptR
     000446C7  A$ScriptR |    000446C8  A$ScriptR |    000446C9  A$ScriptR
     000446CA  A$ScriptR |    000446CB  A$ScriptR |    000446CD  A$ScriptR
     000446CE  A$ScriptR |    000446CF  A$ScriptR |    000446D0  A$ScriptR
     000446D3  A$ScriptR |    000446D5  A$ScriptR |    000446D7  A$ScriptR
     000446D8  A$ScriptR |    000446D9  A$ScriptR |    000446DA  A$ScriptR
     000446DB  A$ScriptR |    000446DC  A$ScriptR |    000446DD  A$ScriptR
     000446DF  A$ScriptR |    000446E0  A$ScriptR |    000446E1  A$ScriptR
     000446E2  A$ScriptR |    000446E3  A$ScriptR |    000446E4  A$ScriptR
     000446E5  A$ScriptR |    000446E5  C$ScriptR |    000446E7  A$ScriptR
     000446E9  A$ScriptR |    000446E9  C$ScriptR |    000446E9  XG$Script
     000446EA  A$ScriptR |    000446EA  C$ScriptR |    000446EA  C$ScriptR
     000446EA  G$ScriptU |    000446EA  _ScriptUp |    000446ED  A$ScriptR
     000446ED  C$ScriptR |    000446F0  A$ScriptR |    000446F1  A$ScriptR
     000446F3  A$ScriptR |    000446F5  A$ScriptR |    000446F6  A$ScriptR
     000446F7  A$ScriptR |    000446F7  C$ScriptR |    000446F7  XG$Script
     000446F8  A$ScriptR |    000446F8  C$ScriptR |    000446F8  C$ScriptR
     000446F8  C$ScriptR |    000446F8  G$ScriptU |    000446F8  XG$Script
     000446F8  _ScriptUp |    000446FB  A$ScriptR |    000446FB  C$ScriptR
     000446FB  C$ScriptR |    000446FB  C$ScriptR |    000446FB  G$ScriptU
     000446FB  XG$Script |    000446FB  _ScriptUp |    000446FE  A$ScriptR
     000446FE  C$ScriptR |    000446FE  C$ScriptR |    000446FE  G$ScriptU
     000446FE  _ScriptUp |    00044701  A$ScriptR |    00044704  A$ScriptR
     00044705  A$ScriptR |    00044707  A$ScriptR |    0004470A  A$ScriptR
     0004470D  A$ScriptR |    0004470E  A$ScriptR |    00044710  A$ScriptR
     00044711  A$ScriptR |    00044713  A$ScriptR |    00044715  A$ScriptR
     00044717  A$ScriptR |    00044719  A$ScriptR |    0004471A  A$ScriptR
     0004471A  C$ScriptR |    0004471A  XG$Script |    0004471B  A$ScriptR
     0004471B  C$ScriptR |    0004471B  C$ScriptR |    0004471B  G$ScriptU
     0004471B  _ScriptUp |    0004471E  A$ScriptR |    0004471F  A$ScriptR
     00044720  A$ScriptR |    00044722  A$ScriptR |    00044722  C$ScriptR
     00044724  A$ScriptR |    00044725  A$ScriptR |    00044725  C$ScriptR
     00044726  A$ScriptR |    00044727  A$ScriptR |    00044727  C$ScriptR
     00044729  A$ScriptR |    00044729  C$ScriptR |    00044729  XG$Script
     0004472A  A$ScriptR |    0004472A  C$ScriptR |    0004472A  G$ScriptU
     0004472A  _ScriptUp |    0004472C  A$ScriptR |    0004472C  C$ScriptR
     0004472F  A$ScriptR |    00044731  A$ScriptR |    00044733  A$ScriptR
     00044733  C$gb.h$65 |    00044736  A$ScriptR |    00044736  C$gb.h$65
     00044737  A$ScriptR |    00044738  A$ScriptR |    00044739  A$ScriptR
     0004473A  A$ScriptR |    0004473B  A$ScriptR |    0004473B  C$gb.h$65
     0004473E  A$ScriptR |    0004473E  C$gb.h$65 |    0004473F  A$ScriptR
     00044740  A$ScriptR |    00044741  A$ScriptR |    00044742  A$ScriptR
ASxxxx Linker V03.00 + NoICE + sdld,  page 125.
Hexadecimal  [32-Bits]

Area                       Addr        Size        Decimal Bytes (Attributes)
--------------------       ----        ----        ------- ----- ------------
_CODE_4                00044000    00002CEA =       11498. bytes (REL,CON)

        Value  Global            Value  Global            Value  Global    
        -----  ------            -----  ------            -----  ------    
     00044743  A$ScriptR |    00044743  C$ScriptR |    00044745  A$ScriptR
     00044748  A$ScriptR |    00044748  C$ScriptR |    0004474B  A$ScriptR
     0004474E  A$ScriptR |    0004474F  A$ScriptR |    00044751  A$ScriptR
     00044752  A$ScriptR |    00044753  A$ScriptR |    00044754  A$ScriptR
     00044755  A$ScriptR |    00044756  A$ScriptR |    00044757  A$ScriptR
     00044758  A$ScriptR |    00044759  A$ScriptR |    0004475A  A$ScriptR
     0004475B  A$ScriptR |    0004475C  A$ScriptR |    0004475D  A$ScriptR
     0004475E  A$ScriptR |    0004475F  A$ScriptR |    00044761  A$ScriptR
     00044764  A$ScriptR |    00044765  A$ScriptR |    00044766  A$ScriptR
     00044767  A$ScriptR |    00044767  C$ScriptR |    00044768  A$ScriptR
     00044769  A$ScriptR |    0004476A  A$ScriptR |    0004476B  A$ScriptR
     0004476C  A$ScriptR |    0004476D  A$ScriptR |    0004476E  A$ScriptR
     0004476F  A$ScriptR |    00044772  A$ScriptR |    00044773  A$ScriptR
     00044774  A$ScriptR |    00044775  A$ScriptR |    00044776  A$ScriptR
     00044779  A$ScriptR |    0004477A  A$ScriptR |    0004477B  A$ScriptR
     0004477D  A$ScriptR |    0004477E  A$ScriptR |    0004477F  A$ScriptR
     00044780  A$ScriptR |    00044781  A$ScriptR |    00044782  A$ScriptR
     00044783  A$ScriptR |    00044784  A$ScriptR |    00044785  A$ScriptR
     00044786  A$ScriptR |    00044787  A$ScriptR |    00044788  A$ScriptR
     00044789  A$ScriptR |    0004478A  A$ScriptR |    0004478C  A$ScriptR
     0004478D  A$ScriptR |    0004478E  A$ScriptR |    0004478E  C$ScriptR
     00044791  A$ScriptR |    00044792  A$ScriptR |    00044794  A$ScriptR
     00044796  A$ScriptR |    00044796  C$ScriptR |    00044799  A$ScriptR
     0004479A  A$ScriptR |    0004479B  A$ScriptR |    0004479C  A$ScriptR
     0004479E  A$ScriptR |    0004479F  A$ScriptR |    000447A0  A$ScriptR
     000447A1  A$ScriptR |    000447A2  A$ScriptR |    000447A3  A$ScriptR
     000447A4  A$ScriptR |    000447A6  A$ScriptR |    000447A7  A$ScriptR
     000447A8  A$ScriptR |    000447A9  A$ScriptR |    000447AA  A$ScriptR
     000447AB  A$ScriptR |    000447AC  A$ScriptR |    000447AE  A$ScriptR
     000447AF  A$ScriptR |    000447B0  A$ScriptR |    000447B0  C$ScriptR
     000447B2  A$ScriptR |    000447B3  A$ScriptR |    000447B5  A$ScriptR
     000447B6  A$ScriptR |    000447B7  A$ScriptR |    000447B8  A$ScriptR
     000447B9  A$ScriptR |    000447BA  A$ScriptR |    000447BA  C$gb.h$65
     000447BD  A$ScriptR |    000447BD  C$gb.h$65 |    000447BE  A$ScriptR
     000447BF  A$ScriptR |    000447C0  A$ScriptR |    000447C0  C$ScriptR
     000447C2  A$ScriptR |    000447C3  A$ScriptR |    000447C5  A$ScriptR
     000447C6  A$ScriptR |    000447C6  C$gb.h$65 |    000447C9  A$ScriptR
     000447C9  C$gb.h$65 |    000447CA  A$ScriptR |    000447CB  A$ScriptR
     000447CC  A$ScriptR |    000447CC  C$ScriptR |    000447CF  A$ScriptR
     000447D0  A$ScriptR |    000447D0  C$ScriptR |    000447D2  A$ScriptR
     000447D4  A$ScriptR |    000447D4  C$ScriptR |    000447D4  XG$Script
     000447D5  A$ScriptR |    000447D5  C$ScriptR |    000447D5  G$ScriptU
     000447D5  _ScriptUp |    000447D7  A$ScriptR |    000447D7  C$ScriptR
     000447DA  A$ScriptR |    000447DD  A$ScriptR |    000447DE  A$ScriptR
     000447E1  A$ScriptR |    000447E1  C$ScriptR |    000447E4  A$ScriptR
     000447E5  A$ScriptR |    000447E6  A$ScriptR |    000447E7  A$ScriptR
     000447EA  A$ScriptR |    000447EB  A$ScriptR |    000447ED  A$ScriptR
     000447EE  A$ScriptR |    000447EF  A$ScriptR |    000447F0  A$ScriptR
     000447F1  A$ScriptR |    000447F2  A$ScriptR |    000447F3  A$ScriptR
     000447F4  A$ScriptR |    000447F5  A$ScriptR |    000447F6  A$ScriptR
     000447F7  A$ScriptR |    000447F8  A$ScriptR |    000447FA  A$ScriptR
ASxxxx Linker V03.00 + NoICE + sdld,  page 126.
Hexadecimal  [32-Bits]

Area                       Addr        Size        Decimal Bytes (Attributes)
--------------------       ----        ----        ------- ----- ------------
_CODE_4                00044000    00002CEA =       11498. bytes (REL,CON)

        Value  Global            Value  Global            Value  Global    
        -----  ------            -----  ------            -----  ------    
     000447FC  A$ScriptR |    000447FE  A$ScriptR |    00044800  A$ScriptR
     00044801  A$ScriptR |    00044803  A$ScriptR |    00044805  A$ScriptR
     00044807  A$ScriptR |    00044808  A$ScriptR |    0004480A  A$ScriptR
     0004480A  C$ScriptR |    0004480B  A$ScriptR |    0004480E  A$ScriptR
     0004480F  A$ScriptR |    00044810  A$ScriptR |    00044811  A$ScriptR
     00044813  A$ScriptR |    00044813  C$ScriptR |    00044815  A$ScriptR
     00044816  A$ScriptR |    00044817  A$ScriptR |    00044818  A$ScriptR
     00044819  A$ScriptR |    0004481A  A$ScriptR |    0004481B  A$ScriptR
     0004481C  A$ScriptR |    0004481E  A$ScriptR |    00044820  A$ScriptR
     00044822  A$ScriptR |    00044824  A$ScriptR |    00044825  A$ScriptR
     00044827  A$ScriptR |    00044829  A$ScriptR |    0004482B  A$ScriptR
     0004482C  A$ScriptR |    0004482E  A$ScriptR |    0004482E  C$ScriptR
     0004482F  A$ScriptR |    00044832  A$ScriptR |    00044833  A$ScriptR
     00044834  A$ScriptR |    00044835  A$ScriptR |    00044835  C$ScriptR
     00044838  A$ScriptR |    00044839  A$ScriptR |    0004483A  A$ScriptR
     0004483B  A$ScriptR |    0004483E  A$ScriptR |    0004483F  A$ScriptR
     00044840  A$ScriptR |    00044841  A$ScriptR |    00044842  A$ScriptR
     00044843  A$ScriptR |    00044844  A$ScriptR |    00044845  A$ScriptR
     00044846  A$ScriptR |    00044847  A$ScriptR |    00044849  A$ScriptR
     0004484B  A$ScriptR |    0004484D  A$ScriptR |    0004484F  A$ScriptR
     00044850  A$ScriptR |    00044852  A$ScriptR |    00044854  A$ScriptR
     00044856  A$ScriptR |    00044857  A$ScriptR |    00044859  A$ScriptR
     00044859  C$ScriptR |    0004485A  A$ScriptR |    0004485D  A$ScriptR
     0004485E  A$ScriptR |    0004485F  A$ScriptR |    00044860  A$ScriptR
     00044862  A$ScriptR |    00044862  C$ScriptR |    00044863  A$ScriptR
     00044864  A$ScriptR |    00044865  A$ScriptR |    00044866  A$ScriptR
     00044867  A$ScriptR |    00044868  A$ScriptR |    0004486A  A$ScriptR
     0004486C  A$ScriptR |    0004486E  A$ScriptR |    00044870  A$ScriptR
     00044871  A$ScriptR |    00044873  A$ScriptR |    00044875  A$ScriptR
     00044877  A$ScriptR |    00044878  A$ScriptR |    0004487A  A$ScriptR
     0004487A  C$ScriptR |    0004487B  A$ScriptR |    0004487E  A$ScriptR
     0004487F  A$ScriptR |    00044880  A$ScriptR |    00044881  A$ScriptR
     00044881  C$ScriptR |    00044884  A$ScriptR |    00044885  A$ScriptR
     00044886  A$ScriptR |    00044887  A$ScriptR |    0004488A  A$ScriptR
     0004488B  A$ScriptR |    0004488C  A$ScriptR |    0004488D  A$ScriptR
     0004488F  A$ScriptR |    00044890  A$ScriptR |    00044891  A$ScriptR
     00044893  A$ScriptR |    00044896  A$ScriptR |    00044897  A$ScriptR
     00044898  A$ScriptR |    00044899  A$ScriptR |    0004489C  A$ScriptR
     0004489D  A$ScriptR |    0004489E  A$ScriptR |    0004489F  A$ScriptR
     000448A1  A$ScriptR |    000448A2  A$ScriptR |    000448A3  A$ScriptR
     000448A5  A$ScriptR |    000448A5  C$ScriptR |    000448A8  A$ScriptR
     000448A9  A$ScriptR |    000448AB  A$ScriptR |    000448AB  C$ScriptR
     000448AE  A$ScriptR |    000448AF  A$ScriptR |    000448B1  A$ScriptR
     000448B2  A$ScriptR |    000448B2  C$ScriptR |    000448B4  A$ScriptR
     000448B6  A$ScriptR |    000448B6  C$ScriptR |    000448B8  A$ScriptR
     000448BA  A$ScriptR |    000448BA  C$ScriptR |    000448BA  XG$Script
     000448BB  A$ScriptR |    000448BB  C$ScriptR |    000448BB  C$ScriptR
     000448BB  G$ScriptU |    000448BB  _ScriptUp |    000448BE  A$ScriptR
     000448BF  A$ScriptR |    000448C1  A$ScriptR |    000448C1  C$ScriptR
     000448C4  A$ScriptR |    000448C6  A$ScriptR |    000448C7  A$ScriptR
     000448C9  A$ScriptR |    000448C9  C$ScriptR |    000448CB  A$ScriptR
ASxxxx Linker V03.00 + NoICE + sdld,  page 127.
Hexadecimal  [32-Bits]

Area                       Addr        Size        Decimal Bytes (Attributes)
--------------------       ----        ----        ------- ----- ------------
_CODE_4                00044000    00002CEA =       11498. bytes (REL,CON)

        Value  Global            Value  Global            Value  Global    
        -----  ------            -----  ------            -----  ------    
     000448CC  A$ScriptR |    000448CC  C$ScriptR |    000448CF  A$ScriptR
     000448CF  C$ScriptR |    000448D0  A$ScriptR |    000448D2  A$ScriptR
     000448D2  C$ScriptR |    000448D3  A$ScriptR |    000448D5  A$ScriptR
     000448D8  A$ScriptR |    000448D9  A$ScriptR |    000448DB  A$ScriptR
     000448DB  C$ScriptR |    000448DD  A$ScriptR |    000448DD  C$ScriptR
     000448DD  XG$Script |    000448DE  A$ScriptR |    000448DE  C$ScriptR
     000448DE  G$Script_ |    000448DE  XG$Script |    000448DE  _Script_N
     000448DF  A$ScriptR |    000448DF  C$ScriptR |    000448DF  C$ScriptR
     000448DF  G$Script_ |    000448DF  _Script_E |    000448E2  A$ScriptR
     000448E4  A$ScriptR |    000448E4  C$ScriptR |    000448E7  A$ScriptR
     000448E8  A$ScriptR |    000448E9  A$ScriptR |    000448EA  A$ScriptR
     000448EA  C$ScriptR |    000448EA  XG$Script |    000448EB  A$ScriptR
     000448EB  C$ScriptR |    000448EB  C$ScriptR |    000448EB  G$Script_
     000448EB  _Script_T |    000448EE  A$ScriptR |    000448EF  A$ScriptR
     000448F1  A$ScriptR |    000448F4  A$ScriptR |    000448F5  A$ScriptR
     000448F7  A$ScriptR |    000448F8  A$ScriptR |    000448F9  A$ScriptR
     000448FA  A$ScriptR |    000448FD  A$ScriptR |    000448FE  A$ScriptR
     000448FF  A$ScriptR |    00044900  A$ScriptR |    00044903  A$ScriptR
     00044905  A$ScriptR |    00044905  C$ScriptR |    00044908  A$ScriptR
     0004490A  A$ScriptR |    0004490B  A$ScriptR |    0004490D  A$ScriptR
     0004490D  C$ScriptR |    0004490D  XG$Script |    0004490E  A$ScriptR
     0004490E  C$ScriptR |    0004490E  C$ScriptR |    0004490E  G$Script_
     0004490E  _Script_G |    00044911  A$ScriptR |    00044912  A$ScriptR
     00044913  A$ScriptR |    00044914  A$ScriptR |    00044917  A$ScriptR
     00044918  A$ScriptR |    0004491A  A$ScriptR |    0004491B  A$ScriptR
     0004491C  A$ScriptR |    0004491D  A$ScriptR |    0004491E  A$ScriptR
     0004491F  A$ScriptR |    00044922  A$ScriptR |    00044923  A$ScriptR
     00044924  A$ScriptR |    00044926  A$ScriptR |    00044927  A$ScriptR
     00044928  A$ScriptR |    0004492B  A$ScriptR |    0004492C  A$ScriptR
     0004492D  A$ScriptR |    0004492E  A$ScriptR |    0004492E  C$ScriptR
     0004492E  XG$Script |    0004492F  A$ScriptR |    0004492F  C$ScriptR
     0004492F  C$ScriptR |    0004492F  G$Script_ |    0004492F  _Script_I
     00044932  A$ScriptR |    00044933  A$ScriptR |    00044935  A$ScriptR
     00044935  C$ScriptR |    00044938  A$ScriptR |    00044939  A$ScriptR
     0004493B  A$ScriptR |    0004493C  A$ScriptR |    0004493F  A$ScriptR
     00044940  A$ScriptR |    00044941  A$ScriptR |    00044942  A$ScriptR
     00044943  A$ScriptR |    00044943  C$ScriptR |    00044946  A$ScriptR
     00044947  A$ScriptR |    00044948  A$ScriptR |    00044949  A$ScriptR
     0004494C  A$ScriptR |    0004494D  A$ScriptR |    0004494F  A$ScriptR
     00044950  A$ScriptR |    00044951  A$ScriptR |    00044952  A$ScriptR
     00044955  A$ScriptR |    00044956  A$ScriptR |    00044957  A$ScriptR
     00044959  A$ScriptR |    0004495A  A$ScriptR |    0004495B  A$ScriptR
     0004495E  A$ScriptR |    0004495F  A$ScriptR |    00044960  A$ScriptR
     00044961  A$ScriptR |    00044961  C$ScriptR |    00044961  XG$Script
     00044962  A$ScriptR |    00044962  C$ScriptR |    00044962  C$ScriptR
     00044962  G$Script_ |    00044962  _Script_I |    00044965  A$ScriptR
     00044966  A$ScriptR |    00044968  A$ScriptR |    0004496B  A$ScriptR
     0004496C  A$ScriptR |    0004496E  A$ScriptR |    0004496F  A$ScriptR
     0004496F  C$ScriptR |    00044972  A$ScriptR |    00044973  A$ScriptR
     00044974  A$ScriptR |    00044977  A$ScriptR |    00044978  A$ScriptR
     0004497A  A$ScriptR |    0004497B  A$ScriptR |    0004497D  A$ScriptR
ASxxxx Linker V03.00 + NoICE + sdld,  page 128.
Hexadecimal  [32-Bits]

Area                       Addr        Size        Decimal Bytes (Attributes)
--------------------       ----        ----        ------- ----- ------------
_CODE_4                00044000    00002CEA =       11498. bytes (REL,CON)

        Value  Global            Value  Global            Value  Global    
        -----  ------            -----  ------            -----  ------    
     0004497D  C$ScriptR |    00044980  A$ScriptR |    00044980  C$ScriptR
     00044981  A$ScriptR |    00044983  A$ScriptR |    00044986  A$ScriptR
     00044987  A$ScriptR |    00044988  A$ScriptR |    00044988  C$ScriptR
     00044989  A$ScriptR |    0004498A  A$ScriptR |    0004498C  A$ScriptR
     0004498E  A$ScriptR |    00044990  A$ScriptR |    00044992  A$ScriptR
     00044994  A$ScriptR |    00044996  A$ScriptR |    00044998  A$ScriptR
     00044998  C$ScriptR |    00044999  A$ScriptR |    0004499A  A$ScriptR
     0004499B  A$ScriptR |    0004499C  A$ScriptR |    0004499E  A$ScriptR
     000449A0  A$ScriptR |    000449A2  A$ScriptR |    000449A3  A$ScriptR
     000449A3  C$ScriptR |    000449A5  A$ScriptR |    000449A5  C$ScriptR
     000449A5  C$ScriptR |    000449A6  A$ScriptR |    000449A7  A$ScriptR
     000449A8  A$ScriptR |    000449A9  A$ScriptR |    000449AB  A$ScriptR
     000449AC  A$ScriptR |    000449AC  C$ScriptR |    000449AE  A$ScriptR
     000449AE  C$ScriptR |    000449AE  C$ScriptR |    000449AF  A$ScriptR
     000449B0  A$ScriptR |    000449B2  A$ScriptR |    000449B3  A$ScriptR
     000449B5  A$ScriptR |    000449B5  C$ScriptR |    000449B7  A$ScriptR
     000449B7  C$ScriptR |    000449B7  C$ScriptR |    000449B8  A$ScriptR
     000449B9  A$ScriptR |    000449BB  A$ScriptR |    000449BC  A$ScriptR
     000449BC  C$ScriptR |    000449BE  A$ScriptR |    000449BE  C$ScriptR
     000449BE  C$ScriptR |    000449BF  A$ScriptR |    000449C0  A$ScriptR
     000449C1  A$ScriptR |    000449C2  A$ScriptR |    000449C4  A$ScriptR
     000449C5  A$ScriptR |    000449C7  A$ScriptR |    000449C7  C$ScriptR
     000449C9  A$ScriptR |    000449C9  C$ScriptR |    000449C9  C$ScriptR
     000449CA  A$ScriptR |    000449CB  A$ScriptR |    000449CC  A$ScriptR
     000449CD  A$ScriptR |    000449CF  A$ScriptR |    000449D1  A$ScriptR
     000449D2  A$ScriptR |    000449D4  A$ScriptR |    000449D4  C$ScriptR
     000449D6  A$ScriptR |    000449D6  C$ScriptR |    000449D6  C$ScriptR
     000449D7  A$ScriptR |    000449D7  C$ScriptR |    000449D7  C$ScriptR
     000449D8  A$ScriptR |    000449D9  A$ScriptR |    000449D9  C$ScriptR
     000449DC  A$ScriptR |    000449DD  A$ScriptR |    000449DE  A$ScriptR
     000449DF  A$ScriptR |    000449E2  A$ScriptR |    000449E3  A$ScriptR
     000449E5  A$ScriptR |    000449E6  A$ScriptR |    000449E7  A$ScriptR
     000449E8  A$ScriptR |    000449EB  A$ScriptR |    000449EC  A$ScriptR
     000449ED  A$ScriptR |    000449EF  A$ScriptR |    000449F0  A$ScriptR
     000449F1  A$ScriptR |    000449F4  A$ScriptR |    000449F5  A$ScriptR
     000449F6  A$ScriptR |    000449F7  A$ScriptR |    000449F7  C$ScriptR
     000449F7  XG$Script |    000449F8  A$ScriptR |    000449F8  C$ScriptR
     000449F8  C$ScriptR |    000449F8  G$Script_ |    000449F8  _Script_S
     000449FB  A$ScriptR |    000449FC  A$ScriptR |    000449FD  A$ScriptR
     000449FF  A$ScriptR |    00044A00  A$ScriptR |    00044A01  A$ScriptR
     00044A02  A$ScriptR |    00044A04  A$ScriptR |    00044A05  A$ScriptR
     00044A05  C$ScriptR |    00044A08  A$ScriptR |    00044A09  A$ScriptR
     00044A0B  A$ScriptR |    00044A0B  C$ScriptR |    00044A0B  XG$Script
     00044A0C  A$ScriptR |    00044A0C  C$ScriptR |    00044A0C  C$ScriptR
     00044A0C  G$Script_ |    00044A0C  _Script_C |    00044A0F  A$ScriptR
     00044A10  A$ScriptR |    00044A11  A$ScriptR |    00044A13  A$ScriptR
     00044A14  A$ScriptR |    00044A15  A$ScriptR |    00044A16  A$ScriptR
     00044A18  A$ScriptR |    00044A19  A$ScriptR |    00044A19  C$ScriptR
     00044A1C  A$ScriptR |    00044A1D  A$ScriptR |    00044A1F  A$ScriptR
     00044A1F  C$ScriptR |    00044A1F  XG$Script |    00044A20  A$ScriptR
     00044A20  C$ScriptR |    00044A20  G$Script_ |    00044A20  _Script_A
ASxxxx Linker V03.00 + NoICE + sdld,  page 129.
Hexadecimal  [32-Bits]

Area                       Addr        Size        Decimal Bytes (Attributes)
--------------------       ----        ----        ------- ----- ------------
_CODE_4                00044000    00002CEA =       11498. bytes (REL,CON)

        Value  Global            Value  Global            Value  Global    
        -----  ------            -----  ------            -----  ------    
     00044A22  A$ScriptR |    00044A22  C$ScriptR |    00044A25  A$ScriptR
     00044A28  A$ScriptR |    00044A29  A$ScriptR |    00044A2B  A$ScriptR
     00044A2C  A$ScriptR |    00044A2D  A$ScriptR |    00044A2E  A$ScriptR
     00044A2F  A$ScriptR |    00044A30  A$ScriptR |    00044A31  A$ScriptR
     00044A32  A$ScriptR |    00044A33  A$ScriptR |    00044A34  A$ScriptR
     00044A35  A$ScriptR |    00044A36  A$ScriptR |    00044A37  A$ScriptR
     00044A39  A$ScriptR |    00044A3A  A$ScriptR |    00044A3B  A$ScriptR
     00044A3C  A$ScriptR |    00044A3D  A$ScriptR |    00044A3E  A$ScriptR
     00044A3F  A$ScriptR |    00044A40  A$ScriptR |    00044A41  A$ScriptR
     00044A42  A$ScriptR |    00044A43  A$ScriptR |    00044A44  A$ScriptR
     00044A45  A$ScriptR |    00044A46  A$ScriptR |    00044A48  A$ScriptR
     00044A4B  A$ScriptR |    00044A4C  A$ScriptR |    00044A4D  A$ScriptR
     00044A4E  A$ScriptR |    00044A4F  A$ScriptR |    00044A50  A$ScriptR
     00044A52  A$ScriptR |    00044A55  A$ScriptR |    00044A55  C$ScriptR
     00044A56  A$ScriptR |    00044A57  A$ScriptR |    00044A5A  A$ScriptR
     00044A5B  A$ScriptR |    00044A5C  A$ScriptR |    00044A5D  A$ScriptR
     00044A5F  A$ScriptR |    00044A60  A$ScriptR |    00044A61  A$ScriptR
     00044A64  A$ScriptR |    00044A66  A$ScriptR |    00044A68  A$ScriptR
     00044A6B  A$ScriptR |    00044A6D  A$ScriptR |    00044A6F  A$ScriptR
     00044A71  A$ScriptR |    00044A74  A$ScriptR |    00044A76  A$ScriptR
     00044A79  A$ScriptR |    00044A7A  A$ScriptR |    00044A7C  A$ScriptR
     00044A7D  A$ScriptR |    00044A7E  A$ScriptR |    00044A7F  A$ScriptR
     00044A80  A$ScriptR |    00044A81  A$ScriptR |    00044A82  A$ScriptR
     00044A82  C$ScriptR |    00044A85  A$ScriptR |    00044A86  A$ScriptR
     00044A88  A$ScriptR |    00044A89  A$ScriptR |    00044A8A  A$ScriptR
     00044A8B  A$ScriptR |    00044A8C  A$ScriptR |    00044A8D  A$ScriptR
     00044A8E  A$ScriptR |    00044A8F  A$ScriptR |    00044A90  A$ScriptR
     00044A91  A$ScriptR |    00044A92  A$ScriptR |    00044A93  A$ScriptR
     00044A94  A$ScriptR |    00044A95  A$ScriptR |    00044A98  A$ScriptR
     00044A99  A$ScriptR |    00044A9A  A$ScriptR |    00044A9B  A$ScriptR
     00044A9D  A$ScriptR |    00044A9E  A$ScriptR |    00044A9F  A$ScriptR
     00044AA2  A$ScriptR |    00044AA4  A$ScriptR |    00044AA6  A$ScriptR
     00044AA9  A$ScriptR |    00044AAB  A$ScriptR |    00044AAC  A$ScriptR
     00044AAE  A$ScriptR |    00044AB1  A$ScriptR |    00044AB3  A$ScriptR
     00044AB6  A$ScriptR |    00044AB7  A$ScriptR |    00044AB9  A$ScriptR
     00044ABA  A$ScriptR |    00044ABB  A$ScriptR |    00044ABC  A$ScriptR
     00044ABD  A$ScriptR |    00044ABE  A$ScriptR |    00044ABF  A$ScriptR
     00044ABF  C$ScriptR |    00044AC2  A$ScriptR |    00044AC3  A$ScriptR
     00044AC5  A$ScriptR |    00044AC6  A$ScriptR |    00044AC7  A$ScriptR
     00044AC8  A$ScriptR |    00044AC9  A$ScriptR |    00044ACA  A$ScriptR
     00044ACB  A$ScriptR |    00044ACC  A$ScriptR |    00044ACD  A$ScriptR
     00044ACE  A$ScriptR |    00044ACF  A$ScriptR |    00044AD0  A$ScriptR
     00044AD3  A$ScriptR |    00044AD4  A$ScriptR |    00044AD6  A$ScriptR
     00044AD8  A$ScriptR |    00044AD8  C$ScriptR |    00044AD8  XG$Script
     00044AD9  A$ScriptR |    00044AD9  C$ScriptR |    00044AD9  C$ScriptR
     00044AD9  G$Script_ |    00044AD9  _Script_A |    00044ADC  A$ScriptR
     00044ADF  A$ScriptR |    00044AE0  A$ScriptR |    00044AE0  C$ScriptR
     00044AE3  A$ScriptR |    00044AE4  A$ScriptR |    00044AE5  A$ScriptR
     00044AE5  C$ScriptR |    00044AE6  A$ScriptR |    00044AE7  A$ScriptR
     00044AE8  A$ScriptR |    00044AEB  A$ScriptR |    00044AEC  A$ScriptR
     00044AEC  C$ScriptR |    00044AEC  XG$Script |    00044AED  A$ScriptR
ASxxxx Linker V03.00 + NoICE + sdld,  page 130.
Hexadecimal  [32-Bits]

Area                       Addr        Size        Decimal Bytes (Attributes)
--------------------       ----        ----        ------- ----- ------------
_CODE_4                00044000    00002CEA =       11498. bytes (REL,CON)

        Value  Global            Value  Global            Value  Global    
        -----  ------            -----  ------            -----  ------    
     00044AED  C$ScriptR |    00044AED  C$ScriptR |    00044AED  G$Script_
     00044AED  _Script_C |    00044AF0  A$ScriptR |    00044AF1  A$ScriptR
     00044AF3  A$ScriptR |    00044AF4  A$ScriptR |    00044AF5  A$ScriptR
     00044AF6  A$ScriptR |    00044AF9  A$ScriptR |    00044AFA  A$ScriptR
     00044AFB  A$ScriptR |    00044AFC  A$ScriptR |    00044AFF  A$ScriptR
     00044B00  A$ScriptR |    00044B01  A$ScriptR |    00044B02  A$ScriptR
     00044B02  C$ScriptR |    00044B05  A$ScriptR |    00044B06  A$ScriptR
     00044B08  A$ScriptR |    00044B09  A$ScriptR |    00044B0A  A$ScriptR
     00044B0B  A$ScriptR |    00044B0E  A$ScriptR |    00044B0F  A$ScriptR
     00044B10  A$ScriptR |    00044B11  A$ScriptR |    00044B14  A$ScriptR
     00044B15  A$ScriptR |    00044B16  A$ScriptR |    00044B17  A$ScriptR
     00044B17  C$ScriptR |    00044B1A  A$ScriptR |    00044B1B  A$ScriptR
     00044B1D  A$ScriptR |    00044B20  A$ScriptR |    00044B20  C$ScriptR
     00044B21  A$ScriptR |    00044B23  A$ScriptR |    00044B26  A$ScriptR
     00044B26  C$ScriptR |    00044B29  A$ScriptR |    00044B29  C$ScriptR
     00044B2C  A$ScriptR |    00044B2E  A$ScriptR |    00044B2F  A$ScriptR
     00044B31  A$ScriptR |    00044B32  A$ScriptR |    00044B34  A$ScriptR
     00044B35  A$ScriptR |    00044B37  A$ScriptR |    00044B37  C$ScriptR
     00044B3A  A$ScriptR |    00044B3C  A$ScriptR |    00044B3C  C$ScriptR
     00044B3F  A$ScriptR |    00044B41  A$ScriptR |    00044B42  A$ScriptR
     00044B44  A$ScriptR |    00044B45  A$ScriptR |    00044B45  C$ScriptR
     00044B48  A$ScriptR |    00044B49  A$ScriptR |    00044B4A  A$ScriptR
     00044B4B  A$ScriptR |    00044B4E  A$ScriptR |    00044B4F  A$ScriptR
     00044B50  A$ScriptR |    00044B51  A$ScriptR |    00044B51  C$ScriptR
     00044B54  A$ScriptR |    00044B55  A$ScriptR |    00044B56  A$ScriptR
     00044B57  A$ScriptR |    00044B5A  A$ScriptR |    00044B5B  A$ScriptR
     00044B5C  A$ScriptR |    00044B5D  A$ScriptR |    00044B5D  C$ScriptR
     00044B5D  XG$Script |    00044B5E  A$ScriptR |    00044B5E  C$ScriptR
     00044B5E  C$ScriptR |    00044B5E  G$Script_ |    00044B5E  _Script_C
     00044B61  A$ScriptR |    00044B62  A$ScriptR |    00044B64  A$ScriptR
     00044B67  A$ScriptR |    00044B67  C$ScriptR |    00044B68  A$ScriptR
     00044B6A  A$ScriptR |    00044B6D  A$ScriptR |    00044B6D  C$ScriptR
     00044B70  A$ScriptR |    00044B71  A$ScriptR |    00044B72  A$ScriptR
     00044B73  A$ScriptR |    00044B76  A$ScriptR |    00044B77  A$ScriptR
     00044B78  A$ScriptR |    00044B79  A$ScriptR |    00044B79  C$ScriptR
     00044B7C  A$ScriptR |    00044B7D  A$ScriptR |    00044B7E  A$ScriptR
     00044B7F  A$ScriptR |    00044B82  A$ScriptR |    00044B83  A$ScriptR
     00044B84  A$ScriptR |    00044B85  A$ScriptR |    00044B85  C$ScriptR
     00044B88  A$ScriptR |    00044B88  C$ScriptR |    00044B8B  A$ScriptR
     00044B8D  A$ScriptR |    00044B8E  A$ScriptR |    00044B90  A$ScriptR
     00044B91  A$ScriptR |    00044B93  A$ScriptR |    00044B94  A$ScriptR
     00044B96  A$ScriptR |    00044B96  C$ScriptR |    00044B99  A$ScriptR
     00044B9B  A$ScriptR |    00044B9B  C$ScriptR |    00044B9E  A$ScriptR
     00044BA0  A$ScriptR |    00044BA1  A$ScriptR |    00044BA3  A$ScriptR
     00044BA4  A$ScriptR |    00044BA4  C$ScriptR |    00044BA7  A$ScriptR
     00044BA8  A$ScriptR |    00044BA9  A$ScriptR |    00044BAA  A$ScriptR
     00044BAD  A$ScriptR |    00044BAE  A$ScriptR |    00044BAF  A$ScriptR
     00044BB0  A$ScriptR |    00044BB0  C$ScriptR |    00044BB3  A$ScriptR
     00044BB4  A$ScriptR |    00044BB5  A$ScriptR |    00044BB6  A$ScriptR
     00044BB9  A$ScriptR |    00044BBA  A$ScriptR |    00044BBB  A$ScriptR
     00044BBC  A$ScriptR |    00044BBC  C$ScriptR |    00044BBF  A$ScriptR
ASxxxx Linker V03.00 + NoICE + sdld,  page 131.
Hexadecimal  [32-Bits]

Area                       Addr        Size        Decimal Bytes (Attributes)
--------------------       ----        ----        ------- ----- ------------
_CODE_4                00044000    00002CEA =       11498. bytes (REL,CON)

        Value  Global            Value  Global            Value  Global    
        -----  ------            -----  ------            -----  ------    
     00044BC0  A$ScriptR |    00044BC2  A$ScriptR |    00044BC3  A$ScriptR
     00044BC3  C$ScriptR |    00044BC3  XG$Script |    00044BC4  A$ScriptR
     00044BC4  C$ScriptR |    00044BC4  G$ScriptH |    00044BC4  _ScriptHe
     00044BC6  A$ScriptR |    00044BC6  C$ScriptR |    00044BC9  A$ScriptR
     00044BCA  A$ScriptR |    00044BCB  A$ScriptR |    00044BCC  A$ScriptR
     00044BCD  A$ScriptR |    00044BD0  A$ScriptR |    00044BD1  A$ScriptR
     00044BD2  A$ScriptR |    00044BD3  A$ScriptR |    00044BD4  A$ScriptR
     00044BD5  A$ScriptR |    00044BD7  A$ScriptR |    00044BD8  A$ScriptR
     00044BD9  A$ScriptR |    00044BDC  A$ScriptR |    00044BDD  A$ScriptR
     00044BDE  A$ScriptR |    00044BDF  A$ScriptR |    00044BE1  A$ScriptR
     00044BE2  A$ScriptR |    00044BE3  A$ScriptR |    00044BE4  A$ScriptR
     00044BE5  A$ScriptR |    00044BE6  A$ScriptR |    00044BE7  A$ScriptR
     00044BE8  A$ScriptR |    00044BE9  A$ScriptR |    00044BEA  A$ScriptR
     00044BEB  A$ScriptR |    00044BEC  A$ScriptR |    00044BED  A$ScriptR
     00044BEE  A$ScriptR |    00044BEF  A$ScriptR |    00044BF1  A$ScriptR
     00044BF2  A$ScriptR |    00044BF3  A$ScriptR |    00044BF4  A$ScriptR
     00044BF6  A$ScriptR |    00044BF8  A$ScriptR |    00044BF8  C$ScriptR
     00044BFB  A$ScriptR |    00044BFD  A$ScriptR |    00044BFE  A$ScriptR
     00044BFF  A$ScriptR |    00044C00  A$ScriptR |    00044C01  A$ScriptR
     00044C02  A$ScriptR |    00044C03  A$ScriptR |    00044C05  A$ScriptR
     00044C05  C$ScriptR |    00044C06  A$ScriptR |    00044C08  A$ScriptR
     00044C09  A$ScriptR |    00044C0B  A$ScriptR |    00044C0D  A$ScriptR
     00044C0F  A$ScriptR |    00044C0F  C$ScriptR |    00044C12  A$ScriptR
     00044C14  A$ScriptR |    00044C15  A$ScriptR |    00044C17  A$ScriptR
     00044C17  C$ScriptR |    00044C1A  A$ScriptR |    00044C1B  A$ScriptR
     00044C1D  A$ScriptR |    00044C1E  A$ScriptR |    00044C1F  A$ScriptR
     00044C20  A$ScriptR |    00044C22  A$ScriptR |    00044C23  A$ScriptR
     00044C26  A$ScriptR |    00044C27  A$ScriptR |    00044C28  A$ScriptR
     00044C29  A$ScriptR |    00044C2A  A$ScriptR |    00044C2B  A$ScriptR
     00044C2C  A$ScriptR |    00044C2D  A$ScriptR |    00044C2E  A$ScriptR
     00044C2F  A$ScriptR |    00044C31  A$ScriptR |    00044C33  A$ScriptR
     00044C33  C$ScriptR |    00044C36  A$ScriptR |    00044C37  A$ScriptR
     00044C38  A$ScriptR |    00044C39  A$ScriptR |    00044C3B  A$ScriptR
     00044C3B  C$ScriptR |    00044C3C  A$ScriptR |    00044C3E  A$ScriptR
     00044C3F  A$ScriptR |    00044C41  A$ScriptR |    00044C43  A$ScriptR
     00044C45  A$ScriptR |    00044C45  C$ScriptR |    00044C48  A$ScriptR
     00044C4A  A$ScriptR |    00044C4B  A$ScriptR |    00044C4D  A$ScriptR
     00044C4D  C$ScriptR |    00044C50  A$ScriptR |    00044C51  A$ScriptR
     00044C53  A$ScriptR |    00044C54  A$ScriptR |    00044C55  A$ScriptR
     00044C56  A$ScriptR |    00044C58  A$ScriptR |    00044C59  A$ScriptR
     00044C5C  A$ScriptR |    00044C5D  A$ScriptR |    00044C5E  A$ScriptR
     00044C5F  A$ScriptR |    00044C60  A$ScriptR |    00044C61  A$ScriptR
     00044C64  A$ScriptR |    00044C66  A$ScriptR |    00044C67  A$ScriptR
     00044C68  A$ScriptR |    00044C6A  A$ScriptR |    00044C6A  C$ScriptR
     00044C6D  A$ScriptR |    00044C6E  A$ScriptR |    00044C70  A$ScriptR
     00044C71  A$ScriptR |    00044C72  A$ScriptR |    00044C73  A$ScriptR
     00044C75  A$ScriptR |    00044C76  A$ScriptR |    00044C79  A$ScriptR
     00044C7A  A$ScriptR |    00044C7B  A$ScriptR |    00044C7C  A$ScriptR
     00044C7E  A$ScriptR |    00044C7E  C$ScriptR |    00044C81  A$ScriptR
     00044C82  A$ScriptR |    00044C83  A$ScriptR |    00044C84  A$ScriptR
     00044C87  A$ScriptR |    00044C88  A$ScriptR |    00044C89  A$ScriptR
ASxxxx Linker V03.00 + NoICE + sdld,  page 132.
Hexadecimal  [32-Bits]

Area                       Addr        Size        Decimal Bytes (Attributes)
--------------------       ----        ----        ------- ----- ------------
_CODE_4                00044000    00002CEA =       11498. bytes (REL,CON)

        Value  Global            Value  Global            Value  Global    
        -----  ------            -----  ------            -----  ------    
     00044C8C  A$ScriptR |    00044C8E  A$ScriptR |    00044C8F  A$ScriptR
     00044C90  A$ScriptR |    00044C92  A$ScriptR |    00044C92  C$ScriptR
     00044C95  A$ScriptR |    00044C97  A$ScriptR |    00044C98  A$ScriptR
     00044C9A  A$ScriptR |    00044C9A  C$ScriptR |    00044C9D  A$ScriptR
     00044C9E  A$ScriptR |    00044CA0  A$ScriptR |    00044CA1  A$ScriptR
     00044CA2  A$ScriptR |    00044CA3  A$ScriptR |    00044CA5  A$ScriptR
     00044CA6  A$ScriptR |    00044CA9  A$ScriptR |    00044CAA  A$ScriptR
     00044CAB  A$ScriptR |    00044CAC  A$ScriptR |    00044CAD  A$ScriptR
     00044CAE  A$ScriptR |    00044CB1  A$ScriptR |    00044CB3  A$ScriptR
     00044CB4  A$ScriptR |    00044CB5  A$ScriptR |    00044CB7  A$ScriptR
     00044CB7  C$ScriptR |    00044CBA  A$ScriptR |    00044CBB  A$ScriptR
     00044CBD  A$ScriptR |    00044CBE  A$ScriptR |    00044CBF  A$ScriptR
     00044CC0  A$ScriptR |    00044CC2  A$ScriptR |    00044CC3  A$ScriptR
     00044CC6  A$ScriptR |    00044CC7  A$ScriptR |    00044CC8  A$ScriptR
     00044CC9  A$ScriptR |    00044CCB  A$ScriptR |    00044CCB  C$ScriptR
     00044CCE  A$ScriptR |    00044CCF  A$ScriptR |    00044CD0  A$ScriptR
     00044CD1  A$ScriptR |    00044CD4  A$ScriptR |    00044CD5  A$ScriptR
     00044CD6  A$ScriptR |    00044CD9  A$ScriptR |    00044CDB  A$ScriptR
     00044CDC  A$ScriptR |    00044CDD  A$ScriptR |    00044CDF  A$ScriptR
     00044CDF  C$ScriptR |    00044CE2  A$ScriptR |    00044CE4  A$ScriptR
     00044CE5  A$ScriptR |    00044CE7  A$ScriptR |    00044CE9  A$ScriptR
     00044CE9  C$ScriptR |    00044CE9  XG$Script |    00044CEA  A$ScriptR
     00044CEA  C$ScriptR |    00044CEA  C$ScriptR |    00044CEA  G$Script_
     00044CEA  _Script_W |    00044CED  A$ScriptR |    00044CF0  A$ScriptR
     00044CF1  A$ScriptR |    00044CF1  C$ScriptR |    00044CF4  A$ScriptR
     00044CF6  A$ScriptR |    00044CF7  A$ScriptR |    00044CF9  A$ScriptR
     00044CF9  C$ScriptR |    00044CF9  XG$Script |    00044CFA  A$ScriptR
     00044CFA  C$ScriptR |    00044CFA  C$ScriptR |    00044CFA  G$Script_
     00044CFA  _Script_F |    00044CFD  A$ScriptR |    00044CFD  C$ScriptR
     00044D00  A$ScriptR |    00044D01  A$ScriptR |    00044D02  A$ScriptR
     00044D05  A$ScriptR |    00044D06  A$ScriptR |    00044D06  C$ScriptR
     00044D09  A$ScriptR |    00044D0B  A$ScriptR |    00044D0C  A$ScriptR
     00044D0E  A$ScriptR |    00044D0E  C$ScriptR |    00044D0E  XG$Script
     00044D0F  A$ScriptR |    00044D0F  C$ScriptR |    00044D0F  C$ScriptR
     00044D0F  G$Script_ |    00044D0F  _Script_F |    00044D12  A$ScriptR
     00044D12  C$ScriptR |    00044D15  A$ScriptR |    00044D16  A$ScriptR
     00044D17  A$ScriptR |    00044D1A  A$ScriptR |    00044D1B  A$ScriptR
     00044D1B  C$ScriptR |    00044D1E  A$ScriptR |    00044D20  A$ScriptR
     00044D21  A$ScriptR |    00044D23  A$ScriptR |    00044D23  C$ScriptR
     00044D23  XG$Script |    00044D24  A$ScriptR |    00044D24  C$ScriptR
     00044D24  C$ScriptR |    00044D24  G$Script_ |    00044D24  _Script_F
     00044D27  A$ScriptR |    00044D2A  A$ScriptR |    00044D2A  C$ScriptR
     00044D2A  XG$Script |    00044D2B  A$ScriptR |    00044D2B  C$ScriptR
     00044D2B  G$Script_ |    00044D2B  _Script_L |    00044D2D  A$ScriptR
     00044D2D  C$ScriptR |    00044D30  A$ScriptR |    00044D31  A$ScriptR
     00044D33  A$ScriptR |    00044D36  A$ScriptR |    00044D37  A$ScriptR
     00044D39  A$ScriptR |    00044D3A  A$ScriptR |    00044D3B  A$ScriptR
     00044D3C  A$ScriptR |    00044D3D  A$ScriptR |    00044D3E  A$ScriptR
     00044D3F  A$ScriptR |    00044D3F  C$ScriptR |    00044D42  A$ScriptR
     00044D43  A$ScriptR |    00044D44  A$ScriptR |    00044D45  A$ScriptR
     00044D45  C$ScriptR |    00044D48  A$ScriptR |    00044D49  A$ScriptR
ASxxxx Linker V03.00 + NoICE + sdld,  page 133.
Hexadecimal  [32-Bits]

Area                       Addr        Size        Decimal Bytes (Attributes)
--------------------       ----        ----        ------- ----- ------------
_CODE_4                00044000    00002CEA =       11498. bytes (REL,CON)

        Value  Global            Value  Global            Value  Global    
        -----  ------            -----  ------            -----  ------    
     00044D4B  A$ScriptR |    00044D4C  A$ScriptR |    00044D4D  A$ScriptR
     00044D4E  A$ScriptR |    00044D4F  A$ScriptR |    00044D50  A$ScriptR
     00044D53  A$ScriptR |    00044D54  A$ScriptR |    00044D55  A$ScriptR
     00044D56  A$ScriptR |    00044D56  C$ScriptR |    00044D59  A$ScriptR
     00044D5A  A$ScriptR |    00044D5B  A$ScriptR |    00044D5C  A$ScriptR
     00044D5C  C$ScriptR |    00044D5F  A$ScriptR |    00044D60  A$ScriptR
     00044D62  A$ScriptR |    00044D63  A$ScriptR |    00044D64  A$ScriptR
     00044D65  A$ScriptR |    00044D66  A$ScriptR |    00044D67  A$ScriptR
     00044D6A  A$ScriptR |    00044D6B  A$ScriptR |    00044D6C  A$ScriptR
     00044D6D  A$ScriptR |    00044D6D  C$ScriptR |    00044D70  A$ScriptR
     00044D73  A$ScriptR |    00044D75  A$ScriptR |    00044D77  A$ScriptR
     00044D7A  A$ScriptR |    00044D7C  A$ScriptR |    00044D7E  A$ScriptR
     00044D80  A$ScriptR |    00044D83  A$ScriptR |    00044D85  A$ScriptR
     00044D88  A$ScriptR |    00044D89  A$ScriptR |    00044D8A  A$ScriptR
     00044D8A  C$ScriptR |    00044D8D  A$ScriptR |    00044D8F  A$ScriptR
     00044D91  A$ScriptR |    00044D94  A$ScriptR |    00044D96  A$ScriptR
     00044D97  A$ScriptR |    00044D99  A$ScriptR |    00044D9C  A$ScriptR
     00044D9E  A$ScriptR |    00044DA1  A$ScriptR |    00044DA2  A$ScriptR
     00044DA5  A$ScriptR |    00044DA5  C$ScriptR |    00044DA6  A$ScriptR
     00044DA7  A$ScriptR |    00044DA8  A$ScriptR |    00044DAB  A$ScriptR
     00044DAD  A$ScriptR |    00044DAD  C$ScriptR |    00044DB0  A$ScriptR
     00044DB1  A$ScriptR |    00044DB2  A$ScriptR |    00044DB5  A$ScriptR
     00044DB6  A$ScriptR |    00044DB6  C$ScriptR |    00044DB9  A$ScriptR
     00044DBB  A$ScriptR |    00044DBC  A$ScriptR |    00044DBE  A$ScriptR
     00044DC0  A$ScriptR |    00044DC0  C$ScriptR |    00044DC0  XG$Script
     00044DC1  A$ScriptR |    00044DC1  C$ScriptR |    00044DC1  C$ScriptR
     00044DC1  G$Script_ |    00044DC1  _Script_A |    00044DC4  A$ScriptR
     00044DC5  A$ScriptR |    00044DC7  A$ScriptR |    00044DC8  A$ScriptR
     00044DC9  A$ScriptR |    00044DCA  A$ScriptR |    00044DCB  A$ScriptR
     00044DCC  A$ScriptR |    00044DCD  A$ScriptR |    00044DCE  A$ScriptR
     00044DCF  A$ScriptR |    00044DD0  A$ScriptR |    00044DD1  A$ScriptR
     00044DD3  A$ScriptR |    00044DD4  A$ScriptR |    00044DD5  A$ScriptR
     00044DD7  A$ScriptR |    00044DD8  A$ScriptR |    00044DD9  A$ScriptR
     00044DDC  A$ScriptR |    00044DDD  A$ScriptR |    00044DDF  A$ScriptR
     00044DE0  A$ScriptR |    00044DE1  A$ScriptR |    00044DE2  A$ScriptR
     00044DE3  A$ScriptR |    00044DE4  A$ScriptR |    00044DE5  A$ScriptR
     00044DE6  A$ScriptR |    00044DE7  A$ScriptR |    00044DE8  A$ScriptR
     00044DE9  A$ScriptR |    00044DE9  C$ScriptR |    00044DEC  A$ScriptR
     00044DED  A$ScriptR |    00044DEF  A$ScriptR |    00044DF0  A$ScriptR
     00044DF1  A$ScriptR |    00044DF2  A$ScriptR |    00044DF3  A$ScriptR
     00044DF4  A$ScriptR |    00044DF5  A$ScriptR |    00044DF6  A$ScriptR
     00044DF7  A$ScriptR |    00044DF8  A$ScriptR |    00044DF9  A$ScriptR
     00044DFC  A$ScriptR |    00044DFD  A$ScriptR |    00044DFE  A$ScriptR
     00044DFF  A$ScriptR |    00044E00  A$ScriptR |    00044E01  A$ScriptR
     00044E04  A$ScriptR |    00044E05  A$ScriptR |    00044E07  A$ScriptR
     00044E08  A$ScriptR |    00044E09  A$ScriptR |    00044E0A  A$ScriptR
     00044E0B  A$ScriptR |    00044E0C  A$ScriptR |    00044E0D  A$ScriptR
     00044E0E  A$ScriptR |    00044E0F  A$ScriptR |    00044E10  A$ScriptR
     00044E11  A$ScriptR |    00044E11  C$ScriptR |    00044E11  XG$Script
     00044E12  A$ScriptR |    00044E12  C$ScriptR |    00044E12  G$Script_
     00044E12  _Script_A |    00044E13  A$ScriptR |    00044E13  C$ScriptR
ASxxxx Linker V03.00 + NoICE + sdld,  page 134.
Hexadecimal  [32-Bits]

Area                       Addr        Size        Decimal Bytes (Attributes)
--------------------       ----        ----        ------- ----- ------------
_CODE_4                00044000    00002CEA =       11498. bytes (REL,CON)

        Value  Global            Value  Global            Value  Global    
        -----  ------            -----  ------            -----  ------    
     00044E16  A$ScriptR |    00044E19  A$ScriptR |    00044E1A  A$ScriptR
     00044E1C  A$ScriptR |    00044E1D  A$ScriptR |    00044E1E  A$ScriptR
     00044E1F  A$ScriptR |    00044E20  A$ScriptR |    00044E21  A$ScriptR
     00044E22  A$ScriptR |    00044E23  A$ScriptR |    00044E24  A$ScriptR
     00044E25  A$ScriptR |    00044E26  A$ScriptR |    00044E27  A$ScriptR
     00044E28  A$ScriptR |    00044E29  A$ScriptR |    00044E2C  A$ScriptR
     00044E2D  A$ScriptR |    00044E2E  A$ScriptR |    00044E2E  C$ScriptR
     00044E31  A$ScriptR |    00044E32  A$ScriptR |    00044E33  A$ScriptR
     00044E34  A$ScriptR |    00044E35  A$ScriptR |    00044E38  A$ScriptR
     00044E39  A$ScriptR |    00044E3A  A$ScriptR |    00044E3B  A$ScriptR
     00044E3B  C$ScriptR |    00044E3D  A$ScriptR |    00044E3D  C$ScriptR
     00044E40  A$ScriptR |    00044E41  A$ScriptR |    00044E42  A$ScriptR
     00044E43  A$ScriptR |    00044E43  C$ScriptR |    00044E46  A$ScriptR
     00044E47  A$ScriptR |    00044E49  A$ScriptR |    00044E4A  A$ScriptR
     00044E4B  A$ScriptR |    00044E4C  A$ScriptR |    00044E4D  A$ScriptR
     00044E4E  A$ScriptR |    00044E51  A$ScriptR |    00044E52  A$ScriptR
     00044E53  A$ScriptR |    00044E54  A$ScriptR |    00044E54  C$ScriptR
     00044E57  A$ScriptR |    00044E58  A$ScriptR |    00044E59  A$ScriptR
     00044E5A  A$ScriptR |    00044E5A  C$ScriptR |    00044E5D  A$ScriptR
     00044E5E  A$ScriptR |    00044E60  A$ScriptR |    00044E61  A$ScriptR
     00044E62  A$ScriptR |    00044E63  A$ScriptR |    00044E64  A$ScriptR
     00044E65  A$ScriptR |    00044E68  A$ScriptR |    00044E69  A$ScriptR
     00044E6A  A$ScriptR |    00044E6B  A$ScriptR |    00044E6B  C$ScriptR
     00044E6E  A$ScriptR |    00044E70  A$ScriptR |    00044E71  A$ScriptR
     00044E74  A$ScriptR |    00044E76  A$ScriptR |    00044E77  A$ScriptR
     00044E78  A$ScriptR |    00044E78  C$ScriptR |    00044E7B  A$ScriptR
     00044E7E  A$ScriptR |    00044E7F  A$ScriptR |    00044E7F  C$ScriptR
     00044E82  A$ScriptR |    00044E83  A$ScriptR |    00044E84  A$ScriptR
     00044E85  A$ScriptR |    00044E86  A$ScriptR |    00044E89  A$ScriptR
     00044E8A  A$ScriptR |    00044E8C  A$ScriptR |    00044E8C  C$ScriptR
     00044E8E  A$ScriptR |    00044E8F  A$ScriptR |    00044E90  A$ScriptR
     00044E92  A$ScriptR |    00044E92  C$ScriptR |    00044E93  A$ScriptR
     00044E96  A$ScriptR |    00044E97  A$ScriptR |    00044E98  A$ScriptR
     00044E98  C$ScriptR |    00044E98  C$ScriptR |    00044E99  A$ScriptR
     00044E9B  A$ScriptR |    00044E9D  A$ScriptR |    00044E9D  C$ScriptR
     00044EA0  A$ScriptR |    00044EA2  A$ScriptR |    00044EA3  A$ScriptR
     00044EA5  A$ScriptR |    00044EA7  A$ScriptR |    00044EA7  C$ScriptR
     00044EAA  A$ScriptR |    00044EAC  A$ScriptR |    00044EAD  A$ScriptR
     00044EAF  A$ScriptR |    00044EB0  A$ScriptR |    00044EB0  C$ScriptR
     00044EB0  XG$Script |    00044EB1  A$ScriptR |    00044EB1  C$ScriptR
     00044EB1  G$ScriptH |    00044EB1  _ScriptHe |    00044EB3  A$ScriptR
     00044EB6  A$ScriptR |    00044EB8  A$ScriptR |    00044EB9  A$ScriptR
     00044EBC  A$ScriptR |    00044EBD  A$ScriptR |    00044EBE  A$ScriptR
     00044EC0  A$ScriptR |    00044EC1  A$ScriptR |    00044EC1  C$ScriptR
     00044EC2  A$ScriptR |    00044EC3  A$ScriptR |    00044EC4  A$ScriptR
     00044EC5  A$ScriptR |    00044EC6  A$ScriptR |    00044EC9  A$ScriptR
     00044EC9  C$ScriptR |    00044ECC  A$ScriptR |    00044ECD  A$ScriptR
     00044ECF  A$ScriptR |    00044ED0  A$ScriptR |    00044ED1  A$ScriptR
     00044ED2  A$ScriptR |    00044ED3  A$ScriptR |    00044ED5  A$ScriptR
     00044ED6  A$ScriptR |    00044ED7  A$ScriptR |    00044ED8  A$ScriptR
     00044EDB  A$ScriptR |    00044EDC  A$ScriptR |    00044EDD  A$ScriptR
ASxxxx Linker V03.00 + NoICE + sdld,  page 135.
Hexadecimal  [32-Bits]

Area                       Addr        Size        Decimal Bytes (Attributes)
--------------------       ----        ----        ------- ----- ------------
_CODE_4                00044000    00002CEA =       11498. bytes (REL,CON)

        Value  Global            Value  Global            Value  Global    
        -----  ------            -----  ------            -----  ------    
     00044EDE  A$ScriptR |    00044EE0  A$ScriptR |    00044EE1  A$ScriptR
     00044EE2  A$ScriptR |    00044EE3  A$ScriptR |    00044EE4  A$ScriptR
     00044EE5  A$ScriptR |    00044EE6  A$ScriptR |    00044EE7  A$ScriptR
     00044EE8  A$ScriptR |    00044EE9  A$ScriptR |    00044EEA  A$ScriptR
     00044EEB  A$ScriptR |    00044EEC  A$ScriptR |    00044EED  A$ScriptR
     00044EEE  A$ScriptR |    00044EEF  A$ScriptR |    00044EF1  A$ScriptR
     00044EF2  A$ScriptR |    00044EF3  A$ScriptR |    00044EF5  A$ScriptR
     00044EF6  A$ScriptR |    00044EF7  A$ScriptR |    00044EF8  A$ScriptR
     00044EFB  A$ScriptR |    00044EFB  C$ScriptR |    00044EFD  A$ScriptR
     00044EFE  A$ScriptR |    00044EFF  A$ScriptR |    00044F00  A$ScriptR
     00044F01  A$ScriptR |    00044F03  A$ScriptR |    00044F04  A$ScriptR
     00044F05  A$ScriptR |    00044F06  A$ScriptR |    00044F07  A$ScriptR
     00044F0A  A$ScriptR |    00044F0C  A$ScriptR |    00044F0E  A$ScriptR
     00044F0F  A$ScriptR |    00044F11  A$ScriptR |    00044F12  A$ScriptR
     00044F13  A$ScriptR |    00044F15  A$ScriptR |    00044F15  C$ScriptR
     00044F17  A$ScriptR |    00044F19  A$ScriptR |    00044F1B  A$ScriptR
     00044F1B  C$ScriptR |    00044F1D  A$ScriptR |    00044F1F  A$ScriptR
     00044F1F  C$ScriptR |    00044F22  A$ScriptR |    00044F23  A$ScriptR
     00044F24  A$ScriptR |    00044F25  A$ScriptR |    00044F27  A$ScriptR
     00044F28  A$ScriptR |    00044F29  A$ScriptR |    00044F2A  A$ScriptR
     00044F2C  A$ScriptR |    00044F2D  A$ScriptR |    00044F2F  A$ScriptR
     00044F30  A$ScriptR |    00044F32  A$ScriptR |    00044F33  A$ScriptR
     00044F35  A$ScriptR |    00044F36  A$ScriptR |    00044F38  A$ScriptR
     00044F39  A$ScriptR |    00044F3B  A$ScriptR |    00044F3C  A$ScriptR
     00044F3D  A$ScriptR |    00044F3E  A$ScriptR |    00044F41  A$ScriptR
     00044F42  A$ScriptR |    00044F43  A$ScriptR |    00044F45  A$ScriptR
     00044F46  A$ScriptR |    00044F46  C$ScriptR |    00044F47  A$ScriptR
     00044F48  A$ScriptR |    00044F49  A$ScriptR |    00044F4A  A$ScriptR
     00044F4B  A$ScriptR |    00044F4E  A$ScriptR |    00044F4F  A$ScriptR
     00044F50  A$ScriptR |    00044F51  A$ScriptR |    00044F52  A$ScriptR
     00044F53  A$ScriptR |    00044F54  A$ScriptR |    00044F55  A$ScriptR
     00044F57  A$ScriptR |    00044F58  A$ScriptR |    00044F59  A$ScriptR
     00044F5A  A$ScriptR |    00044F5B  A$ScriptR |    00044F5C  A$ScriptR
     00044F5D  A$ScriptR |    00044F5F  A$ScriptR |    00044F60  A$ScriptR
     00044F62  A$ScriptR |    00044F63  A$ScriptR |    00044F65  A$ScriptR
     00044F66  A$ScriptR |    00044F68  A$ScriptR |    00044F69  A$ScriptR
     00044F6B  A$ScriptR |    00044F6C  A$ScriptR |    00044F6E  A$ScriptR
     00044F6F  A$ScriptR |    00044F71  A$ScriptR |    00044F71  C$ScriptR
     00044F72  A$ScriptR |    00044F73  A$ScriptR |    00044F74  A$ScriptR
     00044F75  A$ScriptR |    00044F76  A$ScriptR |    00044F77  A$ScriptR
     00044F78  A$ScriptR |    00044F79  A$ScriptR |    00044F7A  A$ScriptR
     00044F7B  A$ScriptR |    00044F7C  A$ScriptR |    00044F7D  A$ScriptR
     00044F7E  A$ScriptR |    00044F80  A$ScriptR |    00044F82  A$ScriptR
     00044F84  A$ScriptR |    00044F86  A$ScriptR |    00044F88  A$ScriptR
     00044F8A  A$ScriptR |    00044F8C  A$ScriptR |    00044F8D  A$ScriptR
     00044F8E  A$ScriptR |    00044F8F  A$ScriptR |    00044F90  A$ScriptR
     00044F91  A$ScriptR |    00044F92  A$ScriptR |    00044F93  A$ScriptR
     00044F94  A$ScriptR |    00044F95  A$ScriptR |    00044F96  A$ScriptR
     00044F97  A$ScriptR |    00044F98  A$ScriptR |    00044F99  A$ScriptR
     00044F9C  A$ScriptR |    00044F9E  A$ScriptR |    00044FA0  A$ScriptR
     00044FA1  A$ScriptR |    00044FA3  A$ScriptR |    00044FA4  A$ScriptR
ASxxxx Linker V03.00 + NoICE + sdld,  page 136.
Hexadecimal  [32-Bits]

Area                       Addr        Size        Decimal Bytes (Attributes)
--------------------       ----        ----        ------- ----- ------------
_CODE_4                00044000    00002CEA =       11498. bytes (REL,CON)

        Value  Global            Value  Global            Value  Global    
        -----  ------            -----  ------            -----  ------    
     00044FA5  A$ScriptR |    00044FA6  A$ScriptR |    00044FA7  A$ScriptR
     00044FA8  A$ScriptR |    00044FA9  A$ScriptR |    00044FAA  A$ScriptR
     00044FAB  A$ScriptR |    00044FAD  A$ScriptR |    00044FAE  A$ScriptR
     00044FAF  A$ScriptR |    00044FB0  A$ScriptR |    00044FB2  A$ScriptR
     00044FB3  A$ScriptR |    00044FB5  A$ScriptR |    00044FB6  A$ScriptR
     00044FB8  A$ScriptR |    00044FB9  A$ScriptR |    00044FBB  A$ScriptR
     00044FBB  C$ScriptR |    00044FBE  A$ScriptR |    00044FBF  A$ScriptR
     00044FC0  A$ScriptR |    00044FC1  A$ScriptR |    00044FC2  A$ScriptR
     00044FC3  A$ScriptR |    00044FC4  A$ScriptR |    00044FC6  A$ScriptR
     00044FC7  A$ScriptR |    00044FC8  A$ScriptR |    00044FC9  A$ScriptR
     00044FCB  A$ScriptR |    00044FCC  A$ScriptR |    00044FCD  A$ScriptR
     00044FCE  A$ScriptR |    00044FCF  A$ScriptR |    00044FD1  A$ScriptR
     00044FD1  C$ScriptR |    00044FD4  A$ScriptR |    00044FD6  A$ScriptR
     00044FD7  A$ScriptR |    00044FD8  A$ScriptR |    00044FD9  A$ScriptR
     00044FDA  A$ScriptR |    00044FDB  A$ScriptR |    00044FDC  A$ScriptR
     00044FDC  C$ScriptR |    00044FDF  A$ScriptR |    00044FE0  A$ScriptR
     00044FE1  A$ScriptR |    00044FE2  A$ScriptR |    00044FE3  A$ScriptR
     00044FE4  A$ScriptR |    00044FE5  A$ScriptR |    00044FE6  A$ScriptR
     00044FE7  A$ScriptR |    00044FE8  A$ScriptR |    00044FEB  A$ScriptR
     00044FEC  A$ScriptR |    00044FED  A$ScriptR |    00044FEE  A$ScriptR
     00044FEF  A$ScriptR |    00044FF0  A$ScriptR |    00044FF3  A$ScriptR
     00044FF5  A$ScriptR |    00044FF6  A$ScriptR |    00044FF7  A$ScriptR
     00044FF7  C$ScriptR |    00044FF7  C$ScriptR |    00044FF9  A$ScriptR
     00044FFB  A$ScriptR |    00044FFD  A$ScriptR |    00044FFD  C$ScriptR
     00045000  A$ScriptR |    00045001  A$ScriptR |    00045002  A$ScriptR
     00045003  A$ScriptR |    00045005  A$ScriptR |    00045007  A$ScriptR
     00045009  A$ScriptR |    0004500B  A$ScriptR |    0004500D  A$ScriptR
     0004500F  A$ScriptR |    00045011  A$ScriptR |    00045012  A$ScriptR
     00045012  C$ScriptR |    00045015  A$ScriptR |    00045016  A$ScriptR
     00045017  A$ScriptR |    00045018  A$ScriptR |    0004501A  A$ScriptR
     0004501C  A$ScriptR |    0004501E  A$ScriptR |    00045020  A$ScriptR
     00045022  A$ScriptR |    00045024  A$ScriptR |    00045025  A$ScriptR
     00045028  A$ScriptR |    00045029  A$ScriptR |    0004502A  A$ScriptR
     0004502C  A$ScriptR |    0004502D  A$ScriptR |    0004502E  A$ScriptR
     0004502F  A$ScriptR |    00045030  A$ScriptR |    00045031  A$ScriptR
     00045032  A$ScriptR |    00045033  A$ScriptR |    00045034  A$ScriptR
     00045035  A$ScriptR |    00045036  A$ScriptR |    00045037  A$ScriptR
     00045039  A$ScriptR |    0004503B  A$ScriptR |    0004503D  A$ScriptR
     0004503F  A$ScriptR |    00045041  A$ScriptR |    00045043  A$ScriptR
     00045044  A$ScriptR |    00045045  A$ScriptR |    00045046  A$ScriptR
     00045047  A$ScriptR |    00045049  A$ScriptR |    0004504A  A$ScriptR
     0004504B  A$ScriptR |    0004504C  A$ScriptR |    0004504D  A$ScriptR
     0004504E  A$ScriptR |    00045051  A$ScriptR |    00045053  A$ScriptR
     00045054  A$ScriptR |    00045056  A$ScriptR |    00045057  A$ScriptR
     00045058  A$ScriptR |    00045059  A$ScriptR |    0004505A  A$ScriptR
     0004505B  A$ScriptR |    0004505B  C$ScriptR |    0004505E  A$ScriptR
     0004505F  A$ScriptR |    00045060  A$ScriptR |    00045061  A$ScriptR
     00045063  A$ScriptR |    00045064  A$ScriptR |    00045065  A$ScriptR
     00045068  A$ScriptR |    00045068  C$ScriptR |    0004506B  A$ScriptR
     0004506C  A$ScriptR |    0004506D  A$ScriptR |    0004506E  A$ScriptR
     0004506E  C$ScriptR |    00045071  A$ScriptR |    00045074  A$ScriptR
ASxxxx Linker V03.00 + NoICE + sdld,  page 137.
Hexadecimal  [32-Bits]

Area                       Addr        Size        Decimal Bytes (Attributes)
--------------------       ----        ----        ------- ----- ------------
_CODE_4                00044000    00002CEA =       11498. bytes (REL,CON)

        Value  Global            Value  Global            Value  Global    
        -----  ------            -----  ------            -----  ------    
     00045075  A$ScriptR |    00045077  A$ScriptR |    00045078  A$ScriptR
     00045079  A$ScriptR |    0004507A  A$ScriptR |    0004507A  C$ScriptR
     0004507B  A$ScriptR |    0004507C  A$ScriptR |    0004507D  A$ScriptR
     0004507E  A$ScriptR |    0004507F  A$ScriptR |    00045080  A$ScriptR
     00045081  A$ScriptR |    00045082  A$ScriptR |    00045083  A$ScriptR
     00045083  C$ScriptR |    00045084  A$ScriptR |    00045085  A$ScriptR
     00045086  A$ScriptR |    00045087  A$ScriptR |    00045089  A$ScriptR
     0004508A  A$ScriptR |    0004508B  A$ScriptR |    0004508D  A$ScriptR
     0004508E  A$ScriptR |    0004508F  A$ScriptR |    00045090  A$ScriptR
     00045093  A$ScriptR |    00045093  C$ScriptR |    00045095  A$ScriptR
     00045096  A$ScriptR |    00045097  A$ScriptR |    00045098  A$ScriptR
     00045099  A$ScriptR |    0004509B  A$ScriptR |    0004509C  A$ScriptR
     0004509D  A$ScriptR |    0004509E  A$ScriptR |    0004509F  A$ScriptR
     000450A2  A$ScriptR |    000450A4  A$ScriptR |    000450A5  A$ScriptR
     000450A6  A$ScriptR |    000450A8  A$ScriptR |    000450A8  C$ScriptR
     000450AA  A$ScriptR |    000450AC  A$ScriptR |    000450AE  A$ScriptR
     000450AE  C$ScriptR |    000450B0  A$ScriptR |    000450B2  A$ScriptR
     000450B2  C$ScriptR |    000450B5  A$ScriptR |    000450B6  A$ScriptR
     000450B7  A$ScriptR |    000450B8  A$ScriptR |    000450BA  A$ScriptR
     000450BC  A$ScriptR |    000450BE  A$ScriptR |    000450C0  A$ScriptR
     000450C2  A$ScriptR |    000450C4  A$ScriptR |    000450C6  A$ScriptR
     000450C7  A$ScriptR |    000450C7  C$ScriptR |    000450CA  A$ScriptR
     000450CB  A$ScriptR |    000450CC  A$ScriptR |    000450CD  A$ScriptR
     000450CE  A$ScriptR |    000450CE  C$ScriptR |    000450CF  A$ScriptR
     000450D0  A$ScriptR |    000450D1  A$ScriptR |    000450D2  A$ScriptR
     000450D3  A$ScriptR |    000450D4  A$ScriptR |    000450D5  A$ScriptR
     000450D7  A$ScriptR |    000450D9  A$ScriptR |    000450DB  A$ScriptR
     000450DD  A$ScriptR |    000450DF  A$ScriptR |    000450E1  A$ScriptR
     000450E2  A$ScriptR |    000450E4  A$ScriptR |    000450E5  A$ScriptR
     000450E5  C$ScriptR |    000450E6  A$ScriptR |    000450E7  A$ScriptR
     000450E8  A$ScriptR |    000450E9  A$ScriptR |    000450EA  A$ScriptR
     000450EC  A$ScriptR |    000450EE  A$ScriptR |    000450F0  A$ScriptR
     000450F2  A$ScriptR |    000450F4  A$ScriptR |    000450F6  A$ScriptR
     000450F8  A$ScriptR |    000450F9  A$ScriptR |    000450FA  A$ScriptR
     000450FB  A$ScriptR |    000450FC  A$ScriptR |    000450FD  A$ScriptR
     000450FE  A$ScriptR |    000450FF  A$ScriptR |    00045100  A$ScriptR
     00045101  A$ScriptR |    00045102  A$ScriptR |    00045103  A$ScriptR
     00045104  A$ScriptR |    00045105  A$ScriptR |    00045108  A$ScriptR
     0004510A  A$ScriptR |    0004510B  A$ScriptR |    0004510D  A$ScriptR
     0004510E  A$ScriptR |    0004510F  A$ScriptR |    00045110  A$ScriptR
     00045111  A$ScriptR |    00045112  A$ScriptR |    00045112  C$ScriptR
     00045115  A$ScriptR |    00045116  A$ScriptR |    00045117  A$ScriptR
     00045118  A$ScriptR |    0004511A  A$ScriptR |    0004511B  A$ScriptR
     0004511C  A$ScriptR |    0004511E  A$ScriptR |    0004511E  C$ScriptR
     00045121  A$ScriptR |    00045122  A$ScriptR |    00045123  A$ScriptR
     00045124  A$ScriptR |    00045124  C$ScriptR |    00045127  A$ScriptR
     00045128  A$ScriptR |    00045129  A$ScriptR |    0004512A  A$ScriptR
     0004512B  A$ScriptR |    0004512C  A$ScriptR |    0004512D  A$ScriptR
     0004512E  A$ScriptR |    0004512F  A$ScriptR |    00045130  A$ScriptR
     00045131  A$ScriptR |    00045132  A$ScriptR |    00045135  A$ScriptR
     00045136  A$ScriptR |    00045137  A$ScriptR |    00045138  A$ScriptR
ASxxxx Linker V03.00 + NoICE + sdld,  page 138.
Hexadecimal  [32-Bits]

Area                       Addr        Size        Decimal Bytes (Attributes)
--------------------       ----        ----        ------- ----- ------------
_CODE_4                00044000    00002CEA =       11498. bytes (REL,CON)

        Value  Global            Value  Global            Value  Global    
        -----  ------            -----  ------            -----  ------    
     00045139  A$ScriptR |    0004513A  A$ScriptR |    0004513D  A$ScriptR
     0004513F  A$ScriptR |    00045140  A$ScriptR |    00045141  A$ScriptR
     00045143  A$ScriptR |    00045143  C$ScriptR |    00045145  A$ScriptR
     00045147  A$ScriptR |    00045149  A$ScriptR |    00045149  C$ScriptR
     0004514B  A$ScriptR |    0004514D  A$ScriptR |    0004514D  C$ScriptR
     00045150  A$ScriptR |    00045151  A$ScriptR |    00045152  A$ScriptR
     00045153  A$ScriptR |    00045155  A$ScriptR |    00045157  A$ScriptR
     00045159  A$ScriptR |    0004515B  A$ScriptR |    0004515D  A$ScriptR
     0004515F  A$ScriptR |    00045161  A$ScriptR |    00045162  A$ScriptR
     00045162  C$ScriptR |    00045165  A$ScriptR |    00045166  A$ScriptR
     00045167  A$ScriptR |    00045168  A$ScriptR |    00045169  A$ScriptR
     0004516A  A$ScriptR |    0004516B  A$ScriptR |    0004516C  A$ScriptR
     0004516D  A$ScriptR |    0004516E  A$ScriptR |    0004516F  A$ScriptR
     00045170  A$ScriptR |    00045172  A$ScriptR |    00045174  A$ScriptR
     00045176  A$ScriptR |    00045178  A$ScriptR |    0004517A  A$ScriptR
     0004517C  A$ScriptR |    0004517F  A$ScriptR |    00045180  A$ScriptR
     00045181  A$ScriptR |    00045182  A$ScriptR |    00045184  A$ScriptR
     00045186  A$ScriptR |    00045188  A$ScriptR |    0004518A  A$ScriptR
     0004518C  A$ScriptR |    0004518E  A$ScriptR |    0004518F  A$ScriptR
     00045191  A$ScriptR |    00045192  A$ScriptR |    00045193  A$ScriptR
     00045194  A$ScriptR |    00045196  A$ScriptR |    00045197  A$ScriptR
     00045198  A$ScriptR |    00045199  A$ScriptR |    0004519A  A$ScriptR
     0004519B  A$ScriptR |    0004519C  A$ScriptR |    0004519D  A$ScriptR
     0004519E  A$ScriptR |    000451A1  A$ScriptR |    000451A3  A$ScriptR
     000451A4  A$ScriptR |    000451A6  A$ScriptR |    000451A7  A$ScriptR
     000451A8  A$ScriptR |    000451A9  A$ScriptR |    000451AA  A$ScriptR
     000451AB  A$ScriptR |    000451AB  C$ScriptR |    000451AE  A$ScriptR
     000451AF  A$ScriptR |    000451B0  A$ScriptR |    000451B1  A$ScriptR
     000451B3  A$ScriptR |    000451B4  A$ScriptR |    000451B5  A$ScriptR
     000451B7  A$ScriptR |    000451B7  C$ScriptR |    000451BA  A$ScriptR
     000451BB  A$ScriptR |    000451BC  A$ScriptR |    000451BD  A$ScriptR
     000451BD  C$ScriptR |    000451BF  A$ScriptR |    000451BF  C$ScriptR
     000451BF  XG$Script |    000451C0  A$ScriptR |    000451C0  C$ScriptR
     000451C0  C$ScriptR |    000451C0  G$Script_ |    000451C0  _Script_S
     000451C3  A$ScriptR |    000451C5  A$ScriptR |    000451C5  C$ScriptR
     000451C7  A$ScriptR |    000451C9  A$ScriptR |    000451CB  A$ScriptR
     000451CB  C$ScriptR |    000451CB  XG$Script |    000451CC  A$ScriptR
     000451CC  C$ScriptR |    000451CC  C$ScriptR |    000451CC  G$Script_
     000451CC  _Script_H |    000451CF  A$ScriptR |    000451D1  A$ScriptR
     000451D1  C$ScriptR |    000451D3  A$ScriptR |    000451D5  A$ScriptR
     000451D7  A$ScriptR |    000451D7  C$ScriptR |    000451D7  XG$Script
     000451D8  A$ScriptR |    000451D8  C$ScriptR |    000451D8  C$ScriptR
     000451D8  G$Script_ |    000451D8  _Script_A |    000451DB  A$ScriptR
     000451DC  A$ScriptR |    000451DD  A$ScriptR |    000451DF  A$ScriptR
     000451E0  A$ScriptR |    000451E1  A$ScriptR |    000451E2  A$ScriptR
     000451E3  A$ScriptR |    000451E4  A$ScriptR |    000451E5  A$ScriptR
     000451E6  A$ScriptR |    000451E7  A$ScriptR |    000451E8  A$ScriptR
     000451E9  A$ScriptR |    000451EC  A$ScriptR |    000451ED  A$ScriptR
     000451F0  A$ScriptR |    000451F1  A$ScriptR |    000451F3  A$ScriptR
     000451F3  C$ScriptR |    000451F4  A$ScriptR |    000451F5  A$ScriptR
     000451F6  A$ScriptR |    000451F9  A$ScriptR |    000451FA  A$ScriptR
ASxxxx Linker V03.00 + NoICE + sdld,  page 139.
Hexadecimal  [32-Bits]

Area                       Addr        Size        Decimal Bytes (Attributes)
--------------------       ----        ----        ------- ----- ------------
_CODE_4                00044000    00002CEA =       11498. bytes (REL,CON)

        Value  Global            Value  Global            Value  Global    
        -----  ------            -----  ------            -----  ------    
     000451FA  C$ScriptR |    000451FA  XG$Script |    000451FB  A$ScriptR
     000451FB  C$ScriptR |    000451FB  C$ScriptR |    000451FB  G$Script_
     000451FB  _Script_A |    000451FE  A$ScriptR |    000451FF  A$ScriptR
     00045200  A$ScriptR |    00045202  A$ScriptR |    00045203  A$ScriptR
     00045204  A$ScriptR |    00045205  A$ScriptR |    00045206  A$ScriptR
     00045207  A$ScriptR |    00045208  A$ScriptR |    00045209  A$ScriptR
     0004520A  A$ScriptR |    0004520B  A$ScriptR |    0004520C  A$ScriptR
     0004520F  A$ScriptR |    00045210  A$ScriptR |    00045213  A$ScriptR
     00045214  A$ScriptR |    00045216  A$ScriptR |    00045216  C$ScriptR
     00045217  A$ScriptR |    00045218  A$ScriptR |    00045219  A$ScriptR
     0004521C  A$ScriptR |    0004521D  A$ScriptR |    0004521D  C$ScriptR
     0004521D  XG$Script |    0004521E  A$ScriptR |    0004521E  C$ScriptR
     0004521E  C$ScriptR |    0004521E  G$Script_ |    0004521E  _Script_A
     00045221  A$ScriptR |    00045224  A$ScriptR |    00045225  A$ScriptR
     00045227  A$ScriptR |    00045228  A$ScriptR |    00045229  A$ScriptR
     0004522A  A$ScriptR |    0004522B  A$ScriptR |    0004522C  A$ScriptR
     0004522D  A$ScriptR |    0004522E  A$ScriptR |    0004522F  A$ScriptR
     00045230  A$ScriptR |    00045231  A$ScriptR |    00045232  A$ScriptR
     00045235  A$ScriptR |    00045236  A$ScriptR |    00045237  A$ScriptR
     00045238  A$ScriptR |    0004523B  A$ScriptR |    0004523C  A$ScriptR
     0004523C  C$ScriptR |    0004523C  XG$Script |    0004523D  A$ScriptR
     0004523D  C$ScriptR |    0004523D  C$ScriptR |    0004523D  G$Script_
     0004523D  _Script_A |    00045240  A$ScriptR |    00045243  A$ScriptR
     00045244  A$ScriptR |    00045246  A$ScriptR |    00045247  A$ScriptR
     00045248  A$ScriptR |    00045249  A$ScriptR |    0004524A  A$ScriptR
     0004524B  A$ScriptR |    0004524C  A$ScriptR |    0004524D  A$ScriptR
     0004524E  A$ScriptR |    0004524F  A$ScriptR |    00045250  A$ScriptR
     00045251  A$ScriptR |    00045254  A$ScriptR |    00045255  A$ScriptR
     00045256  A$ScriptR |    00045256  C$ScriptR |    00045259  A$ScriptR
     0004525B  A$ScriptR |    0004525B  C$ScriptR |    0004525E  A$ScriptR
     00045260  A$ScriptR |    00045261  A$ScriptR |    00045263  A$ScriptR
     00045263  C$ScriptR |    00045266  A$ScriptR |    00045267  A$ScriptR
     00045269  A$ScriptR |    0004526A  A$ScriptR |    0004526B  A$ScriptR
     0004526C  A$ScriptR |    0004526D  A$ScriptR |    0004526E  A$ScriptR
     0004526F  A$ScriptR |    00045272  A$ScriptR |    00045273  A$ScriptR
     00045273  C$ScriptR |    00045274  A$ScriptR |    00045275  A$ScriptR
     00045278  A$ScriptR |    00045279  A$ScriptR |    0004527B  A$ScriptR
     0004527C  A$ScriptR |    0004527D  A$ScriptR |    00045280  A$ScriptR
     00045282  A$ScriptR |    00045283  A$ScriptR |    00045283  C$gb.h$63
     00045286  A$ScriptR |    00045287  A$ScriptR |    0004528A  A$ScriptR
     0004528B  A$ScriptR |    0004528B  C$gb.h$61 |    0004528E  A$ScriptR
     00045290  A$ScriptR |    00045293  A$ScriptR |    00045295  A$ScriptR
     00045295  C$ScriptR |    00045295  C$ScriptR |    00045295  XG$Script
     00045296  A$ScriptR |    00045296  C$ScriptR |    00045296  C$ScriptR
     00045296  G$Script_ |    00045296  _Script_C |    00045299  A$ScriptR
     0004529C  A$ScriptR |    0004529C  C$ScriptR |    0004529F  A$ScriptR
     000452A1  A$ScriptR |    000452A2  A$ScriptR |    000452A4  A$ScriptR
     000452A4  C$ScriptR |    000452A4  XG$Script |    000452A5  A$ScriptR
     000452A5  C$ScriptR |    000452A5  C$ScriptR |    000452A5  G$Script_
     000452A5  _Script_S |    000452A8  A$ScriptR |    000452A9  A$ScriptR
     000452AA  A$ScriptR |    000452AD  A$ScriptR |    000452AE  A$ScriptR
ASxxxx Linker V03.00 + NoICE + sdld,  page 140.
Hexadecimal  [32-Bits]

Area                       Addr        Size        Decimal Bytes (Attributes)
--------------------       ----        ----        ------- ----- ------------
_CODE_4                00044000    00002CEA =       11498. bytes (REL,CON)

        Value  Global            Value  Global            Value  Global    
        -----  ------            -----  ------            -----  ------    
     000452AE  C$ScriptR |    000452B1  A$ScriptR |    000452B2  A$ScriptR
     000452B3  A$ScriptR |    000452B4  A$ScriptR |    000452B5  A$ScriptR
     000452B8  A$ScriptR |    000452B9  A$ScriptR |    000452BA  A$ScriptR
     000452BB  A$ScriptR |    000452BC  A$ScriptR |    000452BD  A$ScriptR
     000452BE  A$ScriptR |    000452BF  A$ScriptR |    000452C2  A$ScriptR
     000452C4  A$ScriptR |    000452C4  C$ScriptR |    000452C4  XG$Script
     000452C5  A$ScriptR |    000452C5  C$ScriptR |    000452C5  C$ScriptR
     000452C5  G$Script_ |    000452C5  _Script_H |    000452C7  A$ScriptR
     000452C8  A$ScriptR |    000452C9  A$ScriptR |    000452CA  A$ScriptR
     000452CB  A$ScriptR |    000452CC  A$ScriptR |    000452CF  A$ScriptR
     000452D1  A$ScriptR |    000452D1  C$ScriptR |    000452D1  XG$Script
     000452D2  A$ScriptR |    000452D2  C$ScriptR |    000452D2  C$ScriptR
     000452D2  G$Script_ |    000452D2  _Script_O |    000452D5  A$ScriptR
     000452D6  A$ScriptR |    000452D7  A$ScriptR |    000452D8  A$ScriptR
     000452D9  A$ScriptR |    000452DC  A$ScriptR |    000452DD  A$ScriptR
     000452DE  A$ScriptR |    000452DF  A$ScriptR |    000452E0  A$ScriptR
     000452E1  A$ScriptR |    000452E2  A$ScriptR |    000452E3  A$ScriptR
     000452E6  A$ScriptR |    000452E8  A$ScriptR |    000452E8  C$ScriptR
     000452E8  XG$Script |    000452E9  A$ScriptR |    000452E9  C$ScriptR
     000452E9  C$ScriptR |    000452E9  G$Script_ |    000452E9  _Script_O
     000452EC  A$ScriptR |    000452ED  A$ScriptR |    000452F0  A$ScriptR
     000452F1  A$ScriptR |    000452F2  A$ScriptR |    000452F3  A$ScriptR
     000452F6  A$ScriptR |    000452F7  A$ScriptR |    000452F8  A$ScriptR
     000452F9  A$ScriptR |    000452FA  A$ScriptR |    000452FB  A$ScriptR
     000452FC  A$ScriptR |    000452FD  A$ScriptR |    000452FE  A$ScriptR
     000452FF  A$ScriptR |    00045300  A$ScriptR |    00045301  A$ScriptR
     00045304  A$ScriptR |    00045306  A$ScriptR |    00045306  C$ScriptR
     00045309  A$ScriptR |    0004530B  A$ScriptR |    0004530C  A$ScriptR
     0004530E  A$ScriptR |    0004530E  C$ScriptR |    0004530E  XG$Script
     0004530F  A$ScriptR |    0004530F  C$ScriptR |    0004530F  C$ScriptR
     0004530F  G$Script_ |    0004530F  _Script_A |    00045312  A$ScriptR
     00045315  A$ScriptR |    00045315  C$ScriptR |    00045318  A$ScriptR
     0004531A  A$ScriptR |    0004531B  A$ScriptR |    0004531D  A$ScriptR
     0004531D  C$ScriptR |    0004531D  XG$Script |    0004531E  A$ScriptR
     0004531E  C$ScriptR |    0004531E  C$ScriptR |    0004531E  G$Script_
     0004531E  _Script_M |    00045321  A$ScriptR |    00045324  A$ScriptR
     00045325  A$ScriptR |    00045327  A$ScriptR |    00045328  A$ScriptR
     00045329  A$ScriptR |    0004532A  A$ScriptR |    0004532B  A$ScriptR
     0004532C  A$ScriptR |    0004532D  A$ScriptR |    00045330  A$ScriptR
     00045332  A$ScriptR |    00045332  C$ScriptR |    00045332  XG$Script
     00045333  A$ScriptR |    00045333  C$ScriptR |    00045333  C$ScriptR
     00045333  G$Script_ |    00045333  _Script_M |    00045335  A$ScriptR
     00045336  A$ScriptR |    00045337  A$ScriptR |    0004533A  A$ScriptR
     0004533B  A$ScriptR |    0004533B  C$ScriptR |    0004533B  XG$Script
     0004533C  A$ScriptR |    0004533C  C$ScriptR |    0004533C  C$ScriptR
     0004533C  G$Script_ |    0004533C  _Script_R |    0004533F  A$ScriptR
     0004533F  C$ScriptR |    00045342  A$ScriptR |    00045343  A$ScriptR
     00045345  A$ScriptR |    00045345  C$ScriptR |    00045346  A$ScriptR
     00045347  A$ScriptR |    00045349  A$ScriptR |    0004534B  A$ScriptR
     0004534C  A$ScriptR |    0004534D  A$ScriptR |    0004534F  A$ScriptR
     0004534F  C$ScriptR |    0004534F  XG$Script |    00045350  A$ScriptR
ASxxxx Linker V03.00 + NoICE + sdld,  page 141.
Hexadecimal  [32-Bits]

Area                       Addr        Size        Decimal Bytes (Attributes)
--------------------       ----        ----        ------- ----- ------------
_CODE_4                00044000    00002CEA =       11498. bytes (REL,CON)

        Value  Global            Value  Global            Value  Global    
        -----  ------            -----  ------            -----  ------    
     00045350  C$ScriptR |    00045350  C$ScriptR |    00045350  G$Script_
     00045350  _Script_N |    00045353  A$ScriptR |    00045355  A$ScriptR
     00045355  C$ScriptR |    00045355  XG$Script |    00045356  A$ScriptR
     00045356  C$ScriptR |    00045356  C$ScriptR |    00045356  G$Script_
     00045356  _Script_I |    00045359  A$ScriptR |    0004535A  A$ScriptR
     0004535B  A$ScriptR |    0004535D  A$ScriptR |    0004535E  A$ScriptR
     0004535F  A$ScriptR |    00045360  A$ScriptR |    00045362  A$ScriptR
     00045363  A$ScriptR |    00045363  C$ScriptR |    00045366  A$ScriptR
     00045367  A$ScriptR |    00045368  A$ScriptR |    00045368  C$ScriptR
     0004536A  A$ScriptR |    0004536B  A$ScriptR |    0004536B  C$ScriptR
     0004536C  A$ScriptR |    0004536D  A$ScriptR |    0004536D  C$ScriptR
     0004536D  XG$Script |    0004536E  A$ScriptR |    0004536E  C$ScriptR
     0004536E  C$ScriptR |    0004536E  G$Script_ |    0004536E  _Script_D
     00045371  A$ScriptR |    00045372  A$ScriptR |    00045373  A$ScriptR
     00045375  A$ScriptR |    00045376  A$ScriptR |    00045377  A$ScriptR
     00045378  A$ScriptR |    0004537A  A$ScriptR |    0004537B  A$ScriptR
     0004537B  C$ScriptR |    0004537E  A$ScriptR |    0004537F  A$ScriptR
     00045380  A$ScriptR |    00045381  A$ScriptR |    00045381  C$ScriptR
     00045382  A$ScriptR |    00045383  A$ScriptR |    00045383  C$ScriptR
     00045384  A$ScriptR |    00045385  A$ScriptR |    00045385  C$ScriptR
     00045385  XG$Script |    00045386  A$ScriptR |    00045386  C$ScriptR
     00045386  C$ScriptR |    00045386  G$Script_ |    00045386  _Script_S
     00045389  A$ScriptR |    0004538A  A$ScriptR |    0004538C  A$ScriptR
     0004538F  A$ScriptR |    00045390  A$ScriptR |    00045392  A$ScriptR
     00045393  A$ScriptR |    00045393  C$ScriptR |    00045396  A$ScriptR
     00045397  A$ScriptR |    00045398  A$ScriptR |    00045399  A$ScriptR
     0004539C  A$ScriptR |    0004539D  A$ScriptR |    0004539D  C$ScriptR
     0004539D  XG$Script |    0004539E  A$ScriptR |    0004539E  C$ScriptR
     0004539E  G$Script_ |    0004539E  _Script_S |    000453A0  A$ScriptR
     000453A0  C$ScriptR |    000453A2  A$ScriptR |    000453A2  C$ScriptR
     000453A5  A$ScriptR |    000453A6  A$ScriptR |    000453A8  A$ScriptR
     000453AB  A$ScriptR |    000453AC  A$ScriptR |    000453AE  A$ScriptR
     000453AF  A$ScriptR |    000453B0  A$ScriptR |    000453B1  A$ScriptR
     000453B2  A$ScriptR |    000453B3  A$ScriptR |    000453B4  A$ScriptR
     000453B7  A$ScriptR |    000453B9  A$ScriptR |    000453BA  A$ScriptR
     000453BC  A$ScriptR |    000453BE  A$ScriptR |    000453BF  A$ScriptR
     000453C2  A$ScriptR |    000453C2  C$ScriptR |    000453C5  A$ScriptR
     000453C6  A$ScriptR |    000453C8  A$ScriptR |    000453C9  A$ScriptR
     000453CA  A$ScriptR |    000453CB  A$ScriptR |    000453CC  A$ScriptR
     000453CD  A$ScriptR |    000453CE  A$ScriptR |    000453CF  A$ScriptR
     000453D0  A$ScriptR |    000453D1  A$ScriptR |    000453D2  A$ScriptR
     000453D3  A$ScriptR |    000453D4  A$ScriptR |    000453D4  C$ScriptR
     000453D6  A$ScriptR |    000453D7  A$ScriptR |    000453D9  A$ScriptR
     000453DC  A$ScriptR |    000453DD  A$ScriptR |    000453DE  A$ScriptR
     000453DE  C$ScriptR |    000453DF  A$ScriptR |    000453E1  A$ScriptR
     000453E3  A$ScriptR |    000453E5  A$ScriptR |    000453E7  A$ScriptR
     000453E9  A$ScriptR |    000453EB  A$ScriptR |    000453EB  C$ScriptR
     000453EE  A$ScriptR |    000453EF  A$ScriptR |    000453F0  A$ScriptR
     000453F1  A$ScriptR |    000453F2  A$ScriptR |    000453F4  A$ScriptR
     000453F6  A$ScriptR |    000453F8  A$ScriptR |    000453FA  A$ScriptR
     000453FC  A$ScriptR |    000453FE  A$ScriptR |    000453FE  C$ScriptR
ASxxxx Linker V03.00 + NoICE + sdld,  page 142.
Hexadecimal  [32-Bits]

Area                       Addr        Size        Decimal Bytes (Attributes)
--------------------       ----        ----        ------- ----- ------------
_CODE_4                00044000    00002CEA =       11498. bytes (REL,CON)

        Value  Global            Value  Global            Value  Global    
        -----  ------            -----  ------            -----  ------    
     00045400  A$ScriptR |    00045400  C$ScriptR |    00045400  C$ScriptR
     00045403  A$ScriptR |    00045404  A$ScriptR |    00045405  A$ScriptR
     00045406  A$ScriptR |    00045407  A$ScriptR |    00045409  A$ScriptR
     0004540B  A$ScriptR |    0004540D  A$ScriptR |    0004540F  A$ScriptR
     00045411  A$ScriptR |    00045413  A$ScriptR |    00045413  C$ScriptR
     00045415  A$ScriptR |    00045415  C$ScriptR |    00045415  C$ScriptR
     00045418  A$ScriptR |    00045419  A$ScriptR |    0004541A  A$ScriptR
     0004541C  A$ScriptR |    0004541D  A$ScriptR |    0004541E  A$ScriptR
     00045420  A$ScriptR |    00045421  A$ScriptR |    00045424  A$ScriptR
     00045425  A$ScriptR |    00045426  A$ScriptR |    00045427  A$ScriptR
     00045429  A$ScriptR |    00045429  C$ScriptR |    0004542B  A$ScriptR
     0004542D  A$ScriptR |    0004542D  C$ScriptR |    0004542E  A$ScriptR
     00045430  A$ScriptR |    00045432  A$ScriptR |    00045432  C$ScriptR
     00045434  A$ScriptR |    00045436  A$ScriptR |    00045436  C$ScriptR
     00045437  A$ScriptR |    00045439  A$ScriptR |    00045439  C$ScriptR
     0004543B  A$ScriptR |    0004543D  A$ScriptR |    0004543D  C$ScriptR
     0004543F  A$ScriptR |    0004543F  C$ScriptR |    00045441  A$ScriptR
     00045441  C$ScriptR |    00045441  C$ScriptR |    00045444  A$ScriptR
     00045445  A$ScriptR |    00045446  A$ScriptR |    00045446  C$ScriptR
     00045448  A$ScriptR |    00045448  C$ScriptR |    00045448  C$ScriptR
     0004544B  A$ScriptR |    0004544C  A$ScriptR |    0004544D  A$ScriptR
     0004544D  C$ScriptR |    0004544F  A$ScriptR |    0004544F  C$ScriptR
     0004544F  C$ScriptR |    00045452  A$ScriptR |    00045453  A$ScriptR
     00045454  A$ScriptR |    00045454  C$ScriptR |    00045454  C$ScriptR
     00045457  A$ScriptR |    00045458  A$ScriptR |    00045459  A$ScriptR
     0004545A  A$ScriptR |    0004545B  A$ScriptR |    0004545D  A$ScriptR
     0004545D  C$ScriptR |    0004545D  XG$Script |    0004545E  A$ScriptR
     0004545E  C$ScriptR |    0004545E  C$ScriptR |    0004545E  G$Script_
     0004545E  _Script_I |    00045461  A$ScriptR |    00045461  C$ScriptR
     00045464  A$ScriptR |    00045465  A$ScriptR |    00045466  A$ScriptR
     00045466  C$ScriptR |    00045469  A$ScriptR |    0004546A  A$ScriptR
     0004546B  A$ScriptR |    0004546C  A$ScriptR |    0004546F  A$ScriptR
     00045470  A$ScriptR |    00045472  A$ScriptR |    00045473  A$ScriptR
     00045474  A$ScriptR |    00045475  A$ScriptR |    00045478  A$ScriptR
     00045479  A$ScriptR |    0004547A  A$ScriptR |    0004547C  A$ScriptR
     0004547D  A$ScriptR |    0004547E  A$ScriptR |    00045481  A$ScriptR
     00045482  A$ScriptR |    00045483  A$ScriptR |    00045484  A$ScriptR
     00045484  C$ScriptR |    00045484  XG$Script |    00045485  A$ScriptR
     00045485  C$ScriptR |    00045485  G$Script_ |    00045485  _Script_C
     00045486  A$ScriptR |    00045486  C$ScriptR |    00045489  A$ScriptR
     0004548A  A$ScriptR |    0004548C  A$ScriptR |    0004548F  A$ScriptR
     00045490  A$ScriptR |    00045492  A$ScriptR |    00045493  A$ScriptR
     00045494  A$ScriptR |    00045495  A$ScriptR |    00045495  C$ScriptR
     00045498  A$ScriptR |    0004549A  A$ScriptR |    0004549B  A$ScriptR
     0004549E  A$ScriptR |    0004549F  A$ScriptR |    000454A1  A$ScriptR
     000454A4  A$ScriptR |    000454A5  A$ScriptR |    000454A7  A$ScriptR
     000454A8  A$ScriptR |    000454A9  A$ScriptR |    000454AA  A$ScriptR
     000454AB  A$ScriptR |    000454AD  A$ScriptR |    000454AE  A$ScriptR
     000454AF  A$ScriptR |    000454B0  A$ScriptR |    000454B1  A$ScriptR
     000454B4  A$ScriptR |    000454B6  A$ScriptR |    000454B6  C$ScriptR
     000454B9  A$ScriptR |    000454BB  A$ScriptR |    000454BC  A$ScriptR
ASxxxx Linker V03.00 + NoICE + sdld,  page 143.
Hexadecimal  [32-Bits]

Area                       Addr        Size        Decimal Bytes (Attributes)
--------------------       ----        ----        ------- ----- ------------
_CODE_4                00044000    00002CEA =       11498. bytes (REL,CON)

        Value  Global            Value  Global            Value  Global    
        -----  ------            -----  ------            -----  ------    
     000454BE  A$ScriptR |    000454BF  A$ScriptR |    000454BF  C$ScriptR
     000454BF  XG$Script |    000454C0  A$ScriptR |    000454C0  C$ScriptR
     000454C0  G$Script_ |    000454C0  _Script_T |    000454C2  A$ScriptR
     000454C2  C$ScriptR |    000454C5  A$ScriptR |    000454C7  A$ScriptR
     000454C8  A$ScriptR |    000454C8  C$ScriptR |    000454CB  A$ScriptR
     000454CD  A$ScriptR |    000454CE  A$ScriptR |    000454D1  A$ScriptR
     000454D2  A$ScriptR |    000454D4  A$ScriptR |    000454D7  A$ScriptR
     000454D8  A$ScriptR |    000454DA  A$ScriptR |    000454DB  A$ScriptR
     000454DC  A$ScriptR |    000454DD  A$ScriptR |    000454DD  C$ScriptR
     000454E0  A$ScriptR |    000454E2  A$ScriptR |    000454E3  A$ScriptR
     000454E6  A$ScriptR |    000454E7  A$ScriptR |    000454E9  A$ScriptR
     000454EC  A$ScriptR |    000454ED  A$ScriptR |    000454EF  A$ScriptR
     000454F0  A$ScriptR |    000454F1  A$ScriptR |    000454F2  A$ScriptR
     000454F4  A$ScriptR |    000454F5  A$ScriptR |    000454F6  A$ScriptR
     000454F7  A$ScriptR |    000454F8  A$ScriptR |    000454F9  A$ScriptR
     000454FA  A$ScriptR |    000454FB  A$ScriptR |    000454FC  A$ScriptR
     000454FD  A$ScriptR |    000454FE  A$ScriptR |    000454FF  A$ScriptR
     00045500  A$ScriptR |    00045501  A$ScriptR |    00045504  A$ScriptR
     00045506  A$ScriptR |    00045506  C$ScriptR |    00045509  A$ScriptR
     0004550B  A$ScriptR |    0004550C  A$ScriptR |    0004550E  A$ScriptR
     00045510  A$ScriptR |    00045510  C$ScriptR |    00045510  XG$Script
     00045511  A$ScriptR |    00045511  C$ScriptR |    00045511  C$ScriptR
     00045511  G$Script_ |    00045511  _Script_P |    00045514  A$ScriptR
     00045515  A$ScriptR |    00045517  A$ScriptR |    00045517  C$ScriptR
     0004551A  A$ScriptR |    0004551C  A$ScriptR |    0004551D  A$ScriptR
     0004551F  A$ScriptR |    00045520  A$ScriptR |    00045520  C$ScriptR
     00045522  A$ScriptR |    00045524  A$ScriptR |    00045524  C$ScriptR
     00045527  A$ScriptR |    00045529  A$ScriptR |    0004552A  A$ScriptR
     0004552C  A$ScriptR |    0004552D  A$ScriptR |    0004552D  C$ScriptR
     0004552F  A$ScriptR |    00045530  A$ScriptR |    00045530  C$ScriptR
     00045533  A$ScriptR |    00045535  A$ScriptR |    00045536  A$ScriptR
     00045538  A$ScriptR |    00045538  C$ScriptR |    00045538  XG$Script
     00045539  A$ScriptR |    00045539  C$ScriptR |    00045539  G$Script_
     00045539  _Script_A |    0004553B  A$ScriptR |    0004553B  C$ScriptR
     0004553E  A$ScriptR |    00045540  A$ScriptR |    00045541  A$ScriptR
     00045543  A$ScriptR |    00045544  A$ScriptR |    00045545  A$ScriptR
     00045545  C$ScriptR |    00045548  A$ScriptR |    00045548  C$ScriptR
     0004554B  A$ScriptR |    0004554D  A$ScriptR |    0004554E  A$ScriptR
     0004554E  C$ScriptR |    00045550  A$ScriptR |    00045551  A$ScriptR
     00045553  A$ScriptR |    00045554  A$ScriptR |    00045555  A$ScriptR
     00045556  A$ScriptR |    00045557  A$ScriptR |    00045558  A$ScriptR
     00045559  A$ScriptR |    0004555A  A$ScriptR |    0004555B  A$ScriptR
     0004555C  A$ScriptR |    0004555D  A$ScriptR |    00045560  A$ScriptR
     00045561  A$ScriptR |    00045564  A$ScriptR |    00045565  A$ScriptR
     00045566  A$ScriptR |    00045567  A$ScriptR |    0004556A  A$ScriptR
     0004556B  A$ScriptR |    0004556B  C$ScriptR |    0004556E  A$ScriptR
     0004556F  A$ScriptR |    00045571  A$ScriptR |    00045572  A$ScriptR
     00045573  A$ScriptR |    00045574  A$ScriptR |    00045575  A$ScriptR
     00045576  A$ScriptR |    00045577  A$ScriptR |    00045578  A$ScriptR
     00045579  A$ScriptR |    0004557A  A$ScriptR |    0004557B  A$ScriptR
     0004557E  A$ScriptR |    0004557F  A$ScriptR |    00045582  A$ScriptR
ASxxxx Linker V03.00 + NoICE + sdld,  page 144.
Hexadecimal  [32-Bits]

Area                       Addr        Size        Decimal Bytes (Attributes)
--------------------       ----        ----        ------- ----- ------------
_CODE_4                00044000    00002CEA =       11498. bytes (REL,CON)

        Value  Global            Value  Global            Value  Global    
        -----  ------            -----  ------            -----  ------    
     00045583  A$ScriptR |    00045585  A$ScriptR |    00045585  C$ScriptR
     00045588  A$ScriptR |    00045589  A$ScriptR |    0004558B  A$ScriptR
     0004558C  A$ScriptR |    0004558D  A$ScriptR |    0004558E  A$ScriptR
     0004558F  A$ScriptR |    00045590  A$ScriptR |    00045591  A$ScriptR
     00045592  A$ScriptR |    00045593  A$ScriptR |    00045594  A$ScriptR
     00045595  A$ScriptR |    00045598  A$ScriptR |    00045599  A$ScriptR
     0004559C  A$ScriptR |    0004559D  A$ScriptR |    0004559E  A$ScriptR
     0004559F  A$ScriptR |    000455A1  A$ScriptR |    000455A2  A$ScriptR
     000455A4  A$ScriptR |    000455A6  A$ScriptR |    000455A8  A$ScriptR
     000455A9  A$ScriptR |    000455AB  A$ScriptR |    000455AC  A$ScriptR
     000455AD  A$ScriptR |    000455AF  A$ScriptR |    000455B1  A$ScriptR
     000455B3  A$ScriptR |    000455B4  A$ScriptR |    000455B6  A$ScriptR
     000455B6  C$ScriptR |    000455B7  A$ScriptR |    000455B8  A$ScriptR
     000455B9  A$ScriptR |    000455BB  A$ScriptR |    000455BE  A$ScriptR
     000455C0  A$ScriptR |    000455C0  C$ScriptR |    000455C2  A$ScriptR
     000455C3  A$ScriptR |    000455C4  A$ScriptR |    000455C6  A$ScriptR
     000455C9  A$ScriptR |    000455CB  A$ScriptR |    000455CE  A$ScriptR
     000455CF  A$ScriptR |    000455D0  A$ScriptR |    000455D0  C$ScriptR
     000455D3  A$ScriptR |    000455D4  A$ScriptR |    000455D6  A$ScriptR
     000455D7  A$ScriptR |    000455D8  A$ScriptR |    000455D9  A$ScriptR
     000455DA  A$ScriptR |    000455DB  A$ScriptR |    000455DC  A$ScriptR
     000455DD  A$ScriptR |    000455DE  A$ScriptR |    000455DF  A$ScriptR
     000455E0  A$ScriptR |    000455E1  A$ScriptR |    000455E3  A$ScriptR
     000455E4  A$ScriptR |    000455E5  A$ScriptR |    000455E7  A$ScriptR
     000455E8  A$ScriptR |    000455EB  A$ScriptR |    000455EC  A$ScriptR
     000455ED  A$ScriptR |    000455EE  A$ScriptR |    000455F0  A$ScriptR
     000455F1  A$ScriptR |    000455F2  A$ScriptR |    000455F4  A$ScriptR
     000455F5  A$ScriptR |    000455F6  A$ScriptR |    000455F8  A$ScriptR
     000455FA  A$ScriptR |    000455FB  A$ScriptR |    000455FC  A$ScriptR
     000455FD  A$ScriptR |    000455FF  A$ScriptR |    00045601  A$ScriptR
     00045602  A$ScriptR |    00045603  A$ScriptR |    00045605  A$ScriptR
     00045606  A$ScriptR |    00045608  A$ScriptR |    00045609  A$ScriptR
     0004560A  A$ScriptR |    0004560B  A$ScriptR |    0004560D  A$ScriptR
     0004560F  A$ScriptR |    00045610  A$ScriptR |    00045611  A$ScriptR
     00045612  A$ScriptR |    00045613  A$ScriptR |    00045614  A$ScriptR
     00045616  A$ScriptR |    00045617  A$ScriptR |    00045618  A$ScriptR
     00045619  A$ScriptR |    0004561A  A$ScriptR |    0004561B  A$ScriptR
     0004561C  A$ScriptR |    0004561D  A$ScriptR |    0004561D  C$ScriptR
     00045620  A$ScriptR |    00045621  A$ScriptR |    00045623  A$ScriptR
     00045624  A$ScriptR |    00045625  A$ScriptR |    00045626  A$ScriptR
     00045627  A$ScriptR |    00045628  A$ScriptR |    00045629  A$ScriptR
     0004562A  A$ScriptR |    0004562B  A$ScriptR |    0004562C  A$ScriptR
     0004562D  A$ScriptR |    0004562E  A$ScriptR |    0004562F  A$ScriptR
     00045631  A$ScriptR |    00045632  A$ScriptR |    00045633  A$ScriptR
     00045634  A$ScriptR |    00045635  A$ScriptR |    00045636  A$ScriptR
     00045637  A$ScriptR |    0004563A  A$ScriptR |    0004563B  A$ScriptR
     0004563C  A$ScriptR |    0004563D  A$ScriptR |    0004563F  A$ScriptR
     00045640  A$ScriptR |    00045641  A$ScriptR |    00045642  A$ScriptR
     00045643  A$ScriptR |    00045644  A$ScriptR |    00045645  A$ScriptR
     00045648  A$ScriptR |    00045649  A$ScriptR |    0004564A  A$ScriptR
     0004564B  A$ScriptR |    0004564D  A$ScriptR |    0004564E  A$ScriptR
ASxxxx Linker V03.00 + NoICE + sdld,  page 145.
Hexadecimal  [32-Bits]

Area                       Addr        Size        Decimal Bytes (Attributes)
--------------------       ----        ----        ------- ----- ------------
_CODE_4                00044000    00002CEA =       11498. bytes (REL,CON)

        Value  Global            Value  Global            Value  Global    
        -----  ------            -----  ------            -----  ------    
     0004564F  A$ScriptR |    00045650  A$ScriptR |    00045651  A$ScriptR
     00045652  A$ScriptR |    00045653  A$ScriptR |    00045655  A$ScriptR
     00045657  A$ScriptR |    00045657  C$ScriptR |    00045657  XG$Script
     00045658  A$ScriptR |    00045658  C$ScriptR |    00045658  G$Script_
     00045658  _Script_P |    00045659  A$ScriptR |    00045659  C$ScriptR
     0004565C  A$ScriptR |    0004565D  A$ScriptR |    0004565F  A$ScriptR
     00045662  A$ScriptR |    00045663  A$ScriptR |    00045665  A$ScriptR
     00045666  A$ScriptR |    00045667  A$ScriptR |    00045668  A$ScriptR
     00045668  C$ScriptR |    00045669  A$ScriptR |    0004566A  A$ScriptR
     0004566B  A$ScriptR |    0004566C  A$ScriptR |    0004566D  A$ScriptR
     00045670  A$ScriptR |    00045672  A$ScriptR |    00045673  A$ScriptR
     00045674  A$ScriptR |    00045675  A$ScriptR |    00045676  A$ScriptR
     00045678  A$ScriptR |    0004567A  A$ScriptR |    0004567B  A$ScriptR
     0004567B  C$ScriptR |    0004567E  A$ScriptR |    00045680  A$ScriptR
     00045680  C$ScriptR |    00045683  A$ScriptR |    00045685  A$ScriptR
     00045685  C$ScriptR |    00045688  A$ScriptR |    00045688  C$ScriptR
     00045688  C$ScriptR |    0004568A  A$ScriptR |    0004568C  A$ScriptR
     0004568D  A$ScriptR |    0004568F  A$ScriptR |    0004568F  C$ScriptR
     00045690  A$ScriptR |    00045691  A$ScriptR |    00045691  C$ScriptR
     00045694  A$ScriptR |    00045696  A$ScriptR |    00045698  A$ScriptR
     00045698  C$ScriptR |    0004569A  A$ScriptR |    0004569B  A$ScriptR
     0004569D  A$ScriptR |    0004569F  A$ScriptR |    0004569F  C$ScriptR
     000456A1  A$ScriptR |    000456A2  A$ScriptR |    000456A2  C$ScriptR
     000456A5  A$ScriptR |    000456A7  A$ScriptR |    000456A9  A$ScriptR
     000456A9  C$ScriptR |    000456AB  A$ScriptR |    000456AC  A$ScriptR
     000456AE  A$ScriptR |    000456B0  A$ScriptR |    000456B0  C$ScriptR
     000456B2  A$ScriptR |    000456B3  A$ScriptR |    000456B3  C$ScriptR
     000456B6  A$ScriptR |    000456B8  A$ScriptR |    000456BA  A$ScriptR
     000456BA  C$ScriptR |    000456BB  A$ScriptR |    000456BC  A$ScriptR
     000456BC  C$ScriptR |    000456BF  A$ScriptR |    000456C1  A$ScriptR
     000456C2  A$ScriptR |    000456C3  A$ScriptR |    000456C3  C$ScriptR
     000456C6  A$ScriptR |    000456C8  A$ScriptR |    000456C8  C$ScriptR
     000456CB  A$ScriptR |    000456CC  A$ScriptR |    000456CE  A$ScriptR
     000456CE  C$ScriptR |    000456D1  A$ScriptR |    000456D2  A$ScriptR
     000456D3  A$ScriptR |    000456D4  A$ScriptR |    000456D5  A$ScriptR
     000456D5  C$ScriptR |    000456D5  XG$Script |    000456D6  A$ScriptR
     000456D6  C$ScriptR |    000456D6  G$Script_ |    000456D6  _Script_A
     000456D8  A$ScriptR |    000456D8  C$ScriptR |    000456DB  A$ScriptR
     000456DC  A$ScriptR |    000456DE  A$ScriptR |    000456DF  A$ScriptR
     000456E0  A$ScriptR |    000456E1  A$ScriptR |    000456E2  A$ScriptR
     000456E3  A$ScriptR |    000456E4  A$ScriptR |    000456E5  A$ScriptR
     000456E6  A$ScriptR |    000456E7  A$ScriptR |    000456E8  A$ScriptR
     000456EB  A$ScriptR |    000456EC  A$ScriptR |    000456ED  A$ScriptR
     000456EE  A$ScriptR |    000456F1  A$ScriptR |    000456F2  A$ScriptR
     000456F3  A$ScriptR |    000456F3  C$ScriptR |    000456F6  A$ScriptR
     000456F7  A$ScriptR |    000456F8  A$ScriptR |    000456FA  A$ScriptR
     000456FB  A$ScriptR |    000456FC  A$ScriptR |    000456FD  A$ScriptR
     000456FE  A$ScriptR |    000456FF  A$ScriptR |    00045700  A$ScriptR
     00045703  A$ScriptR |    00045704  A$ScriptR |    00045705  A$ScriptR
     00045706  A$ScriptR |    00045707  A$ScriptR |    00045708  A$ScriptR
     00045708  C$ScriptR |    0004570B  A$ScriptR |    0004570E  A$ScriptR
ASxxxx Linker V03.00 + NoICE + sdld,  page 146.
Hexadecimal  [32-Bits]

Area                       Addr        Size        Decimal Bytes (Attributes)
--------------------       ----        ----        ------- ----- ------------
_CODE_4                00044000    00002CEA =       11498. bytes (REL,CON)

        Value  Global            Value  Global            Value  Global    
        -----  ------            -----  ------            -----  ------    
     0004570F  A$ScriptR |    0004570F  C$ScriptR |    00045712  A$ScriptR
     00045714  A$ScriptR |    00045715  A$ScriptR |    00045715  C$ScriptR
     00045718  A$ScriptR |    0004571A  A$ScriptR |    0004571B  A$ScriptR
     0004571B  C$ScriptR |    0004571D  A$ScriptR |    0004571E  A$ScriptR
     0004571F  A$ScriptR |    00045720  A$ScriptR |    00045723  A$ScriptR
     00045724  A$ScriptR |    00045725  A$ScriptR |    00045726  A$ScriptR
     00045728  A$ScriptR |    00045729  A$ScriptR |    0004572A  A$ScriptR
     0004572A  C$ScriptR |    0004572B  A$ScriptR |    0004572C  A$ScriptR
     0004572E  A$ScriptR |    0004572E  C$ScriptR |    00045730  A$ScriptR
     00045732  A$ScriptR |    00045734  A$ScriptR |    00045734  C$ScriptR
     00045735  A$ScriptR |    00045737  A$ScriptR |    00045738  A$ScriptR
     00045739  A$ScriptR |    0004573B  A$ScriptR |    0004573B  C$ScriptR
     0004573D  A$ScriptR |    0004573E  A$ScriptR |    00045740  A$ScriptR
     00045741  A$ScriptR |    00045742  A$ScriptR |    00045744  A$ScriptR
     00045746  A$ScriptR |    00045748  A$ScriptR |    0004574A  A$ScriptR
     0004574B  A$ScriptR |    0004574D  A$ScriptR |    0004574F  A$ScriptR
     00045751  A$ScriptR |    00045752  A$ScriptR |    00045754  A$ScriptR
     00045754  C$ScriptR |    00045757  A$ScriptR |    00045758  A$ScriptR
     00045759  A$ScriptR |    0004575B  A$ScriptR |    0004575C  A$ScriptR
     0004575D  A$ScriptR |    0004575F  A$ScriptR |    0004575F  C$ScriptR
     00045761  A$ScriptR |    00045762  A$ScriptR |    00045763  A$ScriptR
     00045764  A$ScriptR |    00045765  A$ScriptR |    00045766  A$ScriptR
     00045767  A$ScriptR |    00045768  A$ScriptR |    00045769  A$ScriptR
     0004576A  A$ScriptR |    0004576A  C$ScriptR |    0004576C  A$ScriptR
     0004576E  A$ScriptR |    00045770  A$ScriptR |    00045770  C$ScriptR
     00045773  A$ScriptR |    00045775  A$ScriptR |    00045775  C$ScriptR
     00045777  A$ScriptR |    00045778  A$ScriptR |    0004577A  A$ScriptR
     0004577B  A$ScriptR |    0004577C  A$ScriptR |    0004577E  A$ScriptR
     00045780  A$ScriptR |    00045782  A$ScriptR |    00045784  A$ScriptR
     00045785  A$ScriptR |    00045787  A$ScriptR |    00045789  A$ScriptR
     0004578B  A$ScriptR |    0004578C  A$ScriptR |    0004578E  A$ScriptR
     0004578E  C$ScriptR |    00045791  A$ScriptR |    00045792  A$ScriptR
     00045793  A$ScriptR |    00045794  A$ScriptR |    00045795  A$ScriptR
     00045797  A$ScriptR |    00045797  C$ScriptR |    00045799  A$ScriptR
     0004579A  A$ScriptR |    0004579B  A$ScriptR |    0004579C  A$ScriptR
     0004579D  A$ScriptR |    0004579E  A$ScriptR |    0004579F  A$ScriptR
     000457A0  A$ScriptR |    000457A1  A$ScriptR |    000457A3  A$ScriptR
     000457A3  C$ScriptR |    000457A5  A$ScriptR |    000457A6  A$ScriptR
     000457A7  A$ScriptR |    000457A8  A$ScriptR |    000457A9  A$ScriptR
     000457AA  A$ScriptR |    000457AB  A$ScriptR |    000457AC  A$ScriptR
     000457AD  A$ScriptR |    000457AF  A$ScriptR |    000457B0  A$ScriptR
     000457B1  A$ScriptR |    000457B2  A$ScriptR |    000457B3  A$ScriptR
     000457B4  A$ScriptR |    000457B5  A$ScriptR |    000457B6  A$ScriptR
     000457B7  A$ScriptR |    000457B8  A$ScriptR |    000457B9  A$ScriptR
     000457BA  A$ScriptR |    000457BB  A$ScriptR |    000457BC  A$ScriptR
     000457BD  A$ScriptR |    000457BF  A$ScriptR |    000457C0  A$ScriptR
     000457C1  A$ScriptR |    000457C1  C$ScriptR |    000457C2  A$ScriptR
     000457C3  A$ScriptR |    000457C4  A$ScriptR |    000457C5  A$ScriptR
     000457C6  A$ScriptR |    000457C7  A$ScriptR |    000457C8  A$ScriptR
     000457C9  A$ScriptR |    000457CA  A$ScriptR |    000457CB  A$ScriptR
     000457CC  A$ScriptR |    000457CD  A$ScriptR |    000457CE  A$ScriptR
ASxxxx Linker V03.00 + NoICE + sdld,  page 147.
Hexadecimal  [32-Bits]

Area                       Addr        Size        Decimal Bytes (Attributes)
--------------------       ----        ----        ------- ----- ------------
_CODE_4                00044000    00002CEA =       11498. bytes (REL,CON)

        Value  Global            Value  Global            Value  Global    
        -----  ------            -----  ------            -----  ------    
     000457CF  A$ScriptR |    000457D0  A$ScriptR |    000457D1  A$ScriptR
     000457D2  A$ScriptR |    000457D3  A$ScriptR |    000457D4  A$ScriptR
     000457D5  A$ScriptR |    000457D6  A$ScriptR |    000457D7  A$ScriptR
     000457D8  A$ScriptR |    000457D9  A$ScriptR |    000457DA  A$ScriptR
     000457DB  A$ScriptR |    000457DC  A$ScriptR |    000457DD  A$ScriptR
     000457DD  C$ScriptR |    000457E0  A$ScriptR |    000457E1  A$ScriptR
     000457E3  A$ScriptR |    000457E3  C$ScriptR |    000457E4  A$ScriptR
     000457E6  A$ScriptR |    000457E7  A$ScriptR |    000457E7  C$ScriptR
     000457EA  A$ScriptR |    000457EB  A$ScriptR |    000457EC  A$ScriptR
     000457ED  A$ScriptR |    000457ED  C$ScriptR |    000457F0  A$ScriptR
     000457F2  A$ScriptR |    000457F3  A$ScriptR |    000457F4  A$ScriptR
     000457F5  A$ScriptR |    000457F6  A$ScriptR |    000457F7  A$ScriptR
     000457F8  A$ScriptR |    000457F8  C$ScriptR |    000457FB  A$ScriptR
     000457FC  A$ScriptR |    000457FD  A$ScriptR |    000457FD  C$ScriptR
     000457FE  A$ScriptR |    000457FF  A$ScriptR |    00045800  A$ScriptR
     00045801  A$ScriptR |    00045801  C$ScriptR |    00045804  A$ScriptR
     00045805  A$ScriptR |    00045806  A$ScriptR |    00045807  A$ScriptR
     00045808  A$ScriptR |    0004580B  A$ScriptR |    0004580C  A$ScriptR
     0004580E  A$ScriptR |    0004580E  C$ScriptR |    00045811  A$ScriptR
     00045811  C$ScriptR |    00045814  A$ScriptR |    00045816  A$ScriptR
     00045817  A$ScriptR |    00045818  A$ScriptR |    0004581A  A$ScriptR
     0004581B  A$ScriptR |    0004581D  A$ScriptR |    0004581D  C$ScriptR
     0004581D  XG$Script |    0004581E  A$ScriptR |    0004581E  C$ScriptR
     0004581E  G$Script_ |    0004581E  _Script_I |    0004581F  A$ScriptR
     0004581F  C$ScriptR |    00045822  A$ScriptR |    00045825  A$ScriptR
     00045826  A$ScriptR |    00045828  A$ScriptR |    00045829  A$ScriptR
     0004582A  A$ScriptR |    0004582B  A$ScriptR |    0004582C  A$ScriptR
     0004582D  A$ScriptR |    0004582E  A$ScriptR |    0004582F  A$ScriptR
     00045830  A$ScriptR |    00045831  A$ScriptR |    00045832  A$ScriptR
     00045833  A$ScriptR |    00045834  A$ScriptR |    00045835  A$ScriptR
     00045836  A$ScriptR |    00045837  A$ScriptR |    00045838  A$ScriptR
     0004583A  A$ScriptR |    0004583C  A$ScriptR |    0004583E  A$ScriptR
     00045840  A$ScriptR |    00045842  A$ScriptR |    00045844  A$ScriptR
     00045845  A$ScriptR |    00045847  A$ScriptR |    00045848  A$ScriptR
     00045848  C$ScriptR |    00045849  A$ScriptR |    0004584A  A$ScriptR
     0004584B  A$ScriptR |    0004584C  A$ScriptR |    0004584D  A$ScriptR
     0004584E  A$ScriptR |    0004584F  A$ScriptR |    00045851  A$ScriptR
     00045853  A$ScriptR |    00045855  A$ScriptR |    00045857  A$ScriptR
     00045859  A$ScriptR |    0004585B  A$ScriptR |    0004585B  C$ScriptR
     0004585E  A$ScriptR |    0004585F  A$ScriptR |    00045861  A$ScriptR
     00045862  A$ScriptR |    00045863  A$ScriptR |    00045865  A$ScriptR
     00045865  C$ScriptR |    00045868  A$ScriptR |    00045869  A$ScriptR
     0004586B  A$ScriptR |    0004586B  C$ScriptR |    0004586E  A$ScriptR
     0004586F  A$ScriptR |    00045870  A$ScriptR |    00045871  A$ScriptR
     00045874  A$ScriptR |    00045875  A$ScriptR |    00045877  A$ScriptR
     00045878  A$ScriptR |    00045879  A$ScriptR |    0004587A  A$ScriptR
     0004587D  A$ScriptR |    0004587E  A$ScriptR |    0004587F  A$ScriptR
     00045881  A$ScriptR |    00045882  A$ScriptR |    00045883  A$ScriptR
     00045886  A$ScriptR |    00045887  A$ScriptR |    00045888  A$ScriptR
     00045889  A$ScriptR |    0004588A  A$ScriptR |    0004588A  C$ScriptR
     0004588A  XG$Script |    0004588B  A$ScriptR |    0004588B  C$ScriptR
ASxxxx Linker V03.00 + NoICE + sdld,  page 148.
Hexadecimal  [32-Bits]

Area                       Addr        Size        Decimal Bytes (Attributes)
--------------------       ----        ----        ------- ----- ------------
_CODE_4                00044000    00002CEA =       11498. bytes (REL,CON)

        Value  Global            Value  Global            Value  Global    
        -----  ------            -----  ------            -----  ------    
     0004588B  G$Script_ |    0004588B  _Script_S |    0004588C  A$ScriptR
     0004588C  C$ScriptR |    0004588F  A$ScriptR |    00045891  A$ScriptR
     00045891  C$ScriptR |    00045894  A$ScriptR |    00045896  A$ScriptR
     00045897  A$ScriptR |    00045899  A$ScriptR |    00045899  C$ScriptR
     0004589C  A$ScriptR |    0004589E  A$ScriptR |    0004589E  C$ScriptR
     000458A1  A$ScriptR |    000458A2  A$ScriptR |    000458A3  A$ScriptR
     000458A4  A$ScriptR |    000458A5  A$ScriptR |    000458A6  A$ScriptR
     000458A9  A$ScriptR |    000458AA  A$ScriptR |    000458AA  C$ScriptR
     000458AD  A$ScriptR |    000458AE  A$ScriptR |    000458AF  A$ScriptR
     000458B0  A$ScriptR |    000458B1  A$ScriptR |    000458B2  A$ScriptR
     000458B3  A$ScriptR |    000458B6  A$ScriptR |    000458B7  A$ScriptR
     000458B7  C$ScriptR |    000458BA  A$ScriptR |    000458BB  A$ScriptR
     000458BC  A$ScriptR |    000458BD  A$ScriptR |    000458BE  A$ScriptR
     000458BF  A$ScriptR |    000458C0  A$ScriptR |    000458C1  A$ScriptR
     000458C4  A$ScriptR |    000458C5  A$ScriptR |    000458C6  A$ScriptR
     000458C7  A$ScriptR |    000458C9  A$ScriptR |    000458CB  A$ScriptR
     000458CD  A$ScriptR |    000458CF  A$ScriptR |    000458D1  A$ScriptR
     000458D3  A$ScriptR |    000458D4  A$ScriptR |    000458D5  A$ScriptR
     000458D5  C$ScriptR |    000458D8  A$ScriptR |    000458D9  A$ScriptR
     000458DB  A$ScriptR |    000458DC  A$ScriptR |    000458DD  A$ScriptR
     000458DE  A$ScriptR |    000458E0  A$ScriptR |    000458E1  A$ScriptR
     000458E4  A$ScriptR |    000458E5  A$ScriptR |    000458E6  A$ScriptR
     000458E7  A$ScriptR |    000458E9  A$ScriptR |    000458EB  A$ScriptR
     000458ED  A$ScriptR |    000458EF  A$ScriptR |    000458F1  A$ScriptR
     000458F3  A$ScriptR |    000458F4  A$ScriptR |    000458F5  A$ScriptR
     000458F8  A$ScriptR |    000458FA  A$ScriptR |    000458FB  A$ScriptR
     000458FB  C$ScriptR |    000458FE  A$ScriptR |    000458FF  A$ScriptR
     00045901  A$ScriptR |    00045902  A$ScriptR |    00045903  A$ScriptR
     00045904  A$ScriptR |    00045906  A$ScriptR |    00045907  A$ScriptR
     00045907  C$ScriptR |    00045909  A$ScriptR |    0004590B  A$ScriptR
     0004590D  A$ScriptR |    0004590D  C$ScriptR |    0004590F  A$ScriptR
     00045910  A$ScriptR |    00045912  A$ScriptR |    00045912  C$ScriptR
     00045914  A$ScriptR |    00045915  A$ScriptR |    00045917  A$ScriptR
     00045918  A$ScriptR |    00045919  A$ScriptR |    0004591B  A$ScriptR
     0004591D  A$ScriptR |    0004591F  A$ScriptR |    00045921  A$ScriptR
     00045922  A$ScriptR |    00045924  A$ScriptR |    00045926  A$ScriptR
     00045928  A$ScriptR |    00045929  A$ScriptR |    0004592B  A$ScriptR
     0004592B  C$ScriptR |    0004592D  A$ScriptR |    0004592E  A$ScriptR
     00045930  A$ScriptR |    00045930  C$ScriptR |    00045933  A$ScriptR
     00045935  A$ScriptR |    00045937  A$ScriptR |    00045937  C$ScriptR
     00045939  A$ScriptR |    0004593A  A$ScriptR |    0004593C  A$ScriptR
     0004593C  C$ScriptR |    0004593E  A$ScriptR |    0004593F  A$ScriptR
     0004593F  C$ScriptR |    00045942  A$ScriptR |    00045943  A$ScriptR
     00045945  A$ScriptR |    00045946  A$ScriptR |    00045947  A$ScriptR
     00045948  A$ScriptR |    0004594A  A$ScriptR |    0004594B  A$ScriptR
     0004594E  A$ScriptR |    0004594F  A$ScriptR |    0004594F  C$ScriptR
     00045952  A$ScriptR |    00045953  A$ScriptR |    00045955  A$ScriptR
     00045956  A$ScriptR |    00045957  A$ScriptR |    00045958  A$ScriptR
     0004595A  A$ScriptR |    0004595B  A$ScriptR |    0004595E  A$ScriptR
     0004595F  A$ScriptR |    0004595F  C$ScriptR |    00045962  A$ScriptR
     00045964  A$ScriptR |    00045965  A$ScriptR |    00045967  A$ScriptR
ASxxxx Linker V03.00 + NoICE + sdld,  page 149.
Hexadecimal  [32-Bits]

Area                       Addr        Size        Decimal Bytes (Attributes)
--------------------       ----        ----        ------- ----- ------------
_CODE_4                00044000    00002CEA =       11498. bytes (REL,CON)

        Value  Global            Value  Global            Value  Global    
        -----  ------            -----  ------            -----  ------    
     00045967  C$ScriptR |    0004596A  A$ScriptR |    0004596A  C$ScriptR
     0004596B  A$ScriptR |    0004596E  A$ScriptR |    0004596F  A$ScriptR
     00045970  A$ScriptR |    00045971  A$ScriptR |    00045972  A$ScriptR
     00045973  A$ScriptR |    00045974  A$ScriptR |    00045977  A$ScriptR
     00045978  A$ScriptR |    00045979  A$ScriptR |    0004597A  A$ScriptR
     0004597A  C$ScriptR |    0004597B  A$ScriptR |    0004597C  A$ScriptR
     0004597E  A$ScriptR |    0004597F  A$ScriptR |    00045981  A$ScriptR
     00045983  A$ScriptR |    00045983  C$ScriptR |    00045986  A$ScriptR
     00045988  A$ScriptR |    00045989  A$ScriptR |    00045989  C$ScriptR
     00045989  XG$Script |    0004598A  A$ScriptR |    0004598A  C$ScriptR
     0004598A  G$Script_ |    0004598A  _Script_L |    0004598C  A$ScriptR
     0004598C  C$ScriptR |    0004598F  A$ScriptR |    00045991  A$ScriptR
     00045991  C$ScriptR |    00045994  A$ScriptR |    00045996  A$ScriptR
     00045997  A$ScriptR |    00045999  A$ScriptR |    00045999  C$ScriptR
     0004599C  A$ScriptR |    0004599D  A$ScriptR |    000459A0  A$ScriptR
     000459A0  C$ScriptR |    000459A3  A$ScriptR |    000459A4  A$ScriptR
     000459A6  A$ScriptR |    000459A9  A$ScriptR |    000459AA  A$ScriptR
     000459AC  A$ScriptR |    000459AD  A$ScriptR |    000459AE  A$ScriptR
     000459AF  A$ScriptR |    000459B0  A$ScriptR |    000459B1  A$ScriptR
     000459B2  A$ScriptR |    000459B2  C$ScriptR |    000459B5  A$ScriptR
     000459B7  A$ScriptR |    000459B8  A$ScriptR |    000459BA  A$ScriptR
     000459BA  C$ScriptR |    000459BD  A$ScriptR |    000459BE  A$ScriptR
     000459BF  A$ScriptR |    000459C0  A$ScriptR |    000459C0  C$ScriptR
     000459C3  A$ScriptR |    000459C4  A$ScriptR |    000459C5  A$ScriptR
     000459C6  A$ScriptR |    000459C7  A$ScriptR |    000459C8  A$ScriptR
     000459C9  A$ScriptR |    000459CB  A$ScriptR |    000459CD  A$ScriptR
     000459CF  A$ScriptR |    000459D1  A$ScriptR |    000459D3  A$ScriptR
     000459D5  A$ScriptR |    000459D7  A$ScriptR |    000459DA  A$ScriptR
     000459DB  A$ScriptR |    000459DC  A$ScriptR |    000459DD  A$ScriptR
     000459DD  C$ScriptR |    000459E0  A$ScriptR |    000459E1  A$ScriptR
     000459E3  A$ScriptR |    000459E4  A$ScriptR |    000459E5  A$ScriptR
     000459E5  C$ScriptR |    000459E8  A$ScriptR |    000459E9  A$ScriptR
     000459EA  A$ScriptR |    000459EB  A$ScriptR |    000459EB  C$ScriptR
     000459EE  A$ScriptR |    000459EF  A$ScriptR |    000459F0  A$ScriptR
     000459F1  A$ScriptR |    000459F2  A$ScriptR |    000459F3  A$ScriptR
     000459F4  A$ScriptR |    000459F6  A$ScriptR |    000459F8  A$ScriptR
     000459FA  A$ScriptR |    000459FC  A$ScriptR |    000459FE  A$ScriptR
     00045A00  A$ScriptR |    00045A02  A$ScriptR |    00045A05  A$ScriptR
     00045A06  A$ScriptR |    00045A07  A$ScriptR |    00045A08  A$ScriptR
     00045A08  C$ScriptR |    00045A0B  A$ScriptR |    00045A0C  A$ScriptR
     00045A0E  A$ScriptR |    00045A0F  A$ScriptR |    00045A10  A$ScriptR
     00045A10  C$ScriptR |    00045A13  A$ScriptR |    00045A14  A$ScriptR
     00045A15  A$ScriptR |    00045A16  A$ScriptR |    00045A17  A$ScriptR
     00045A18  A$ScriptR |    00045A1A  A$ScriptR |    00045A1B  A$ScriptR
     00045A1D  A$ScriptR |    00045A1F  A$ScriptR |    00045A21  A$ScriptR
     00045A23  A$ScriptR |    00045A24  A$ScriptR |    00045A26  A$ScriptR
     00045A28  A$ScriptR |    00045A2A  A$ScriptR |    00045A2B  A$ScriptR
     00045A2D  A$ScriptR |    00045A2F  A$ScriptR |    00045A31  A$ScriptR
     00045A33  A$ScriptR |    00045A34  A$ScriptR |    00045A35  A$ScriptR
     00045A36  A$ScriptR |    00045A38  A$ScriptR |    00045A39  A$ScriptR
     00045A3B  A$ScriptR |    00045A3C  A$ScriptR |    00045A3D  A$ScriptR
ASxxxx Linker V03.00 + NoICE + sdld,  page 150.
Hexadecimal  [32-Bits]

Area                       Addr        Size        Decimal Bytes (Attributes)
--------------------       ----        ----        ------- ----- ------------
_CODE_4                00044000    00002CEA =       11498. bytes (REL,CON)

        Value  Global            Value  Global            Value  Global    
        -----  ------            -----  ------            -----  ------    
     00045A3F  A$ScriptR |    00045A40  A$ScriptR |    00045A43  A$ScriptR
     00045A43  C$ScriptR |    00045A46  A$ScriptR |    00045A47  A$ScriptR
     00045A48  A$ScriptR |    00045A49  A$ScriptR |    00045A4A  A$ScriptR
     00045A4A  C$ScriptR |    00045A4B  A$ScriptR |    00045A4B  C$ScriptR
     00045A4D  A$ScriptR |    00045A4F  A$ScriptR |    00045A52  A$ScriptR
     00045A54  A$ScriptR |    00045A55  A$ScriptR |    00045A57  A$ScriptR
     00045A5A  A$ScriptR |    00045A5C  A$ScriptR |    00045A5F  A$ScriptR
     00045A60  A$ScriptR |    00045A63  A$ScriptR |    00045A63  C$ScriptR
     00045A66  A$ScriptR |    00045A67  A$ScriptR |    00045A69  A$ScriptR
     00045A6A  A$ScriptR |    00045A6B  A$ScriptR |    00045A6B  C$ScriptR
     00045A6E  A$ScriptR |    00045A6F  A$ScriptR |    00045A70  A$ScriptR
     00045A71  A$ScriptR |    00045A72  A$ScriptR |    00045A73  A$ScriptR
     00045A74  A$ScriptR |    00045A75  A$ScriptR |    00045A76  A$ScriptR
     00045A78  A$ScriptR |    00045A79  A$ScriptR |    00045A7A  A$ScriptR
     00045A7C  A$ScriptR |    00045A7D  A$ScriptR |    00045A80  A$ScriptR
     00045A81  A$ScriptR |    00045A82  A$ScriptR |    00045A83  A$ScriptR
     00045A84  A$ScriptR |    00045A85  A$ScriptR |    00045A86  A$ScriptR
     00045A88  A$ScriptR |    00045A89  A$ScriptR |    00045A8A  A$ScriptR
     00045A8D  A$ScriptR |    00045A8E  A$ScriptR |    00045A8F  A$ScriptR
     00045A90  A$ScriptR |    00045A91  A$ScriptR |    00045A92  A$ScriptR
     00045A92  C$ScriptR |    00045A95  A$ScriptR |    00045A97  A$ScriptR
     00045A98  A$ScriptR |    00045A9A  A$ScriptR |    00045A9A  C$ScriptR
     00045A9D  A$ScriptR |    00045A9D  C$ScriptR |    00045AA0  A$ScriptR
     00045AA1  A$ScriptR |    00045AA2  A$ScriptR |    00045AA3  A$ScriptR
     00045AA5  A$ScriptR |    00045AA6  A$ScriptR |    00045AA7  A$ScriptR
     00045AA8  A$ScriptR |    00045AAB  A$ScriptR |    00045AAC  A$ScriptR
     00045AAD  A$ScriptR |    00045AAE  A$ScriptR |    00045AAF  A$ScriptR
     00045AB0  A$ScriptR |    00045AB1  A$ScriptR |    00045AB2  A$ScriptR
     00045AB4  A$ScriptR |    00045AB5  A$ScriptR |    00045AB6  A$ScriptR
     00045AB7  A$ScriptR |    00045AB8  A$ScriptR |    00045AB9  A$ScriptR
     00045ABA  A$ScriptR |    00045ABA  C$ScriptR |    00045ABB  A$ScriptR
     00045ABC  A$ScriptR |    00045ABE  A$ScriptR |    00045ABF  A$ScriptR
     00045AC1  A$ScriptR |    00045AC3  A$ScriptR |    00045AC3  C$ScriptR
     00045AC4  A$ScriptR |    00045AC5  A$ScriptR |    00045AC6  A$ScriptR
     00045AC9  A$ScriptR |    00045ACB  A$ScriptR |    00045ACB  C$ScriptR
     00045ACD  A$ScriptR |    00045ACE  A$ScriptR |    00045ACF  A$ScriptR
     00045AD2  A$ScriptR |    00045AD3  A$ScriptR |    00045AD3  C$ScriptR
     00045AD6  A$ScriptR |    00045AD8  A$ScriptR |    00045AD9  A$ScriptR
     00045ADB  A$ScriptR |    00045ADB  C$ScriptR |    00045ADE  A$ScriptR
     00045AE0  A$ScriptR |    00045AE2  A$ScriptR |    00045AE2  C$ScriptR
     00045AE2  XG$Script |    00045AE3  A$ScriptR |    00045AE3  C$ScriptR
     00045AE3  C$ScriptR |    00045AE3  G$Script_ |    00045AE3  _Script_C
     00045AE6  A$ScriptR |    00045AE8  A$ScriptR |    00045AE8  C$ScriptR
     00045AEB  A$ScriptR |    00045AED  A$ScriptR |    00045AEE  A$ScriptR
     00045AF0  A$ScriptR |    00045AF0  C$ScriptR |    00045AF3  A$ScriptR
     00045AF5  A$ScriptR |    00045AF5  C$ScriptR |    00045AF6  A$ScriptR
     00045AF8  A$ScriptR |    00045AF8  C$ScriptR |    00045AF8  XG$Script
     00045AF9  A$ScriptR |    00045AF9  C$ScriptR |    00045AF9  C$ScriptR
     00045AF9  G$Script_ |    00045AF9  _Script_I |    00045AFC  A$ScriptR
     00045AFE  A$ScriptR |    00045AFE  C$ScriptR |    00045B01  A$ScriptR
     00045B03  A$ScriptR |    00045B04  A$ScriptR |    00045B06  A$ScriptR
ASxxxx Linker V03.00 + NoICE + sdld,  page 151.
Hexadecimal  [32-Bits]

Area                       Addr        Size        Decimal Bytes (Attributes)
--------------------       ----        ----        ------- ----- ------------
_CODE_4                00044000    00002CEA =       11498. bytes (REL,CON)

        Value  Global            Value  Global            Value  Global    
        -----  ------            -----  ------            -----  ------    
     00045B06  C$ScriptR |    00045B09  A$ScriptR |    00045B0A  A$ScriptR
     00045B0C  A$ScriptR |    00045B0E  A$ScriptR |    00045B0F  A$ScriptR
     00045B0F  C$ScriptR |    00045B12  A$ScriptR |    00045B14  A$ScriptR
     00045B14  C$ScriptR |    00045B15  A$ScriptR |    00045B16  A$ScriptR
     00045B16  C$ScriptR |    00045B19  A$ScriptR |    00045B1A  A$ScriptR
     00045B1B  A$ScriptR |    00045B1C  A$ScriptR |    00045B1F  A$ScriptR
     00045B20  A$ScriptR |    00045B21  A$ScriptR |    00045B23  A$ScriptR
     00045B24  A$ScriptR |    00045B25  A$ScriptR |    00045B26  A$ScriptR
     00045B27  A$ScriptR |    00045B28  A$ScriptR |    00045B29  A$ScriptR
     00045B2A  A$ScriptR |    00045B2C  A$ScriptR |    00045B2D  A$ScriptR
     00045B2E  A$ScriptR |    00045B31  A$ScriptR |    00045B32  A$ScriptR
     00045B33  A$ScriptR |    00045B34  A$ScriptR |    00045B34  C$ScriptR
     00045B34  XG$Script |    00045B35  A$ScriptR |    00045B35  C$ScriptR
     00045B35  G$Script_ |    00045B35  _Script_I |    00045B36  A$ScriptR
     00045B36  C$ScriptR |    00045B39  A$ScriptR |    00045B3C  A$ScriptR
     00045B3D  A$ScriptR |    00045B3F  A$ScriptR |    00045B40  A$ScriptR
     00045B41  A$ScriptR |    00045B42  A$ScriptR |    00045B43  A$ScriptR
     00045B44  A$ScriptR |    00045B45  A$ScriptR |    00045B46  A$ScriptR
     00045B47  A$ScriptR |    00045B48  A$ScriptR |    00045B49  A$ScriptR
     00045B4A  A$ScriptR |    00045B4B  A$ScriptR |    00045B4C  A$ScriptR
     00045B4F  A$ScriptR |    00045B50  A$ScriptR |    00045B51  A$ScriptR
     00045B53  A$ScriptR |    00045B54  A$ScriptR |    00045B56  A$ScriptR
     00045B57  A$ScriptR |    00045B58  A$ScriptR |    00045B5A  A$ScriptR
     00045B5D  A$ScriptR |    00045B5F  A$ScriptR |    00045B61  A$ScriptR
     00045B61  C$ScriptR |    00045B63  A$ScriptR |    00045B64  A$ScriptR
     00045B65  A$ScriptR |    00045B67  A$ScriptR |    00045B6A  A$ScriptR
     00045B6C  A$ScriptR |    00045B6E  A$ScriptR |    00045B6E  C$ScriptR
     00045B71  A$ScriptR |    00045B72  A$ScriptR |    00045B73  A$ScriptR
     00045B74  A$ScriptR |    00045B75  A$ScriptR |    00045B77  A$ScriptR
     00045B7A  A$ScriptR |    00045B7B  A$ScriptR |    00045B7D  A$ScriptR
     00045B7D  C$ScriptR |    00045B7E  A$ScriptR |    00045B80  A$ScriptR
     00045B80  C$ScriptR |    00045B83  A$ScriptR |    00045B85  A$ScriptR
     00045B87  A$ScriptR |    00045B87  C$ScriptR |    00045B8A  A$ScriptR
     00045B8B  A$ScriptR |    00045B8C  A$ScriptR |    00045B8D  A$ScriptR
     00045B90  A$ScriptR |    00045B91  A$ScriptR |    00045B93  A$ScriptR
     00045B94  A$ScriptR |    00045B95  A$ScriptR |    00045B96  A$ScriptR
     00045B99  A$ScriptR |    00045B9A  A$ScriptR |    00045B9B  A$ScriptR
     00045B9D  A$ScriptR |    00045B9E  A$ScriptR |    00045B9F  A$ScriptR
     00045BA2  A$ScriptR |    00045BA3  A$ScriptR |    00045BA4  A$ScriptR
     00045BA5  A$ScriptR |    00045BA6  A$ScriptR |    00045BA6  C$ScriptR
     00045BA6  XG$Script |    00045BA7  A$ScriptR |    00045BA7  C$ScriptR
     00045BA7  G$Script_ |    00045BA7  _Script_I |    00045BAA  A$ScriptR
     00045BAB  A$ScriptR |    00045BAB  C$ScriptR |    00045BAE  A$ScriptR
     00045BAE  C$ScriptR |    00045BAE  C$ScriptR |    00045BAF  A$ScriptR
     00045BB0  A$ScriptR |    00045BB2  A$ScriptR |    00045BB2  C$ScriptR
     00045BB3  A$ScriptR |    00045BB4  A$ScriptR |    00045BB6  A$ScriptR
     00045BB7  A$ScriptR |    00045BB8  A$ScriptR |    00045BB9  A$ScriptR
     00045BBA  A$ScriptR |    00045BBB  A$ScriptR |    00045BBC  A$ScriptR
     00045BBD  A$ScriptR |    00045BBE  A$ScriptR |    00045BBF  A$ScriptR
     00045BC0  A$ScriptR |    00045BC3  A$ScriptR |    00045BC4  A$ScriptR
     00045BC5  A$ScriptR |    00045BC6  A$ScriptR |    00045BC7  A$ScriptR
ASxxxx Linker V03.00 + NoICE + sdld,  page 152.
Hexadecimal  [32-Bits]

Area                       Addr        Size        Decimal Bytes (Attributes)
--------------------       ----        ----        ------- ----- ------------
_CODE_4                00044000    00002CEA =       11498. bytes (REL,CON)

        Value  Global            Value  Global            Value  Global    
        -----  ------            -----  ------            -----  ------    
     00045BC8  A$ScriptR |    00045BC9  A$ScriptR |    00045BCC  A$ScriptR
     00045BCD  A$ScriptR |    00045BCF  A$ScriptR |    00045BD0  A$ScriptR
     00045BD1  A$ScriptR |    00045BD2  A$ScriptR |    00045BD3  A$ScriptR
     00045BD4  A$ScriptR |    00045BD5  A$ScriptR |    00045BD6  A$ScriptR
     00045BD7  A$ScriptR |    00045BD8  A$ScriptR |    00045BD9  A$ScriptR
     00045BDC  A$ScriptR |    00045BDD  A$ScriptR |    00045BDE  A$ScriptR
     00045BDF  A$ScriptR |    00045BE0  A$ScriptR |    00045BE1  A$ScriptR
     00045BE2  A$ScriptR |    00045BE3  A$ScriptR |    00045BE4  A$ScriptR
     00045BE7  A$ScriptR |    00045BE9  A$ScriptR |    00045BEA  A$ScriptR
     00045BEB  A$ScriptR |    00045BEC  A$ScriptR |    00045BEC  C$ScriptR
     00045BEF  A$ScriptR |    00045BF0  A$ScriptR |    00045BF1  A$ScriptR
     00045BF2  A$ScriptR |    00045BF5  A$ScriptR |    00045BF6  A$ScriptR
     00045BF8  A$ScriptR |    00045BF9  A$ScriptR |    00045BFA  A$ScriptR
     00045BFB  A$ScriptR |    00045BFC  A$ScriptR |    00045BFD  A$ScriptR
     00045C00  A$ScriptR |    00045C01  A$ScriptR |    00045C02  A$ScriptR
     00045C04  A$ScriptR |    00045C05  A$ScriptR |    00045C06  A$ScriptR
     00045C09  A$ScriptR |    00045C0A  A$ScriptR |    00045C0B  A$ScriptR
     00045C0C  A$ScriptR |    00045C0D  A$ScriptR |    00045C0D  C$ScriptR
     00045C0E  A$ScriptR |    00045C0F  A$ScriptR |    00045C11  A$ScriptR
     00045C11  C$ScriptR |    00045C12  A$ScriptR |    00045C13  A$ScriptR
     00045C15  A$ScriptR |    00045C16  A$ScriptR |    00045C17  A$ScriptR
     00045C18  A$ScriptR |    00045C19  A$ScriptR |    00045C1A  A$ScriptR
     00045C1B  A$ScriptR |    00045C1C  A$ScriptR |    00045C1D  A$ScriptR
     00045C1E  A$ScriptR |    00045C1F  A$ScriptR |    00045C22  A$ScriptR
     00045C23  A$ScriptR |    00045C24  A$ScriptR |    00045C25  A$ScriptR
     00045C26  A$ScriptR |    00045C27  A$ScriptR |    00045C28  A$ScriptR
     00045C2B  A$ScriptR |    00045C2C  A$ScriptR |    00045C2E  A$ScriptR
     00045C2F  A$ScriptR |    00045C30  A$ScriptR |    00045C31  A$ScriptR
     00045C32  A$ScriptR |    00045C33  A$ScriptR |    00045C34  A$ScriptR
     00045C35  A$ScriptR |    00045C36  A$ScriptR |    00045C37  A$ScriptR
     00045C38  A$ScriptR |    00045C3B  A$ScriptR |    00045C3C  A$ScriptR
     00045C3D  A$ScriptR |    00045C3E  A$ScriptR |    00045C3F  A$ScriptR
     00045C40  A$ScriptR |    00045C41  A$ScriptR |    00045C42  A$ScriptR
     00045C43  A$ScriptR |    00045C46  A$ScriptR |    00045C48  A$ScriptR
     00045C49  A$ScriptR |    00045C4A  A$ScriptR |    00045C4B  A$ScriptR
     00045C4B  C$ScriptR |    00045C4E  A$ScriptR |    00045C4F  A$ScriptR
     00045C50  A$ScriptR |    00045C51  A$ScriptR |    00045C54  A$ScriptR
     00045C55  A$ScriptR |    00045C57  A$ScriptR |    00045C58  A$ScriptR
     00045C59  A$ScriptR |    00045C5A  A$ScriptR |    00045C5B  A$ScriptR
     00045C5C  A$ScriptR |    00045C5F  A$ScriptR |    00045C60  A$ScriptR
     00045C61  A$ScriptR |    00045C63  A$ScriptR |    00045C64  A$ScriptR
     00045C65  A$ScriptR |    00045C68  A$ScriptR |    00045C69  A$ScriptR
     00045C6A  A$ScriptR |    00045C6B  A$ScriptR |    00045C6C  A$ScriptR
     00045C6C  C$ScriptR |    00045C6D  A$ScriptR |    00045C6F  A$ScriptR
     00045C71  A$ScriptR |    00045C71  C$ScriptR |    00045C72  A$ScriptR
     00045C73  A$ScriptR |    00045C75  A$ScriptR |    00045C76  A$ScriptR
     00045C77  A$ScriptR |    00045C78  A$ScriptR |    00045C79  A$ScriptR
     00045C7A  A$ScriptR |    00045C7B  A$ScriptR |    00045C7C  A$ScriptR
     00045C7D  A$ScriptR |    00045C7E  A$ScriptR |    00045C7F  A$ScriptR
     00045C82  A$ScriptR |    00045C83  A$ScriptR |    00045C84  A$ScriptR
     00045C85  A$ScriptR |    00045C86  A$ScriptR |    00045C89  A$ScriptR
ASxxxx Linker V03.00 + NoICE + sdld,  page 153.
Hexadecimal  [32-Bits]

Area                       Addr        Size        Decimal Bytes (Attributes)
--------------------       ----        ----        ------- ----- ------------
_CODE_4                00044000    00002CEA =       11498. bytes (REL,CON)

        Value  Global            Value  Global            Value  Global    
        -----  ------            -----  ------            -----  ------    
     00045C8A  A$ScriptR |    00045C8C  A$ScriptR |    00045C8D  A$ScriptR
     00045C8E  A$ScriptR |    00045C8F  A$ScriptR |    00045C90  A$ScriptR
     00045C91  A$ScriptR |    00045C92  A$ScriptR |    00045C93  A$ScriptR
     00045C94  A$ScriptR |    00045C95  A$ScriptR |    00045C96  A$ScriptR
     00045C99  A$ScriptR |    00045C9A  A$ScriptR |    00045C9B  A$ScriptR
     00045C9C  A$ScriptR |    00045C9D  A$ScriptR |    00045C9E  A$ScriptR
     00045C9F  A$ScriptR |    00045CA2  A$ScriptR |    00045CA4  A$ScriptR
     00045CA5  A$ScriptR |    00045CA6  A$ScriptR |    00045CA7  A$ScriptR
     00045CA7  C$ScriptR |    00045CAA  A$ScriptR |    00045CAB  A$ScriptR
     00045CAC  A$ScriptR |    00045CAD  A$ScriptR |    00045CB0  A$ScriptR
     00045CB1  A$ScriptR |    00045CB3  A$ScriptR |    00045CB4  A$ScriptR
     00045CB5  A$ScriptR |    00045CB6  A$ScriptR |    00045CB7  A$ScriptR
     00045CB8  A$ScriptR |    00045CBB  A$ScriptR |    00045CBC  A$ScriptR
     00045CBD  A$ScriptR |    00045CBF  A$ScriptR |    00045CC0  A$ScriptR
     00045CC1  A$ScriptR |    00045CC4  A$ScriptR |    00045CC5  A$ScriptR
     00045CC6  A$ScriptR |    00045CC7  A$ScriptR |    00045CC8  A$ScriptR
     00045CC8  C$ScriptR |    00045CC9  A$ScriptR |    00045CCB  A$ScriptR
     00045CCC  A$ScriptR |    00045CCC  C$ScriptR |    00045CCD  A$ScriptR
     00045CCE  A$ScriptR |    00045CD0  A$ScriptR |    00045CD1  A$ScriptR
     00045CD2  A$ScriptR |    00045CD3  A$ScriptR |    00045CD4  A$ScriptR
     00045CD5  A$ScriptR |    00045CD6  A$ScriptR |    00045CD7  A$ScriptR
     00045CD8  A$ScriptR |    00045CD9  A$ScriptR |    00045CDA  A$ScriptR
     00045CDD  A$ScriptR |    00045CDE  A$ScriptR |    00045CDF  A$ScriptR
     00045CE0  A$ScriptR |    00045CE1  A$ScriptR |    00045CE4  A$ScriptR
     00045CE5  A$ScriptR |    00045CE7  A$ScriptR |    00045CE8  A$ScriptR
     00045CE9  A$ScriptR |    00045CEA  A$ScriptR |    00045CEB  A$ScriptR
     00045CEC  A$ScriptR |    00045CED  A$ScriptR |    00045CEE  A$ScriptR
     00045CEF  A$ScriptR |    00045CF0  A$ScriptR |    00045CF1  A$ScriptR
     00045CF4  A$ScriptR |    00045CF5  A$ScriptR |    00045CF6  A$ScriptR
     00045CF7  A$ScriptR |    00045CF8  A$ScriptR |    00045CF9  A$ScriptR
     00045CFA  A$ScriptR |    00045CFD  A$ScriptR |    00045CFF  A$ScriptR
     00045D00  A$ScriptR |    00045D01  A$ScriptR |    00045D02  A$ScriptR
     00045D02  C$ScriptR |    00045D05  A$ScriptR |    00045D06  A$ScriptR
     00045D07  A$ScriptR |    00045D08  A$ScriptR |    00045D0B  A$ScriptR
     00045D0C  A$ScriptR |    00045D0E  A$ScriptR |    00045D0F  A$ScriptR
     00045D10  A$ScriptR |    00045D11  A$ScriptR |    00045D12  A$ScriptR
     00045D13  A$ScriptR |    00045D16  A$ScriptR |    00045D17  A$ScriptR
     00045D18  A$ScriptR |    00045D1A  A$ScriptR |    00045D1B  A$ScriptR
     00045D1C  A$ScriptR |    00045D1F  A$ScriptR |    00045D20  A$ScriptR
     00045D21  A$ScriptR |    00045D22  A$ScriptR |    00045D22  C$ScriptR
     00045D22  XG$Script |    00045D23  A$ScriptR |    00045D23  C$ScriptR
     00045D23  G$Script_ |    00045D23  _Script_S |    00045D24  A$ScriptR
     00045D24  C$ScriptR |    00045D27  A$ScriptR |    00045D28  A$ScriptR
     00045D2A  A$ScriptR |    00045D2D  A$ScriptR |    00045D2E  A$ScriptR
     00045D30  A$ScriptR |    00045D31  A$ScriptR |    00045D31  C$ScriptR
     00045D32  A$ScriptR |    00045D35  A$ScriptR |    00045D36  A$ScriptR
     00045D36  C$ScriptR |    00045D39  A$ScriptR |    00045D3B  A$ScriptR
     00045D3C  A$ScriptR |    00045D3C  C$ScriptR |    00045D3F  A$ScriptR
     00045D40  A$ScriptR |    00045D41  A$ScriptR |    00045D41  C$ScriptR
     00045D44  A$ScriptR |    00045D45  A$ScriptR |    00045D46  A$ScriptR
     00045D47  A$ScriptR |    00045D4A  A$ScriptR |    00045D4C  A$ScriptR
ASxxxx Linker V03.00 + NoICE + sdld,  page 154.
Hexadecimal  [32-Bits]

Area                       Addr        Size        Decimal Bytes (Attributes)
--------------------       ----        ----        ------- ----- ------------
_CODE_4                00044000    00002CEA =       11498. bytes (REL,CON)

        Value  Global            Value  Global            Value  Global    
        -----  ------            -----  ------            -----  ------    
     00045D4D  A$ScriptR |    00045D4E  A$ScriptR |    00045D50  A$ScriptR
     00045D51  A$ScriptR |    00045D52  A$ScriptR |    00045D53  A$ScriptR
     00045D53  C$ScriptR |    00045D53  XG$Script |    00045D54  A$ScriptR
     00045D54  C$ScriptR |    00045D54  C$ScriptR |    00045D54  G$Script_
     00045D54  _Script_A |    00045D57  A$ScriptR |    00045D58  A$ScriptR
     00045D59  A$ScriptR |    00045D5B  A$ScriptR |    00045D5C  A$ScriptR
     00045D5D  A$ScriptR |    00045D5F  A$ScriptR |    00045D60  A$ScriptR
     00045D63  A$ScriptR |    00045D64  A$ScriptR |    00045D66  A$ScriptR
     00045D67  A$ScriptR |    00045D68  A$ScriptR |    00045D69  A$ScriptR
     00045D6A  A$ScriptR |    00045D6B  A$ScriptR |    00045D6C  A$ScriptR
     00045D6D  A$ScriptR |    00045D6E  A$ScriptR |    00045D6F  A$ScriptR
     00045D70  A$ScriptR |    00045D73  A$ScriptR |    00045D74  A$ScriptR
     00045D75  A$ScriptR |    00045D76  A$ScriptR |    00045D77  A$ScriptR
     00045D79  A$ScriptR |    00045D7B  A$ScriptR |    00045D7D  A$ScriptR
     00045D7F  A$ScriptR |    00045D81  A$ScriptR |    00045D83  A$ScriptR
     00045D84  A$ScriptR |    00045D85  A$ScriptR |    00045D85  C$ScriptR
     00045D88  A$ScriptR |    00045D89  A$ScriptR |    00045D8A  A$ScriptR
     00045D8C  A$ScriptR |    00045D8D  A$ScriptR |    00045D8E  A$ScriptR
     00045D90  A$ScriptR |    00045D91  A$ScriptR |    00045D94  A$ScriptR
     00045D95  A$ScriptR |    00045D97  A$ScriptR |    00045D98  A$ScriptR
     00045D99  A$ScriptR |    00045D9A  A$ScriptR |    00045D9B  A$ScriptR
     00045D9C  A$ScriptR |    00045D9D  A$ScriptR |    00045D9E  A$ScriptR
     00045D9F  A$ScriptR |    00045DA0  A$ScriptR |    00045DA1  A$ScriptR
     00045DA4  A$ScriptR |    00045DA5  A$ScriptR |    00045DA6  A$ScriptR
     00045DA7  A$ScriptR |    00045DA8  A$ScriptR |    00045DA9  A$ScriptR
     00045DAA  A$ScriptR |    00045DAC  A$ScriptR |    00045DAE  A$ScriptR
     00045DB0  A$ScriptR |    00045DB2  A$ScriptR |    00045DB4  A$ScriptR
     00045DB6  A$ScriptR |    00045DB7  A$ScriptR |    00045DB8  A$ScriptR
     00045DB8  C$ScriptR |    00045DB8  XG$Script |    00045DB9  A$ScriptR
     00045DB9  C$ScriptR |    00045DB9  C$ScriptR |    00045DB9  G$Script_
     00045DB9  _Script_A |    00045DBC  A$ScriptR |    00045DBD  A$ScriptR
     00045DBF  A$ScriptR |    00045DC0  A$ScriptR |    00045DC1  A$ScriptR
     00045DC2  A$ScriptR |    00045DC3  A$ScriptR |    00045DC4  A$ScriptR
     00045DC5  A$ScriptR |    00045DC6  A$ScriptR |    00045DC7  A$ScriptR
     00045DC8  A$ScriptR |    00045DC9  A$ScriptR |    00045DCC  A$ScriptR
     00045DCD  A$ScriptR |    00045DCE  A$ScriptR |    00045DCF  A$ScriptR
     00045DD0  A$ScriptR |    00045DD0  C$ScriptR |    00045DD3  A$ScriptR
     00045DD4  A$ScriptR |    00045DD6  A$ScriptR |    00045DD7  A$ScriptR
     00045DD8  A$ScriptR |    00045DD9  A$ScriptR |    00045DDA  A$ScriptR
     00045DDB  A$ScriptR |    00045DDC  A$ScriptR |    00045DDD  A$ScriptR
     00045DDE  A$ScriptR |    00045DDF  A$ScriptR |    00045DE0  A$ScriptR
     00045DE2  A$ScriptR |    00045DE3  A$ScriptR |    00045DE4  A$ScriptR
     00045DE6  A$ScriptR |    00045DE7  A$ScriptR |    00045DE8  A$ScriptR
     00045DEB  A$ScriptR |    00045DEC  A$ScriptR |    00045DED  A$ScriptR
     00045DEE  A$ScriptR |    00045DF1  A$ScriptR |    00045DF2  A$ScriptR
     00045DF3  A$ScriptR |    00045DF5  A$ScriptR |    00045DF6  A$ScriptR
     00045DF7  A$ScriptR |    00045DF8  A$ScriptR |    00045DF9  A$ScriptR
     00045DFA  A$ScriptR |    00045DFB  A$ScriptR |    00045DFC  A$ScriptR
     00045DFD  A$ScriptR |    00045DFE  A$ScriptR |    00045DFF  A$ScriptR
     00045DFF  C$ScriptR |    00045E02  A$ScriptR |    00045E03  A$ScriptR
     00045E05  A$ScriptR |    00045E06  A$ScriptR |    00045E07  A$ScriptR
ASxxxx Linker V03.00 + NoICE + sdld,  page 155.
Hexadecimal  [32-Bits]

Area                       Addr        Size        Decimal Bytes (Attributes)
--------------------       ----        ----        ------- ----- ------------
_CODE_4                00044000    00002CEA =       11498. bytes (REL,CON)

        Value  Global            Value  Global            Value  Global    
        -----  ------            -----  ------            -----  ------    
     00045E08  A$ScriptR |    00045E09  A$ScriptR |    00045E0A  A$ScriptR
     00045E0B  A$ScriptR |    00045E0C  A$ScriptR |    00045E0D  A$ScriptR
     00045E0E  A$ScriptR |    00045E0F  A$ScriptR |    00045E12  A$ScriptR
     00045E13  A$ScriptR |    00045E14  A$ScriptR |    00045E15  A$ScriptR
     00045E16  A$ScriptR |    00045E17  A$ScriptR |    00045E18  A$ScriptR
     00045E18  C$ScriptR |    00045E1B  A$ScriptR |    00045E1C  A$ScriptR
     00045E1E  A$ScriptR |    00045E1F  A$ScriptR |    00045E20  A$ScriptR
     00045E21  A$ScriptR |    00045E22  A$ScriptR |    00045E23  A$ScriptR
     00045E24  A$ScriptR |    00045E25  A$ScriptR |    00045E26  A$ScriptR
     00045E27  A$ScriptR |    00045E28  A$ScriptR |    00045E2B  A$ScriptR
     00045E2C  A$ScriptR |    00045E2D  A$ScriptR |    00045E2E  A$ScriptR
     00045E2F  A$ScriptR |    00045E30  A$ScriptR |    00045E33  A$ScriptR
     00045E34  A$ScriptR |    00045E35  A$ScriptR |    00045E36  A$ScriptR
     00045E39  A$ScriptR |    00045E3A  A$ScriptR |    00045E3B  A$ScriptR
     00045E3D  A$ScriptR |    00045E3E  A$ScriptR |    00045E3F  A$ScriptR
     00045E40  A$ScriptR |    00045E41  A$ScriptR |    00045E42  A$ScriptR
     00045E43  A$ScriptR |    00045E44  A$ScriptR |    00045E45  A$ScriptR
     00045E46  A$ScriptR |    00045E47  A$ScriptR |    00045E47  C$ScriptR
     00045E47  XG$Script |    00045E48  A$ScriptR |    00045E48  C$ScriptR
     00045E48  C$ScriptR |    00045E48  G$Script_ |    00045E48  _Script_A
     00045E4B  A$ScriptR |    00045E4E  A$ScriptR |    00045E4F  A$ScriptR
     00045E51  A$ScriptR |    00045E52  A$ScriptR |    00045E53  A$ScriptR
     00045E54  A$ScriptR |    00045E55  A$ScriptR |    00045E56  A$ScriptR
     00045E57  A$ScriptR |    00045E58  A$ScriptR |    00045E59  A$ScriptR
     00045E5A  A$ScriptR |    00045E5B  A$ScriptR |    00045E5C  A$ScriptR
     00045E5D  A$ScriptR |    00045E5E  A$ScriptR |    00045E61  A$ScriptR
     00045E62  A$ScriptR |    00045E63  A$ScriptR |    00045E63  C$ScriptR
     00045E66  A$ScriptR |    00045E67  A$ScriptR |    00045E69  A$ScriptR
     00045E6A  A$ScriptR |    00045E6B  A$ScriptR |    00045E6C  A$ScriptR
     00045E6D  A$ScriptR |    00045E6E  A$ScriptR |    00045E6F  A$ScriptR
     00045E70  A$ScriptR |    00045E71  A$ScriptR |    00045E72  A$ScriptR
     00045E73  A$ScriptR |    00045E74  A$ScriptR |    00045E77  A$ScriptR
     00045E78  A$ScriptR |    00045E79  A$ScriptR |    00045E7A  A$ScriptR
     00045E7A  C$ScriptR |    00045E7B  A$ScriptR |    00045E7B  C$ScriptR
     00045E7E  A$ScriptR |    00045E7F  A$ScriptR |    00045E81  A$ScriptR
     00045E81  C$ScriptR |    00045E82  A$ScriptR |    00045E84  A$ScriptR
     00045E85  A$ScriptR |    00045E85  C$ScriptR |    00045E88  A$ScriptR
     00045E89  A$ScriptR |    00045E8A  A$ScriptR |    00045E8B  A$ScriptR
     00045E8B  C$ScriptR |    00045E8E  A$ScriptR |    00045E8F  A$ScriptR
     00045E90  A$ScriptR |    00045E91  A$ScriptR |    00045E94  A$ScriptR
     00045E95  A$ScriptR |    00045E96  A$ScriptR |    00045E98  A$ScriptR
     00045E99  A$ScriptR |    00045E9A  A$ScriptR |    00045E9B  A$ScriptR
     00045E9C  A$ScriptR |    00045E9D  A$ScriptR |    00045EA0  A$ScriptR
     00045EA1  A$ScriptR |    00045EA2  A$ScriptR |    00045EA3  A$ScriptR
     00045EA3  C$ScriptR |    00045EA6  A$ScriptR |    00045EA7  A$ScriptR
     00045EA8  A$ScriptR |    00045EA9  A$ScriptR |    00045EA9  C$ScriptR
     00045EAC  A$ScriptR |    00045EAD  A$ScriptR |    00045EAE  A$ScriptR
     00045EAF  A$ScriptR |    00045EB2  A$ScriptR |    00045EB3  A$ScriptR
     00045EB4  A$ScriptR |    00045EB6  A$ScriptR |    00045EB7  A$ScriptR
     00045EB8  A$ScriptR |    00045EB9  A$ScriptR |    00045EBA  A$ScriptR
     00045EBB  A$ScriptR |    00045EBE  A$ScriptR |    00045EBF  A$ScriptR
ASxxxx Linker V03.00 + NoICE + sdld,  page 156.
Hexadecimal  [32-Bits]

Area                       Addr        Size        Decimal Bytes (Attributes)
--------------------       ----        ----        ------- ----- ------------
_CODE_4                00044000    00002CEA =       11498. bytes (REL,CON)

        Value  Global            Value  Global            Value  Global    
        -----  ------            -----  ------            -----  ------    
     00045EC0  A$ScriptR |    00045EC1  A$ScriptR |    00045EC1  C$ScriptR
     00045EC4  A$ScriptR |    00045EC5  A$ScriptR |    00045EC8  A$ScriptR
     00045EC9  A$ScriptR |    00045EC9  C$ScriptR |    00045ECC  A$ScriptR
     00045ECF  A$ScriptR |    00045ECF  C$ScriptR |    00045ED2  A$ScriptR
     00045ED3  A$ScriptR |    00045ED4  A$ScriptR |    00045ED5  A$ScriptR
     00045ED6  A$ScriptR |    00045ED9  A$ScriptR |    00045EDA  A$ScriptR
     00045EDC  A$ScriptR |    00045EDC  C$ScriptR |    00045EDD  A$ScriptR
     00045EDE  A$ScriptR |    00045EE0  A$ScriptR |    00045EE0  C$ScriptR
     00045EE3  A$ScriptR |    00045EE6  A$ScriptR |    00045EE7  A$ScriptR
     00045EE7  C$ScriptR |    00045EE7  C$ScriptR |    00045EE8  A$ScriptR
     00045EEA  A$ScriptR |    00045EEC  A$ScriptR |    00045EEC  C$ScriptR
     00045EEF  A$ScriptR |    00045EF1  A$ScriptR |    00045EF2  A$ScriptR
     00045EF4  A$ScriptR |    00045EF5  A$ScriptR |    00045EF5  C$ScriptR
     00045EF8  A$ScriptR |    00045EFA  A$ScriptR |    00045EFB  A$ScriptR
     00045EFD  A$ScriptR |    00045EFD  C$ScriptR |    00045EFD  XG$Script
     00045EFE  A$ScriptR |    00045EFE  C$ScriptR |    00045EFE  G$Script_
     00045EFE  _Script_A |    00045F00  A$ScriptR |    00045F00  C$ScriptR
     00045F03  A$ScriptR |    00045F06  A$ScriptR |    00045F07  A$ScriptR
     00045F09  A$ScriptR |    00045F0A  A$ScriptR |    00045F0B  A$ScriptR
     00045F0C  A$ScriptR |    00045F0D  A$ScriptR |    00045F0E  A$ScriptR
     00045F0F  A$ScriptR |    00045F10  A$ScriptR |    00045F11  A$ScriptR
     00045F12  A$ScriptR |    00045F13  A$ScriptR |    00045F14  A$ScriptR
     00045F15  A$ScriptR |    00045F16  A$ScriptR |    00045F19  A$ScriptR
     00045F1A  A$ScriptR |    00045F1B  A$ScriptR |    00045F1B  C$ScriptR
     00045F1E  A$ScriptR |    00045F1F  A$ScriptR |    00045F20  A$ScriptR
     00045F21  A$ScriptR |    00045F22  A$ScriptR |    00045F25  A$ScriptR
     00045F26  A$ScriptR |    00045F27  A$ScriptR |    00045F28  A$ScriptR
     00045F28  C$ScriptR |    00045F2B  A$ScriptR |    00045F2B  C$ScriptR
     00045F2E  A$ScriptR |    00045F2F  A$ScriptR |    00045F31  A$ScriptR
     00045F31  C$ScriptR |    00045F32  A$ScriptR |    00045F34  A$ScriptR
     00045F35  A$ScriptR |    00045F35  C$ScriptR |    00045F38  A$ScriptR
     00045F39  A$ScriptR |    00045F3A  A$ScriptR |    00045F3B  A$ScriptR
     00045F3B  C$ScriptR |    00045F3E  A$ScriptR |    00045F3F  A$ScriptR
     00045F40  A$ScriptR |    00045F41  A$ScriptR |    00045F42  A$ScriptR
     00045F43  A$ScriptR |    00045F44  A$ScriptR |    00045F45  A$ScriptR
     00045F46  A$ScriptR |    00045F47  A$ScriptR |    00045F4A  A$ScriptR
     00045F4B  A$ScriptR |    00045F4C  A$ScriptR |    00045F4D  A$ScriptR
     00045F4D  C$ScriptR |    00045F50  A$ScriptR |    00045F52  A$ScriptR
     00045F53  A$ScriptR |    00045F55  A$ScriptR |    00045F56  A$ScriptR
     00045F57  A$ScriptR |    00045F5A  A$ScriptR |    00045F5D  A$ScriptR
     00045F5F  A$ScriptR |    00045F60  A$ScriptR |    00045F60  C$ScriptR
     00045F63  A$ScriptR |    00045F64  A$ScriptR |    00045F66  A$ScriptR
     00045F67  A$ScriptR |    00045F68  A$ScriptR |    00045F69  A$ScriptR
     00045F6A  A$ScriptR |    00045F6C  A$ScriptR |    00045F6D  A$ScriptR
     00045F6F  A$ScriptR |    00045F70  A$ScriptR |    00045F71  A$ScriptR
     00045F72  A$ScriptR |    00045F73  A$ScriptR |    00045F74  A$ScriptR
     00045F75  A$ScriptR |    00045F76  A$ScriptR |    00045F76  C$ScriptR
     00045F78  A$ScriptR |    00045F79  A$ScriptR |    00045F7A  A$ScriptR
     00045F7C  A$ScriptR |    00045F7C  C$ScriptR |    00045F7E  A$ScriptR
     00045F7F  A$ScriptR |    00045F80  A$ScriptR |    00045F81  A$ScriptR
     00045F82  A$ScriptR |    00045F83  A$ScriptR |    00045F84  A$ScriptR
ASxxxx Linker V03.00 + NoICE + sdld,  page 157.
Hexadecimal  [32-Bits]

Area                       Addr        Size        Decimal Bytes (Attributes)
--------------------       ----        ----        ------- ----- ------------
_CODE_4                00044000    00002CEA =       11498. bytes (REL,CON)

        Value  Global            Value  Global            Value  Global    
        -----  ------            -----  ------            -----  ------    
     00045F85  A$ScriptR |    00045F86  A$ScriptR |    00045F87  A$ScriptR
     00045F88  A$ScriptR |    00045F89  A$ScriptR |    00045F8A  A$ScriptR
     00045F8D  A$ScriptR |    00045F8E  A$ScriptR |    00045F8F  A$ScriptR
     00045F90  A$ScriptR |    00045F91  A$ScriptR |    00045F92  A$ScriptR
     00045F93  A$ScriptR |    00045F93  C$ScriptR |    00045F96  A$ScriptR
     00045F97  A$ScriptR |    00045F98  A$ScriptR |    00045F99  A$ScriptR
     00045F9A  A$ScriptR |    00045F9B  A$ScriptR |    00045F9C  A$ScriptR
     00045F9D  A$ScriptR |    00045F9E  A$ScriptR |    00045F9F  A$ScriptR
     00045FA2  A$ScriptR |    00045FA3  A$ScriptR |    00045FA5  A$ScriptR
     00045FA6  A$ScriptR |    00045FA7  A$ScriptR |    00045FA8  A$ScriptR
     00045FA9  A$ScriptR |    00045FAA  A$ScriptR |    00045FAB  A$ScriptR
     00045FAC  A$ScriptR |    00045FAD  A$ScriptR |    00045FAE  A$ScriptR
     00045FAF  A$ScriptR |    00045FB0  A$ScriptR |    00045FB1  A$ScriptR
     00045FB2  A$ScriptR |    00045FB4  A$ScriptR |    00045FB6  A$ScriptR
     00045FB6  C$ScriptR |    00045FB9  A$ScriptR |    00045FBA  A$ScriptR
     00045FBB  A$ScriptR |    00045FBC  A$ScriptR |    00045FBE  A$ScriptR
     00045FBE  C$ScriptR |    00045FC0  A$ScriptR |    00045FC2  A$ScriptR
     00045FC4  A$ScriptR |    00045FC4  C$ScriptR |    00045FC7  A$ScriptR
     00045FC8  A$ScriptR |    00045FC9  A$ScriptR |    00045FCA  A$ScriptR
     00045FCC  A$ScriptR |    00045FCC  C$ScriptR |    00045FCE  A$ScriptR
     00045FCF  A$ScriptR |    00045FD0  A$ScriptR |    00045FD1  A$ScriptR
     00045FD2  A$ScriptR |    00045FD3  A$ScriptR |    00045FD4  A$ScriptR
     00045FD6  A$ScriptR |    00045FD7  A$ScriptR |    00045FD8  A$ScriptR
     00045FDB  A$ScriptR |    00045FDC  A$ScriptR |    00045FDD  A$ScriptR
     00045FDE  A$ScriptR |    00045FDF  A$ScriptR |    00045FE0  A$ScriptR
     00045FE1  A$ScriptR |    00045FE2  A$ScriptR |    00045FE2  C$ScriptR
     00045FE5  A$ScriptR |    00045FE6  A$ScriptR |    00045FE8  A$ScriptR
     00045FE9  A$ScriptR |    00045FEA  A$ScriptR |    00045FEB  A$ScriptR
     00045FED  A$ScriptR |    00045FEE  A$ScriptR |    00045FF0  A$ScriptR
     00045FF1  A$ScriptR |    00045FF2  A$ScriptR |    00045FF3  A$ScriptR
     00045FF4  A$ScriptR |    00045FF5  A$ScriptR |    00045FF7  A$ScriptR
     00045FF7  C$ScriptR |    00045FFA  A$ScriptR |    00045FFB  A$ScriptR
     00045FFC  A$ScriptR |    00045FFD  A$ScriptR |    00045FFD  C$ScriptR
     00046000  A$ScriptR |    00046001  A$ScriptR |    00046002  A$ScriptR
     00046003  A$ScriptR |    00046003  C$ScriptR |    00046006  A$ScriptR
     00046007  A$ScriptR |    00046008  A$ScriptR |    00046009  A$ScriptR
     0004600A  A$ScriptR |    0004600B  A$ScriptR |    0004600C  A$ScriptR
     0004600D  A$ScriptR |    0004600E  A$ScriptR |    0004600F  A$ScriptR
     00046010  A$ScriptR |    00046011  A$ScriptR |    00046014  A$ScriptR
     00046015  A$ScriptR |    00046016  A$ScriptR |    00046017  A$ScriptR
     00046017  C$ScriptR |    0004601A  A$ScriptR |    0004601C  A$ScriptR
     0004601D  A$ScriptR |    0004601F  A$ScriptR |    00046020  A$ScriptR
     00046021  A$ScriptR |    00046024  A$ScriptR |    00046027  A$ScriptR
     00046029  A$ScriptR |    0004602A  A$ScriptR |    0004602A  C$ScriptR
     0004602D  A$ScriptR |    0004602E  A$ScriptR |    00046030  A$ScriptR
     00046031  A$ScriptR |    00046032  A$ScriptR |    00046033  A$ScriptR
     00046034  A$ScriptR |    00046035  A$ScriptR |    00046036  A$ScriptR
     00046037  A$ScriptR |    00046038  A$ScriptR |    00046039  A$ScriptR
     0004603A  A$ScriptR |    0004603B  A$ScriptR |    0004603C  A$ScriptR
     0004603E  A$ScriptR |    0004603F  A$ScriptR |    00046041  A$ScriptR
     00046042  A$ScriptR |    00046044  A$ScriptR |    00046045  A$ScriptR
ASxxxx Linker V03.00 + NoICE + sdld,  page 158.
Hexadecimal  [32-Bits]

Area                       Addr        Size        Decimal Bytes (Attributes)
--------------------       ----        ----        ------- ----- ------------
_CODE_4                00044000    00002CEA =       11498. bytes (REL,CON)

        Value  Global            Value  Global            Value  Global    
        -----  ------            -----  ------            -----  ------    
     00046047  A$ScriptR |    00046047  C$ScriptR |    00046049  A$ScriptR
     0004604A  A$ScriptR |    0004604B  A$ScriptR |    0004604D  A$ScriptR
     0004604D  C$ScriptR |    0004604F  A$ScriptR |    00046050  A$ScriptR
     00046051  A$ScriptR |    00046052  A$ScriptR |    00046053  A$ScriptR
     00046054  A$ScriptR |    00046055  A$ScriptR |    00046056  A$ScriptR
     00046057  A$ScriptR |    00046058  A$ScriptR |    00046059  A$ScriptR
     0004605A  A$ScriptR |    0004605B  A$ScriptR |    0004605D  A$ScriptR
     0004605E  A$ScriptR |    0004605F  A$ScriptR |    00046062  A$ScriptR
     00046063  A$ScriptR |    00046064  A$ScriptR |    00046065  A$ScriptR
     00046066  A$ScriptR |    00046067  A$ScriptR |    00046068  A$ScriptR
     00046068  C$ScriptR |    0004606B  A$ScriptR |    0004606C  A$ScriptR
     0004606D  A$ScriptR |    0004606E  A$ScriptR |    0004606F  A$ScriptR
     00046070  A$ScriptR |    00046071  A$ScriptR |    00046074  A$ScriptR
     00046075  A$ScriptR |    00046076  A$ScriptR |    00046078  A$ScriptR
     00046079  A$ScriptR |    0004607A  A$ScriptR |    0004607B  A$ScriptR
     0004607C  A$ScriptR |    0004607F  A$ScriptR |    00046080  A$ScriptR
     00046081  A$ScriptR |    00046082  A$ScriptR |    00046084  A$ScriptR
     00046085  A$ScriptR |    00046086  A$ScriptR |    00046087  A$ScriptR
     00046088  A$ScriptR |    00046089  A$ScriptR |    0004608A  A$ScriptR
     0004608B  A$ScriptR |    0004608C  A$ScriptR |    0004608D  A$ScriptR
     0004608E  A$ScriptR |    0004608F  A$ScriptR |    00046090  A$ScriptR
     00046092  A$ScriptR |    00046093  A$ScriptR |    00046094  A$ScriptR
     00046096  A$ScriptR |    00046097  A$ScriptR |    00046098  A$ScriptR
     00046099  A$ScriptR |    0004609A  A$ScriptR |    0004609B  A$ScriptR
     0004609C  A$ScriptR |    0004609E  A$ScriptR |    0004609E  C$ScriptR
     000460A1  A$ScriptR |    000460A3  A$ScriptR |    000460A4  A$ScriptR
     000460A6  A$ScriptR |    000460A8  A$ScriptR |    000460A8  C$ScriptR
     000460AA  A$ScriptR |    000460AB  A$ScriptR |    000460AD  A$ScriptR
     000460AE  A$ScriptR |    000460AF  A$ScriptR |    000460B1  A$ScriptR
     000460B3  A$ScriptR |    000460B3  C$ScriptR |    000460B6  A$ScriptR
     000460B8  A$ScriptR |    000460B9  A$ScriptR |    000460BB  A$ScriptR
     000460BD  A$ScriptR |    000460BD  C$ScriptR |    000460BF  A$ScriptR
     000460C0  A$ScriptR |    000460C1  A$ScriptR |    000460C2  A$ScriptR
     000460C4  A$ScriptR |    000460C5  A$ScriptR |    000460C6  A$ScriptR
     000460C7  A$ScriptR |    000460C8  A$ScriptR |    000460C9  A$ScriptR
     000460CA  A$ScriptR |    000460CC  A$ScriptR |    000460CD  A$ScriptR
     000460CE  A$ScriptR |    000460D1  A$ScriptR |    000460D2  A$ScriptR
     000460D3  A$ScriptR |    000460D4  A$ScriptR |    000460D5  A$ScriptR
     000460D6  A$ScriptR |    000460D7  A$ScriptR |    000460D8  A$ScriptR
     000460D8  C$ScriptR |    000460DB  A$ScriptR |    000460DC  A$ScriptR
     000460DE  A$ScriptR |    000460DF  A$ScriptR |    000460E0  A$ScriptR
     000460E1  A$ScriptR |    000460E3  A$ScriptR |    000460E4  A$ScriptR
     000460E6  A$ScriptR |    000460E7  A$ScriptR |    000460E8  A$ScriptR
     000460E9  A$ScriptR |    000460EA  A$ScriptR |    000460EB  A$ScriptR
     000460ED  A$ScriptR |    000460ED  C$ScriptR |    000460F0  A$ScriptR
     000460F1  A$ScriptR |    000460F2  A$ScriptR |    000460F3  A$ScriptR
     000460F3  C$ScriptR |    000460F6  A$ScriptR |    000460F7  A$ScriptR
     000460FA  A$ScriptR |    000460FB  A$ScriptR |    000460FB  C$ScriptR
     000460FE  A$ScriptR |    00046101  A$ScriptR |    00046101  C$ScriptR
     00046104  A$ScriptR |    00046105  A$ScriptR |    00046106  A$ScriptR
     00046107  A$ScriptR |    00046108  A$ScriptR |    0004610B  A$ScriptR
ASxxxx Linker V03.00 + NoICE + sdld,  page 159.
Hexadecimal  [32-Bits]

Area                       Addr        Size        Decimal Bytes (Attributes)
--------------------       ----        ----        ------- ----- ------------
_CODE_4                00044000    00002CEA =       11498. bytes (REL,CON)

        Value  Global            Value  Global            Value  Global    
        -----  ------            -----  ------            -----  ------    
     0004610C  A$ScriptR |    0004610E  A$ScriptR |    0004610E  C$ScriptR
     0004610F  A$ScriptR |    00046110  A$ScriptR |    00046112  A$ScriptR
     00046112  C$ScriptR |    00046115  A$ScriptR |    00046118  A$ScriptR
     00046119  A$ScriptR |    00046119  C$ScriptR |    00046119  C$ScriptR
     0004611A  A$ScriptR |    0004611C  A$ScriptR |    0004611E  A$ScriptR
     0004611E  C$ScriptR |    00046121  A$ScriptR |    00046123  A$ScriptR
     00046124  A$ScriptR |    00046126  A$ScriptR |    00046128  A$ScriptR
     00046128  C$ScriptR |    0004612B  A$ScriptR |    0004612D  A$ScriptR
     0004612E  A$ScriptR |    00046130  A$ScriptR |    00046132  A$ScriptR
     00046132  C$ScriptR |    00046132  XG$Script |    00046133  A$ScriptR
     00046133  C$ScriptR |    00046133  G$Script_ |    00046133  _Script_A
     00046135  A$ScriptR |    00046135  C$ScriptR |    00046138  A$ScriptR
     00046139  A$ScriptR |    0004613B  A$ScriptR |    0004613E  A$ScriptR
     0004613F  A$ScriptR |    0004613F  C$ScriptR |    00046140  A$ScriptR
     00046142  A$ScriptR |    00046143  A$ScriptR |    00046144  A$ScriptR
     00046145  A$ScriptR |    00046146  A$ScriptR |    00046147  A$ScriptR
     00046147  C$ScriptR |    00046148  A$ScriptR |    00046149  A$ScriptR
     0004614B  A$ScriptR |    0004614B  C$ScriptR |    0004614E  A$ScriptR
     0004614F  A$ScriptR |    00046151  A$ScriptR |    00046152  A$ScriptR
     00046153  A$ScriptR |    00046154  A$ScriptR |    00046155  A$ScriptR
     00046156  A$ScriptR |    00046157  A$ScriptR |    00046158  A$ScriptR
     00046159  A$ScriptR |    0004615A  A$ScriptR |    0004615B  A$ScriptR
     0004615C  A$ScriptR |    0004615D  A$ScriptR |    0004615E  A$ScriptR
     00046161  A$ScriptR |    00046162  A$ScriptR |    00046163  A$ScriptR
     00046164  A$ScriptR |    00046165  A$ScriptR |    00046166  A$ScriptR
     00046168  A$ScriptR |    00046169  A$ScriptR |    0004616A  A$ScriptR
     0004616B  A$ScriptR |    0004616C  A$ScriptR |    0004616D  A$ScriptR
     0004616E  A$ScriptR |    0004616F  A$ScriptR |    00046170  A$ScriptR
     00046171  A$ScriptR |    00046172  A$ScriptR |    00046173  A$ScriptR
     00046174  A$ScriptR |    00046175  A$ScriptR |    00046176  A$ScriptR
     00046177  A$ScriptR |    00046178  A$ScriptR |    00046179  A$ScriptR
     0004617B  A$ScriptR |    0004617C  A$ScriptR |    0004617D  A$ScriptR
     0004617E  A$ScriptR |    0004617F  A$ScriptR |    00046180  A$ScriptR
     00046181  A$ScriptR |    00046183  A$ScriptR |    00046183  C$ScriptR
     00046186  A$ScriptR |    00046187  A$ScriptR |    00046189  A$ScriptR
     0004618A  A$ScriptR |    0004618B  A$ScriptR |    0004618C  A$ScriptR
     0004618D  A$ScriptR |    0004618E  A$ScriptR |    0004618F  A$ScriptR
     00046190  A$ScriptR |    00046191  A$ScriptR |    00046192  A$ScriptR
     00046193  A$ScriptR |    00046194  A$ScriptR |    00046195  A$ScriptR
     00046196  A$ScriptR |    00046199  A$ScriptR |    0004619A  A$ScriptR
     0004619B  A$ScriptR |    0004619C  A$ScriptR |    0004619D  A$ScriptR
     0004619E  A$ScriptR |    000461A0  A$ScriptR |    000461A1  A$ScriptR
     000461A2  A$ScriptR |    000461A3  A$ScriptR |    000461A4  A$ScriptR
     000461A5  A$ScriptR |    000461A6  A$ScriptR |    000461A7  A$ScriptR
     000461A8  A$ScriptR |    000461A9  A$ScriptR |    000461AA  A$ScriptR
     000461AB  A$ScriptR |    000461AC  A$ScriptR |    000461AD  A$ScriptR
     000461AE  A$ScriptR |    000461B0  A$ScriptR |    000461B1  A$ScriptR
     000461B2  A$ScriptR |    000461B3  A$ScriptR |    000461B4  A$ScriptR
     000461B5  A$ScriptR |    000461B6  A$ScriptR |    000461B6  C$ScriptR
     000461B9  A$ScriptR |    000461BA  A$ScriptR |    000461BB  A$ScriptR
     000461BC  A$ScriptR |    000461BE  A$ScriptR |    000461C1  A$ScriptR
ASxxxx Linker V03.00 + NoICE + sdld,  page 160.
Hexadecimal  [32-Bits]

Area                       Addr        Size        Decimal Bytes (Attributes)
--------------------       ----        ----        ------- ----- ------------
_CODE_4                00044000    00002CEA =       11498. bytes (REL,CON)

        Value  Global            Value  Global            Value  Global    
        -----  ------            -----  ------            -----  ------    
     000461C2  A$ScriptR |    000461C2  C$ScriptR |    000461C3  A$ScriptR
     000461C5  A$ScriptR |    000461C6  A$ScriptR |    000461C7  A$ScriptR
     000461C8  A$ScriptR |    000461C9  A$ScriptR |    000461CA  A$ScriptR
     000461CA  C$ScriptR |    000461CB  A$ScriptR |    000461CC  A$ScriptR
     000461CE  A$ScriptR |    000461CE  C$ScriptR |    000461D1  A$ScriptR
     000461D2  A$ScriptR |    000461D4  A$ScriptR |    000461D5  A$ScriptR
     000461D6  A$ScriptR |    000461D7  A$ScriptR |    000461D8  A$ScriptR
     000461D9  A$ScriptR |    000461DA  A$ScriptR |    000461DB  A$ScriptR
     000461DC  A$ScriptR |    000461DD  A$ScriptR |    000461DE  A$ScriptR
     000461E0  A$ScriptR |    000461E1  A$ScriptR |    000461E2  A$ScriptR
     000461E4  A$ScriptR |    000461E5  A$ScriptR |    000461E6  A$ScriptR
     000461E7  A$ScriptR |    000461E8  A$ScriptR |    000461EA  A$ScriptR
     000461EB  A$ScriptR |    000461EC  A$ScriptR |    000461ED  A$ScriptR
     000461EE  A$ScriptR |    000461EF  A$ScriptR |    000461F0  A$ScriptR
     000461F1  A$ScriptR |    000461F2  A$ScriptR |    000461F3  A$ScriptR
     000461F4  A$ScriptR |    000461F5  A$ScriptR |    000461F6  A$ScriptR
     000461F7  A$ScriptR |    000461F8  A$ScriptR |    000461F9  A$ScriptR
     000461FA  A$ScriptR |    000461FB  A$ScriptR |    000461FC  A$ScriptR
     000461FE  A$ScriptR |    000461FF  A$ScriptR |    00046200  A$ScriptR
     00046201  A$ScriptR |    00046202  A$ScriptR |    00046203  A$ScriptR
     00046204  A$ScriptR |    00046206  A$ScriptR |    00046206  C$ScriptR
     00046209  A$ScriptR |    0004620A  A$ScriptR |    0004620C  A$ScriptR
     0004620D  A$ScriptR |    0004620E  A$ScriptR |    0004620F  A$ScriptR
     00046210  A$ScriptR |    00046211  A$ScriptR |    00046212  A$ScriptR
     00046213  A$ScriptR |    00046214  A$ScriptR |    00046215  A$ScriptR
     00046216  A$ScriptR |    00046218  A$ScriptR |    00046219  A$ScriptR
     0004621A  A$ScriptR |    0004621C  A$ScriptR |    0004621D  A$ScriptR
     0004621E  A$ScriptR |    0004621F  A$ScriptR |    00046220  A$ScriptR
     00046222  A$ScriptR |    00046223  A$ScriptR |    00046224  A$ScriptR
     00046225  A$ScriptR |    00046226  A$ScriptR |    00046227  A$ScriptR
     00046228  A$ScriptR |    00046229  A$ScriptR |    0004622A  A$ScriptR
     0004622B  A$ScriptR |    0004622C  A$ScriptR |    0004622D  A$ScriptR
     0004622E  A$ScriptR |    0004622F  A$ScriptR |    00046230  A$ScriptR
     00046231  A$ScriptR |    00046233  A$ScriptR |    00046234  A$ScriptR
     00046235  A$ScriptR |    00046236  A$ScriptR |    00046237  A$ScriptR
     00046238  A$ScriptR |    00046239  A$ScriptR |    0004623B  A$ScriptR
     0004623B  C$ScriptR |    0004623B  XG$Script |    0004623C  A$ScriptR
     0004623C  C$ScriptR |    0004623C  C$ScriptR |    0004623C  G$Script_
     0004623C  _Script_M |    0004623F  A$ScriptR |    00046240  A$ScriptR
     00046242  A$ScriptR |    00046245  A$ScriptR |    00046246  A$ScriptR
     00046248  A$ScriptR |    00046249  A$ScriptR |    00046249  C$ScriptR
     0004624C  A$ScriptR |    0004624D  A$ScriptR |    0004624E  A$ScriptR
     0004624F  A$ScriptR |    00046250  A$ScriptR |    00046250  C$ScriptR
     00046253  A$ScriptR |    00046254  A$ScriptR |    00046254  C$ScriptR
     00046255  A$ScriptR |    00046256  A$ScriptR |    00046256  C$ScriptR
     00046256  XG$Script |    00046257  A$ScriptR |    00046257  C$ScriptR
     00046257  C$ScriptR |    00046257  G$Script_ |    00046257  _Script_M
     0004625A  A$ScriptR |    0004625B  A$ScriptR |    0004625D  A$ScriptR
     00046260  A$ScriptR |    00046261  A$ScriptR |    00046263  A$ScriptR
     00046264  A$ScriptR |    00046264  C$ScriptR |    00046267  A$ScriptR
     00046268  A$ScriptR |    00046269  A$ScriptR |    0004626A  A$ScriptR
ASxxxx Linker V03.00 + NoICE + sdld,  page 161.
Hexadecimal  [32-Bits]

Area                       Addr        Size        Decimal Bytes (Attributes)
--------------------       ----        ----        ------- ----- ------------
_CODE_4                00044000    00002CEA =       11498. bytes (REL,CON)

        Value  Global            Value  Global            Value  Global    
        -----  ------            -----  ------            -----  ------    
     0004626B  A$ScriptR |    0004626B  C$ScriptR |    0004626E  A$ScriptR
     0004626F  A$ScriptR |    0004626F  C$ScriptR |    00046270  A$ScriptR
     00046271  A$ScriptR |    00046271  C$ScriptR |    00046271  XG$Script
     00046272  A$ScriptR |    00046272  C$ScriptR |    00046272  C$ScriptR
     00046272  G$Script_ |    00046272  _Script_M |    00046275  A$ScriptR
     00046276  A$ScriptR |    00046278  A$ScriptR |    0004627B  A$ScriptR
     0004627C  A$ScriptR |    0004627E  A$ScriptR |    0004627F  A$ScriptR
     0004627F  C$ScriptR |    00046282  A$ScriptR |    00046283  A$ScriptR
     00046284  A$ScriptR |    00046285  A$ScriptR |    00046286  A$ScriptR
     00046286  C$ScriptR |    00046289  A$ScriptR |    0004628A  A$ScriptR
     0004628A  C$ScriptR |    0004628B  A$ScriptR |    0004628C  A$ScriptR
     0004628D  A$ScriptR |    0004628E  A$ScriptR |    0004628F  A$ScriptR
     00046292  A$ScriptR |    00046294  A$ScriptR |    00046295  A$ScriptR
     00046296  A$ScriptR |    00046297  A$ScriptR |    00046297  C$ScriptR
     00046297  XG$Script |    00046298  A$ScriptR |    00046298  C$ScriptR
     00046298  C$ScriptR |    00046298  G$Script_ |    00046298  _Script_M
     0004629B  A$ScriptR |    0004629C  A$ScriptR |    0004629E  A$ScriptR
     000462A1  A$ScriptR |    000462A2  A$ScriptR |    000462A4  A$ScriptR
     000462A5  A$ScriptR |    000462A5  C$ScriptR |    000462A8  A$ScriptR
     000462A9  A$ScriptR |    000462AA  A$ScriptR |    000462AB  A$ScriptR
     000462AC  A$ScriptR |    000462AC  C$ScriptR |    000462AF  A$ScriptR
     000462B0  A$ScriptR |    000462B0  C$ScriptR |    000462B1  A$ScriptR
     000462B2  A$ScriptR |    000462B3  A$ScriptR |    000462B4  A$ScriptR
     000462B5  A$ScriptR |    000462B8  A$ScriptR |    000462BA  A$ScriptR
     000462BB  A$ScriptR |    000462BC  A$ScriptR |    000462BD  A$ScriptR
     000462BD  C$ScriptR |    000462BD  XG$Script |    000462BE  A$ScriptR
     000462BE  C$ScriptR |    000462BE  C$ScriptR |    000462BE  G$Script_
     000462BE  _Script_M |    000462C1  A$ScriptR |    000462C2  A$ScriptR
     000462C4  A$ScriptR |    000462C7  A$ScriptR |    000462C8  A$ScriptR
     000462CA  A$ScriptR |    000462CB  A$ScriptR |    000462CB  C$ScriptR
     000462CE  A$ScriptR |    000462CF  A$ScriptR |    000462D0  A$ScriptR
     000462D1  A$ScriptR |    000462D2  A$ScriptR |    000462D2  C$ScriptR
     000462D5  A$ScriptR |    000462D6  A$ScriptR |    000462D6  C$ScriptR
     000462D7  A$ScriptR |    000462D8  A$ScriptR |    000462D9  A$ScriptR
     000462DA  A$ScriptR |    000462DB  A$ScriptR |    000462DE  A$ScriptR
     000462E0  A$ScriptR |    000462E1  A$ScriptR |    000462E2  A$ScriptR
     000462E3  A$ScriptR |    000462E3  C$ScriptR |    000462E3  XG$Script
     000462E4  A$ScriptR |    000462E4  C$ScriptR |    000462E4  G$Script_
     000462E4  _Script_M |    000462E6  A$ScriptR |    000462E6  C$ScriptR
     000462E9  A$ScriptR |    000462EA  A$ScriptR |    000462EB  A$ScriptR
     000462EC  A$ScriptR |    000462EF  A$ScriptR |    000462F0  A$ScriptR
     000462F1  A$ScriptR |    000462F2  A$ScriptR |    000462F3  A$ScriptR
     000462F4  A$ScriptR |    000462F5  A$ScriptR |    000462F6  A$ScriptR
     000462F8  A$ScriptR |    000462F9  A$ScriptR |    000462F9  C$ScriptR
     000462FC  A$ScriptR |    000462FD  A$ScriptR |    000462FE  A$ScriptR
     000462FF  A$ScriptR |    00046302  A$ScriptR |    00046303  A$ScriptR
     00046304  A$ScriptR |    00046306  A$ScriptR |    00046307  A$ScriptR
     00046307  C$ScriptR |    0004630A  A$ScriptR |    0004630A  C$ScriptR
     0004630B  A$ScriptR |    0004630D  A$ScriptR |    0004630F  A$ScriptR
     00046310  A$ScriptR |    00046312  A$ScriptR |    00046314  A$ScriptR
     00046315  A$ScriptR |    00046316  A$ScriptR |    00046318  A$ScriptR
ASxxxx Linker V03.00 + NoICE + sdld,  page 162.
Hexadecimal  [32-Bits]

Area                       Addr        Size        Decimal Bytes (Attributes)
--------------------       ----        ----        ------- ----- ------------
_CODE_4                00044000    00002CEA =       11498. bytes (REL,CON)

        Value  Global            Value  Global            Value  Global    
        -----  ------            -----  ------            -----  ------    
     00046319  A$ScriptR |    0004631A  A$ScriptR |    0004631B  A$ScriptR
     0004631C  A$ScriptR |    0004631D  A$ScriptR |    0004631E  A$ScriptR
     0004631F  A$ScriptR |    00046320  A$ScriptR |    00046321  A$ScriptR
     00046322  A$ScriptR |    00046323  A$ScriptR |    00046324  A$ScriptR
     00046325  A$ScriptR |    00046326  A$ScriptR |    00046327  A$ScriptR
     00046328  A$ScriptR |    0004632A  A$ScriptR |    0004632C  A$ScriptR
     0004632E  A$ScriptR |    00046330  A$ScriptR |    00046331  A$ScriptR
     00046333  A$ScriptR |    00046335  A$ScriptR |    00046337  A$ScriptR
     00046338  A$ScriptR |    0004633A  A$ScriptR |    0004633A  C$ScriptR
     0004633C  A$ScriptR |    0004633D  A$ScriptR |    0004633E  A$ScriptR
     0004633F  A$ScriptR |    00046340  A$ScriptR |    00046341  A$ScriptR
     00046342  A$ScriptR |    00046344  A$ScriptR |    00046344  C$ScriptR
     00046345  A$ScriptR |    00046346  A$ScriptR |    00046348  A$ScriptR
     0004634A  A$ScriptR |    0004634A  C$ScriptR |    0004634A  XG$Script
     0004634B  A$ScriptR |    0004634B  C$ScriptR |    0004634B  G$Script_
     0004634B  _Script_M |    0004634D  A$ScriptR |    0004634D  C$ScriptR
     00046350  A$ScriptR |    00046351  A$ScriptR |    00046352  A$ScriptR
     00046354  A$ScriptR |    00046355  A$ScriptR |    00046356  A$ScriptR
     00046358  A$ScriptR |    00046359  A$ScriptR |    0004635A  A$ScriptR
     0004635C  A$ScriptR |    0004635D  A$ScriptR |    0004635D  C$ScriptR
     00046360  A$ScriptR |    00046361  A$ScriptR |    00046362  A$ScriptR
     00046363  A$ScriptR |    00046366  A$ScriptR |    00046367  A$ScriptR
     00046368  A$ScriptR |    0004636A  A$ScriptR |    0004636B  A$ScriptR
     0004636B  C$ScriptR |    0004636E  A$ScriptR |    0004636E  C$ScriptR
     0004636F  A$ScriptR |    00046371  A$ScriptR |    00046373  A$ScriptR
     00046374  A$ScriptR |    00046375  A$ScriptR |    00046377  A$ScriptR
     00046377  C$ScriptR |    00046379  A$ScriptR |    0004637A  A$ScriptR
     0004637B  A$ScriptR |    0004637C  A$ScriptR |    0004637E  A$ScriptR
     0004637E  C$ScriptR |    0004637F  A$ScriptR |    00046380  A$ScriptR
     00046382  A$ScriptR |    00046382  C$ScriptR |    00046382  XG$Script
     00046383  A$ScriptR |    00046383  C$ScriptR |    00046383  G$Script_
     00046383  _Script_M |    00046384  A$ScriptR |    00046384  C$ScriptR
     00046387  A$ScriptR |    00046388  A$ScriptR |    00046389  A$ScriptR
     0004638B  A$ScriptR |    0004638C  A$ScriptR |    0004638D  A$ScriptR
     0004638F  A$ScriptR |    00046390  A$ScriptR |    00046391  A$ScriptR
     00046393  A$ScriptR |    00046394  A$ScriptR |    00046394  C$ScriptR
     00046397  A$ScriptR |    00046398  A$ScriptR |    00046399  A$ScriptR
     0004639A  A$ScriptR |    0004639D  A$ScriptR |    0004639E  A$ScriptR
     0004639F  A$ScriptR |    0004639F  C$ScriptR |    000463A0  A$ScriptR
     000463A1  A$ScriptR |    000463A2  A$ScriptR |    000463A4  A$ScriptR
     000463A5  A$ScriptR |    000463A6  A$ScriptR |    000463A7  A$ScriptR
     000463AA  A$ScriptR |    000463AC  A$ScriptR |    000463AD  A$ScriptR
     000463AE  A$ScriptR |    000463AF  A$ScriptR |    000463B0  A$ScriptR
     000463B0  C$ScriptR |    000463B0  XG$Script |    000463B1  A$ScriptR
     000463B1  C$ScriptR |    000463B1  G$Script_ |    000463B1  _Script_M
     000463B2  A$ScriptR |    000463B2  C$ScriptR |    000463B5  A$ScriptR
     000463B6  A$ScriptR |    000463B7  A$ScriptR |    000463B9  A$ScriptR
     000463BA  A$ScriptR |    000463BB  A$ScriptR |    000463BD  A$ScriptR
     000463BE  A$ScriptR |    000463BF  A$ScriptR |    000463C1  A$ScriptR
     000463C2  A$ScriptR |    000463C2  C$ScriptR |    000463C5  A$ScriptR
     000463C6  A$ScriptR |    000463C7  A$ScriptR |    000463C8  A$ScriptR
ASxxxx Linker V03.00 + NoICE + sdld,  page 163.
Hexadecimal  [32-Bits]

Area                       Addr        Size        Decimal Bytes (Attributes)
--------------------       ----        ----        ------- ----- ------------
_CODE_4                00044000    00002CEA =       11498. bytes (REL,CON)

        Value  Global            Value  Global            Value  Global    
        -----  ------            -----  ------            -----  ------    
     000463CB  A$ScriptR |    000463CC  A$ScriptR |    000463CD  A$ScriptR
     000463CD  C$ScriptR |    000463CE  A$ScriptR |    000463CF  A$ScriptR
     000463D0  A$ScriptR |    000463D2  A$ScriptR |    000463D3  A$ScriptR
     000463D4  A$ScriptR |    000463D5  A$ScriptR |    000463D8  A$ScriptR
     000463DA  A$ScriptR |    000463DB  A$ScriptR |    000463DC  A$ScriptR
     000463DD  A$ScriptR |    000463DE  A$ScriptR |    000463DE  C$ScriptR
     000463DE  XG$Script |    000463DF  A$ScriptR |    000463DF  C$ScriptR
     000463DF  G$Script_ |    000463DF  _Script_M |    000463E0  A$ScriptR
     000463E0  C$ScriptR |    000463E3  A$ScriptR |    000463E4  A$ScriptR
     000463E5  A$ScriptR |    000463E7  A$ScriptR |    000463E8  A$ScriptR
     000463E9  A$ScriptR |    000463EB  A$ScriptR |    000463EC  A$ScriptR
     000463ED  A$ScriptR |    000463EF  A$ScriptR |    000463F0  A$ScriptR
     000463F0  C$ScriptR |    000463F3  A$ScriptR |    000463F4  A$ScriptR
     000463F5  A$ScriptR |    000463F6  A$ScriptR |    000463F9  A$ScriptR
     000463FA  A$ScriptR |    000463FB  A$ScriptR |    000463FB  C$ScriptR
     000463FC  A$ScriptR |    000463FD  A$ScriptR |    000463FE  A$ScriptR
     00046400  A$ScriptR |    00046401  A$ScriptR |    00046402  A$ScriptR
     00046403  A$ScriptR |    00046406  A$ScriptR |    00046408  A$ScriptR
     00046409  A$ScriptR |    0004640A  A$ScriptR |    0004640B  A$ScriptR
     0004640C  A$ScriptR |    0004640C  C$ScriptR |    0004640C  XG$Script
     0004640D  A$ScriptR |    0004640D  C$ScriptR |    0004640D  C$ScriptR
     0004640D  G$Script_ |    0004640D  _Script_C |    00046410  A$ScriptR
     00046411  A$ScriptR |    00046412  A$ScriptR |    00046413  A$ScriptR
     00046416  A$ScriptR |    00046417  A$ScriptR |    00046418  A$ScriptR
     00046418  C$ScriptR |    0004641B  A$ScriptR |    0004641C  A$ScriptR
     0004641D  A$ScriptR |    0004641E  A$ScriptR |    00046421  A$ScriptR
     00046422  A$ScriptR |    00046423  A$ScriptR |    00046423  C$ScriptR
     00046423  XG$Script |    00046424  A$ScriptR |    00046424  C$ScriptR
     00046424  G$Script_ |    00046424  _Script_I |    00046425  A$ScriptR
     00046425  C$ScriptR |    00046428  A$ScriptR |    00046429  A$ScriptR
     0004642A  A$ScriptR |    0004642B  A$ScriptR |    0004642E  A$ScriptR
     0004642F  A$ScriptR |    00046430  A$ScriptR |    00046430  C$ScriptR
     00046433  A$ScriptR |    00046434  A$ScriptR |    00046435  A$ScriptR
     00046436  A$ScriptR |    00046439  A$ScriptR |    0004643A  A$ScriptR
     0004643B  A$ScriptR |    0004643E  A$ScriptR |    00046440  A$ScriptR
     00046441  A$ScriptR |    00046443  A$ScriptR |    00046445  A$ScriptR
     00046446  A$ScriptR |    00046448  A$ScriptR |    00046448  C$ScriptR
     00046449  A$ScriptR |    0004644A  A$ScriptR |    0004644C  A$ScriptR
     0004644E  A$ScriptR |    0004644F  A$ScriptR |    00046450  A$ScriptR
     00046450  C$ScriptR |    00046451  A$ScriptR |    00046452  A$ScriptR
     00046454  A$ScriptR |    00046455  A$ScriptR |    00046456  A$ScriptR
     00046456  C$ScriptR |    00046457  A$ScriptR |    00046458  A$ScriptR
     0004645A  A$ScriptR |    0004645B  A$ScriptR |    0004645C  A$ScriptR
     0004645C  C$ScriptR |    0004645D  A$ScriptR |    0004645F  A$ScriptR
     00046460  A$ScriptR |    00046462  A$ScriptR |    00046465  A$ScriptR
     00046466  A$ScriptR |    00046467  A$ScriptR |    00046467  C$ScriptR
     00046468  A$ScriptR |    00046469  A$ScriptR |    0004646B  A$ScriptR
     0004646D  A$ScriptR |    0004646F  A$ScriptR |    00046471  A$ScriptR
     00046473  A$ScriptR |    00046475  A$ScriptR |    00046477  A$ScriptR
     00046477  C$ScriptR |    00046478  A$ScriptR |    00046478  C$ScriptR
     0004647A  A$ScriptR |    0004647A  C$ScriptR |    0004647A  C$ScriptR
ASxxxx Linker V03.00 + NoICE + sdld,  page 164.
Hexadecimal  [32-Bits]

Area                       Addr        Size        Decimal Bytes (Attributes)
--------------------       ----        ----        ------- ----- ------------
_CODE_4                00044000    00002CEA =       11498. bytes (REL,CON)

        Value  Global            Value  Global            Value  Global    
        -----  ------            -----  ------            -----  ------    
     0004647B  A$ScriptR |    0004647B  C$ScriptR |    0004647D  A$ScriptR
     0004647D  C$ScriptR |    0004647D  C$ScriptR |    0004647E  A$ScriptR
     00046480  A$ScriptR |    00046480  C$ScriptR |    00046482  A$ScriptR
     00046482  C$ScriptR |    00046482  C$ScriptR |    00046483  A$ScriptR
     00046483  C$ScriptR |    00046485  A$ScriptR |    00046485  C$ScriptR
     00046485  C$ScriptR |    00046486  A$ScriptR |    00046488  A$ScriptR
     00046488  C$ScriptR |    0004648A  A$ScriptR |    0004648A  C$ScriptR
     0004648A  C$ScriptR |    0004648B  A$ScriptR |    0004648D  A$ScriptR
     0004648D  C$ScriptR |    0004648F  A$ScriptR |    0004648F  C$ScriptR
     0004648F  C$ScriptR |    00046490  A$ScriptR |    00046490  C$ScriptR
     00046490  C$ScriptR |    00046491  A$ScriptR |    00046493  A$ScriptR
     00046493  C$ScriptR |    00046496  A$ScriptR |    00046497  A$ScriptR
     00046498  A$ScriptR |    00046499  A$ScriptR |    0004649C  A$ScriptR
     0004649D  A$ScriptR |    0004649F  A$ScriptR |    000464A0  A$ScriptR
     000464A1  A$ScriptR |    000464A2  A$ScriptR |    000464A5  A$ScriptR
     000464A6  A$ScriptR |    000464A7  A$ScriptR |    000464A9  A$ScriptR
     000464AA  A$ScriptR |    000464AB  A$ScriptR |    000464AE  A$ScriptR
     000464AF  A$ScriptR |    000464B0  A$ScriptR |    000464B1  A$ScriptR
     000464B2  A$ScriptR |    000464B2  C$ScriptR |    000464B2  XG$Script
     000464B3  A$ScriptR |    000464B3  C$ScriptR |    000464B3  C$ScriptR
     000464B3  G$Script_ |    000464B3  _Script_L |    000464B6  A$ScriptR
     000464B7  A$ScriptR |    000464B9  A$ScriptR |    000464BC  A$ScriptR
     000464BD  A$ScriptR |    000464BF  A$ScriptR |    000464C0  A$ScriptR
     000464C1  A$ScriptR |    000464C2  A$ScriptR |    000464C5  A$ScriptR
     000464C6  A$ScriptR |    000464C7  A$ScriptR |    000464C8  A$ScriptR
     000464C8  C$ScriptR |    000464CB  A$ScriptR |    000464CC  A$ScriptR
     000464CE  A$ScriptR |    000464D1  A$ScriptR |    000464D2  A$ScriptR
     000464D4  A$ScriptR |    000464D5  A$ScriptR |    000464D6  A$ScriptR
     000464D7  A$ScriptR |    000464DA  A$ScriptR |    000464DB  A$ScriptR
     000464DC  A$ScriptR |    000464DD  A$ScriptR |    000464DD  C$ScriptR
     000464DD  XG$Script |    000464DE  A$ScriptR |    000464DE  C$ScriptR
     000464DE  C$ScriptR |    000464DE  G$Script_ |    000464DE  _Script_A
     000464E1  A$ScriptR |    000464E4  A$ScriptR |    000464E5  A$ScriptR
     000464E7  A$ScriptR |    000464E8  A$ScriptR |    000464E9  A$ScriptR
     000464EA  A$ScriptR |    000464EB  A$ScriptR |    000464EC  A$ScriptR
     000464ED  A$ScriptR |    000464EE  A$ScriptR |    000464EF  A$ScriptR
     000464F0  A$ScriptR |    000464F1  A$ScriptR |    000464F2  A$ScriptR
     000464F3  A$ScriptR |    000464F4  A$ScriptR |    000464F5  A$ScriptR
     000464F6  A$ScriptR |    000464F7  A$ScriptR |    000464F8  A$ScriptR
     000464FB  A$ScriptR |    000464FC  A$ScriptR |    000464FC  C$ScriptR
     000464FC  XG$Script |    000464FD  A$ScriptR |    000464FD  C$ScriptR
     000464FD  C$ScriptR |    000464FD  G$Script_ |    000464FD  _Script_A
     00046500  A$ScriptR |    00046503  A$ScriptR |    00046504  A$ScriptR
     00046506  A$ScriptR |    00046507  A$ScriptR |    00046508  A$ScriptR
     00046509  A$ScriptR |    0004650A  A$ScriptR |    0004650B  A$ScriptR
     0004650C  A$ScriptR |    0004650D  A$ScriptR |    0004650E  A$ScriptR
     0004650F  A$ScriptR |    00046510  A$ScriptR |    00046511  A$ScriptR
     00046514  A$ScriptR |    00046515  A$ScriptR |    00046516  A$ScriptR
     00046517  A$ScriptR |    0004651A  A$ScriptR |    0004651B  A$ScriptR
     0004651B  C$ScriptR |    0004651B  XG$Script |    0004651C  A$ScriptR
     0004651C  C$ScriptR |    0004651C  C$ScriptR |    0004651C  G$Script_
ASxxxx Linker V03.00 + NoICE + sdld,  page 165.
Hexadecimal  [32-Bits]

Area                       Addr        Size        Decimal Bytes (Attributes)
--------------------       ----        ----        ------- ----- ------------
_CODE_4                00044000    00002CEA =       11498. bytes (REL,CON)

        Value  Global            Value  Global            Value  Global    
        -----  ------            -----  ------            -----  ------    
     0004651C  _Script_T |    0004651F  A$ScriptR |    00046522  A$ScriptR
     00046522  C$ScriptR |    00046525  A$ScriptR |    00046528  A$ScriptR
     00046528  C$ScriptR |    0004652B  A$ScriptR |    0004652E  A$ScriptR
     0004652E  C$ScriptR |    00046531  A$ScriptR |    00046532  A$ScriptR
     00046534  A$ScriptR |    00046537  A$ScriptR |    00046539  A$ScriptR
     0004653C  A$ScriptR |    0004653F  A$ScriptR |    00046540  A$ScriptR
     00046540  C$ScriptR |    00046540  XG$Script |    00046541  A$ScriptR
     00046541  C$ScriptR |    00046541  C$ScriptR |    00046541  G$Script_
     00046541  _Script_A |    00046544  A$ScriptR |    00046544  C$ScriptR
     00046547  A$ScriptR |    0004654A  A$ScriptR |    0004654B  A$ScriptR
     0004654D  A$ScriptR |    0004654E  A$ScriptR |    0004654F  A$ScriptR
     00046550  A$ScriptR |    00046551  A$ScriptR |    00046552  A$ScriptR
     00046553  A$ScriptR |    00046554  A$ScriptR |    00046555  A$ScriptR
     00046556  A$ScriptR |    00046557  A$ScriptR |    00046558  A$ScriptR
     0004655B  A$ScriptR |    0004655C  A$ScriptR |    0004655D  A$ScriptR
     0004655E  A$ScriptR |    0004655E  C$ScriptR |    00046561  A$ScriptR
     00046562  A$ScriptR |    00046563  A$ScriptR |    00046563  C$ScriptR
     00046564  A$ScriptR |    00046565  A$ScriptR |    00046566  A$ScriptR
     00046567  A$ScriptR |    00046568  A$ScriptR |    00046569  A$ScriptR
     0004656B  A$ScriptR |    0004656C  A$ScriptR |    0004656F  A$ScriptR
     00046570  A$ScriptR |    00046571  A$ScriptR |    00046572  A$ScriptR
     00046572  C$ScriptR |    00046575  A$ScriptR |    00046576  A$ScriptR
     00046577  A$ScriptR |    00046578  A$ScriptR |    00046578  C$ScriptR
     0004657B  A$ScriptR |    0004657C  A$ScriptR |    0004657D  A$ScriptR
     0004657E  A$ScriptR |    0004657E  C$ScriptR |    0004657E  XG$Script
     0004657F  A$ScriptR |    0004657F  C$ScriptR |    0004657F  G$Script_
     0004657F  _Script_S |    00046581  A$ScriptR |    00046581  C$ScriptR
     00046584  A$ScriptR |    00046585  A$ScriptR |    00046588  A$ScriptR
     00046589  A$ScriptR |    0004658A  A$ScriptR |    0004658C  A$ScriptR
     0004658D  A$ScriptR |    00046590  A$ScriptR |    00046591  A$ScriptR
     00046591  C$ScriptR |    00046592  A$ScriptR |    00046594  A$ScriptR
     00046596  A$ScriptR |    00046598  A$ScriptR |    0004659B  A$ScriptR
     0004659C  A$ScriptR |    0004659D  A$ScriptR |    0004659E  A$ScriptR
     0004659F  A$ScriptR |    000465A2  A$ScriptR |    000465A3  A$ScriptR
     000465A4  A$ScriptR |    000465A5  A$ScriptR |    000465A6  A$ScriptR
     000465A7  A$ScriptR |    000465A8  A$ScriptR |    000465A9  A$ScriptR
     000465AA  A$ScriptR |    000465AA  C$ScriptR |    000465AD  A$ScriptR
     000465AE  A$ScriptR |    000465B0  A$ScriptR |    000465B2  A$ScriptR
     000465B4  A$ScriptR |    000465B7  A$ScriptR |    000465B8  A$ScriptR
     000465B9  A$ScriptR |    000465BA  A$ScriptR |    000465BB  A$ScriptR
     000465BE  A$ScriptR |    000465BF  A$ScriptR |    000465C0  A$ScriptR
     000465C1  A$ScriptR |    000465C2  A$ScriptR |    000465C3  A$ScriptR
     000465C4  A$ScriptR |    000465C5  A$ScriptR |    000465C6  A$ScriptR
     000465C6  C$ScriptR |    000465C9  A$ScriptR |    000465CA  A$ScriptR
     000465CC  A$ScriptR |    000465CD  A$ScriptR |    000465CE  A$ScriptR
     000465CF  A$ScriptR |    000465D1  A$ScriptR |    000465D2  A$ScriptR
     000465D3  A$ScriptR |    000465D5  A$ScriptR |    000465D6  A$ScriptR
     000465D7  A$ScriptR |    000465D8  A$ScriptR |    000465D9  A$ScriptR
     000465DA  A$ScriptR |    000465DC  A$ScriptR |    000465DD  A$ScriptR
     000465DE  A$ScriptR |    000465DF  A$ScriptR |    000465E0  A$ScriptR
     000465E3  A$ScriptR |    000465E4  A$ScriptR |    000465E6  A$ScriptR
ASxxxx Linker V03.00 + NoICE + sdld,  page 166.
Hexadecimal  [32-Bits]

Area                       Addr        Size        Decimal Bytes (Attributes)
--------------------       ----        ----        ------- ----- ------------
_CODE_4                00044000    00002CEA =       11498. bytes (REL,CON)

        Value  Global            Value  Global            Value  Global    
        -----  ------            -----  ------            -----  ------    
     000465E7  A$ScriptR |    000465E8  A$ScriptR |    000465E9  A$ScriptR
     000465EA  A$ScriptR |    000465EB  A$ScriptR |    000465EC  A$ScriptR
     000465ED  A$ScriptR |    000465EE  A$ScriptR |    000465EF  A$ScriptR
     000465F0  A$ScriptR |    000465F1  A$ScriptR |    000465F1  C$ScriptR
     000465F4  A$ScriptR |    000465F5  A$ScriptR |    000465F7  A$ScriptR
     000465F7  C$ScriptR |    000465F7  XG$Script |    000465F8  A$ScriptR
     000465F8  C$ScriptR |    000465F8  C$ScriptR |    000465F8  G$Script_
     000465F8  _Script_S |    000465FB  A$ScriptR |    000465FC  A$ScriptR
     000465FC  C$ScriptR |    000465FF  A$ScriptR |    00046602  A$ScriptR
     00046603  A$ScriptR |    00046604  A$ScriptR |    00046605  A$ScriptR
     00046607  A$ScriptR |    00046608  A$ScriptR |    00046609  A$ScriptR
     0004660A  A$ScriptR |    0004660A  C$ScriptR |    0004660D  A$ScriptR
     0004660E  A$ScriptR |    00046610  A$ScriptR |    00046611  A$ScriptR
     00046612  A$ScriptR |    00046613  A$ScriptR |    00046614  A$ScriptR
     00046615  A$ScriptR |    00046616  A$ScriptR |    00046617  A$ScriptR
     0004661A  A$ScriptR |    0004661B  A$ScriptR |    0004661C  A$ScriptR
     0004661D  A$ScriptR |    0004661D  C$ScriptR |    00046620  A$ScriptR
     00046623  A$ScriptR |    00046624  A$ScriptR |    00046626  A$ScriptR
     00046627  A$ScriptR |    00046628  A$ScriptR |    00046629  A$ScriptR
     0004662A  A$ScriptR |    0004662B  A$ScriptR |    0004662C  A$ScriptR
     0004662D  A$ScriptR |    00046630  A$ScriptR |    00046631  A$ScriptR
     00046632  A$ScriptR |    00046633  A$ScriptR |    00046633  C$ScriptR
     00046633  XG$Script |    00046634  A$ScriptR |    00046634  C$ScriptR
     00046634  C$ScriptR |    00046634  G$Script_ |    00046634  _Script_S
     00046637  A$ScriptR |    00046638  A$ScriptR |    0004663A  A$ScriptR
     0004663B  A$ScriptR |    0004663B  C$ScriptR |    0004663C  A$ScriptR
     0004663E  A$ScriptR |    0004663F  A$ScriptR |    00046640  A$ScriptR
     00046641  A$ScriptR |    00046642  A$ScriptR |    00046643  A$ScriptR
     00046645  A$ScriptR |    00046646  A$ScriptR |    00046647  A$ScriptR
     00046649  A$ScriptR |    0004664A  A$ScriptR |    0004664B  A$ScriptR
     0004664E  A$ScriptR |    0004664F  A$ScriptR |    00046650  A$ScriptR
     00046651  A$ScriptR |    00046652  A$ScriptR |    00046653  A$ScriptR
     00046653  C$ScriptR |    00046656  A$ScriptR |    00046657  A$ScriptR
     00046659  A$ScriptR |    0004665A  A$ScriptR |    0004665B  A$ScriptR
     0004665C  A$ScriptR |    0004665D  A$ScriptR |    0004665E  A$ScriptR
     00046661  A$ScriptR |    00046662  A$ScriptR |    00046665  A$ScriptR
     00046666  A$ScriptR |    00046667  A$ScriptR |    00046668  A$ScriptR
     0004666B  A$ScriptR |    0004666C  A$ScriptR |    0004666C  C$ScriptR
     0004666F  A$ScriptR |    00046670  A$ScriptR |    00046672  A$ScriptR
     00046673  A$ScriptR |    00046674  A$ScriptR |    00046675  A$ScriptR
     00046676  A$ScriptR |    00046677  A$ScriptR |    0004667A  A$ScriptR
     0004667B  A$ScriptR |    0004667E  A$ScriptR |    0004667F  A$ScriptR
     00046680  A$ScriptR |    00046681  A$ScriptR |    00046684  A$ScriptR
     00046685  A$ScriptR |    00046685  C$ScriptR |    00046688  A$ScriptR
     00046689  A$ScriptR |    0004668B  A$ScriptR |    0004668C  A$ScriptR
     0004668D  A$ScriptR |    0004668E  A$ScriptR |    0004668F  A$ScriptR
     00046690  A$ScriptR |    00046693  A$ScriptR |    00046694  A$ScriptR
     00046695  A$ScriptR |    00046696  A$ScriptR |    00046697  A$ScriptR
     00046698  A$ScriptR |    00046699  A$ScriptR |    00046699  C$ScriptR
     0004669C  A$ScriptR |    0004669D  A$ScriptR |    0004669F  A$ScriptR
     000466A0  A$ScriptR |    000466A1  A$ScriptR |    000466A2  A$ScriptR
ASxxxx Linker V03.00 + NoICE + sdld,  page 167.
Hexadecimal  [32-Bits]

Area                       Addr        Size        Decimal Bytes (Attributes)
--------------------       ----        ----        ------- ----- ------------
_CODE_4                00044000    00002CEA =       11498. bytes (REL,CON)

        Value  Global            Value  Global            Value  Global    
        -----  ------            -----  ------            -----  ------    
     000466A3  A$ScriptR |    000466A4  A$ScriptR |    000466A7  A$ScriptR
     000466A8  A$ScriptR |    000466A9  A$ScriptR |    000466AA  A$ScriptR
     000466AB  A$ScriptR |    000466AC  A$ScriptR |    000466AF  A$ScriptR
     000466B0  A$ScriptR |    000466B1  A$ScriptR |    000466B2  A$ScriptR
     000466B3  A$ScriptR |    000466B5  A$ScriptR |    000466B7  A$ScriptR
     000466B9  A$ScriptR |    000466BB  A$ScriptR |    000466BD  A$ScriptR
     000466BF  A$ScriptR |    000466C0  A$ScriptR |    000466C1  A$ScriptR
     000466C2  A$ScriptR |    000466C3  A$ScriptR |    000466C4  A$ScriptR
     000466C4  C$ScriptR |    000466C7  A$ScriptR |    000466C8  A$ScriptR
     000466CA  A$ScriptR |    000466CB  A$ScriptR |    000466CC  A$ScriptR
     000466CD  A$ScriptR |    000466CE  A$ScriptR |    000466CF  A$ScriptR
     000466D2  A$ScriptR |    000466D3  A$ScriptR |    000466D6  A$ScriptR
     000466D7  A$ScriptR |    000466D8  A$ScriptR |    000466D9  A$ScriptR
     000466DA  A$ScriptR |    000466DA  C$ScriptR |    000466DD  A$ScriptR
     000466DE  A$ScriptR |    000466E0  A$ScriptR |    000466E1  A$ScriptR
     000466E2  A$ScriptR |    000466E3  A$ScriptR |    000466E4  A$ScriptR
     000466E5  A$ScriptR |    000466E7  A$ScriptR |    000466E8  A$ScriptR
     000466E9  A$ScriptR |    000466EB  A$ScriptR |    000466EC  A$ScriptR
     000466ED  A$ScriptR |    000466EE  A$ScriptR |    000466EF  A$ScriptR
     000466F0  A$ScriptR |    000466F1  A$ScriptR |    000466F4  A$ScriptR
     000466F5  A$ScriptR |    000466F6  A$ScriptR |    000466F7  A$ScriptR
     000466F8  A$ScriptR |    000466FA  A$ScriptR |    000466FC  A$ScriptR
     000466FE  A$ScriptR |    00046700  A$ScriptR |    00046702  A$ScriptR
     00046704  A$ScriptR |    00046705  A$ScriptR |    00046706  A$ScriptR
     00046707  A$ScriptR |    00046708  A$ScriptR |    00046709  A$ScriptR
     00046709  C$ScriptR |    0004670C  A$ScriptR |    0004670D  A$ScriptR
     0004670D  C$ScriptR |    0004670D  XG$Script |    0004670E  A$ScriptR
     0004670E  C$ScriptR |    0004670E  G$Script_ |    0004670E  _Script_S
     00046710  A$ScriptR |    00046710  C$ScriptR |    00046713  A$ScriptR
     00046714  A$ScriptR |    00046715  A$ScriptR |    00046718  A$ScriptR
     00046718  C$ScriptR |    00046719  A$ScriptR |    00046719  C$ScriptR
     0004671A  A$ScriptR |    0004671C  A$ScriptR |    0004671D  A$ScriptR
     0004671E  A$ScriptR |    0004671F  A$ScriptR |    00046720  A$ScriptR
     00046721  A$ScriptR |    00046724  A$ScriptR |    00046725  A$ScriptR
     00046726  A$ScriptR |    00046727  A$ScriptR |    00046728  A$ScriptR
     0004672A  A$ScriptR |    0004672B  A$ScriptR |    0004672C  A$ScriptR
     0004672D  A$ScriptR |    0004672E  A$ScriptR |    0004672E  C$ScriptR
     00046731  A$ScriptR |    00046732  A$ScriptR |    00046733  A$ScriptR
     00046734  A$ScriptR |    00046734  C$ScriptR |    00046737  A$ScriptR
     00046738  A$ScriptR |    0004673A  A$ScriptR |    0004673B  A$ScriptR
     0004673C  A$ScriptR |    0004673D  A$ScriptR |    0004673E  A$ScriptR
     0004673F  A$ScriptR |    00046742  A$ScriptR |    00046743  A$ScriptR
     00046744  A$ScriptR |    00046745  A$ScriptR |    00046746  A$ScriptR
     00046747  A$ScriptR |    00046748  A$ScriptR |    00046749  A$ScriptR
     0004674A  A$ScriptR |    0004674B  A$ScriptR |    0004674C  A$ScriptR
     0004674D  A$ScriptR |    00046750  A$ScriptR |    00046751  A$ScriptR
     00046752  A$ScriptR |    00046753  A$ScriptR |    00046753  C$ScriptR
     00046756  A$ScriptR |    00046757  A$ScriptR |    00046758  A$ScriptR
     00046759  A$ScriptR |    00046759  C$ScriptR |    0004675C  A$ScriptR
     0004675D  A$ScriptR |    0004675F  A$ScriptR |    00046760  A$ScriptR
     00046761  A$ScriptR |    00046762  A$ScriptR |    00046763  A$ScriptR
ASxxxx Linker V03.00 + NoICE + sdld,  page 168.
Hexadecimal  [32-Bits]

Area                       Addr        Size        Decimal Bytes (Attributes)
--------------------       ----        ----        ------- ----- ------------
_CODE_4                00044000    00002CEA =       11498. bytes (REL,CON)

        Value  Global            Value  Global            Value  Global    
        -----  ------            -----  ------            -----  ------    
     00046764  A$ScriptR |    00046767  A$ScriptR |    00046768  A$ScriptR
     0004676B  A$ScriptR |    0004676C  A$ScriptR |    0004676D  A$ScriptR
     0004676E  A$ScriptR |    0004676F  A$ScriptR |    00046770  A$ScriptR
     00046771  A$ScriptR |    00046772  A$ScriptR |    00046773  A$ScriptR
     00046774  A$ScriptR |    00046777  A$ScriptR |    00046778  A$ScriptR
     00046779  A$ScriptR |    0004677A  A$ScriptR |    0004677A  C$ScriptR
     0004677D  A$ScriptR |    00046780  A$ScriptR |    00046781  A$ScriptR
     00046783  A$ScriptR |    00046784  A$ScriptR |    00046785  A$ScriptR
     00046786  A$ScriptR |    00046787  A$ScriptR |    00046788  A$ScriptR
     0004678B  A$ScriptR |    0004678C  A$ScriptR |    0004678F  A$ScriptR
     00046790  A$ScriptR |    00046791  A$ScriptR |    00046792  A$ScriptR
     00046792  C$ScriptR |    00046795  A$ScriptR |    00046798  A$ScriptR
     00046799  A$ScriptR |    0004679B  A$ScriptR |    0004679C  A$ScriptR
     0004679D  A$ScriptR |    0004679E  A$ScriptR |    0004679F  A$ScriptR
     000467A0  A$ScriptR |    000467A3  A$ScriptR |    000467A4  A$ScriptR
     000467A7  A$ScriptR |    000467A8  A$ScriptR |    000467A9  A$ScriptR
     000467AA  A$ScriptR |    000467AA  C$ScriptR |    000467AB  A$ScriptR
     000467AC  A$ScriptR |    000467AD  A$ScriptR |    000467B0  A$ScriptR
     000467B2  A$ScriptR |    000467B2  C$ScriptR |    000467B5  A$ScriptR
     000467B6  A$ScriptR |    000467B7  A$ScriptR |    000467BA  A$ScriptR
     000467BB  A$ScriptR |    000467BB  C$ScriptR |    000467BE  A$ScriptR
     000467C0  A$ScriptR |    000467C1  A$ScriptR |    000467C3  A$ScriptR
     000467C3  C$ScriptR |    000467C5  A$ScriptR |    000467C5  C$ScriptR
     000467C5  XG$Script |    000467C6  A$ScriptR |    000467C6  C$ScriptR
     000467C6  C$ScriptR |    000467C6  G$Script_ |    000467C6  _Script_S
     000467C9  A$ScriptR |    000467CB  A$ScriptR |    000467CB  C$ScriptR
     000467CB  XG$Script |    000467CC  A$ScriptR |    000467CC  C$ScriptR
     000467CC  G$Script_ |    000467CC  _Script_S |    000467CE  A$ScriptR
     000467CE  C$ScriptR |    000467D1  A$ScriptR |    000467D2  A$ScriptR
     000467D3  A$ScriptR |    000467D6  A$ScriptR |    000467D6  C$ScriptR
     000467D8  A$ScriptR |    000467D8  C$ScriptR |    000467DB  A$ScriptR
     000467DC  A$ScriptR |    000467DE  A$ScriptR |    000467DF  A$ScriptR
     000467E0  A$ScriptR |    000467E1  A$ScriptR |    000467E2  A$ScriptR
     000467E2  C$ScriptR |    000467E5  A$ScriptR |    000467E6  A$ScriptR
     000467E7  A$ScriptR |    000467E8  A$ScriptR |    000467E8  C$ScriptR
     000467EB  A$ScriptR |    000467EC  A$ScriptR |    000467EE  A$ScriptR
     000467EF  A$ScriptR |    000467F0  A$ScriptR |    000467F1  A$ScriptR
     000467F2  A$ScriptR |    000467F3  A$ScriptR |    000467F6  A$ScriptR
     000467F7  A$ScriptR |    000467F8  A$ScriptR |    000467F9  A$ScriptR
     000467FA  A$ScriptR |    000467FB  A$ScriptR |    000467FC  A$ScriptR
     000467FD  A$ScriptR |    000467FE  A$ScriptR |    000467FF  A$ScriptR
     00046800  A$ScriptR |    00046801  A$ScriptR |    00046804  A$ScriptR
     00046805  A$ScriptR |    00046806  A$ScriptR |    00046807  A$ScriptR
     00046807  C$ScriptR |    0004680A  A$ScriptR |    0004680B  A$ScriptR
     0004680C  A$ScriptR |    0004680D  A$ScriptR |    0004680D  C$ScriptR
     00046810  A$ScriptR |    00046811  A$ScriptR |    00046813  A$ScriptR
     00046814  A$ScriptR |    00046815  A$ScriptR |    00046816  A$ScriptR
     00046817  A$ScriptR |    00046818  A$ScriptR |    0004681B  A$ScriptR
     0004681C  A$ScriptR |    0004681F  A$ScriptR |    00046820  A$ScriptR
     00046821  A$ScriptR |    00046822  A$ScriptR |    00046823  A$ScriptR
     00046824  A$ScriptR |    00046825  A$ScriptR |    00046826  A$ScriptR
ASxxxx Linker V03.00 + NoICE + sdld,  page 169.
Hexadecimal  [32-Bits]

Area                       Addr        Size        Decimal Bytes (Attributes)
--------------------       ----        ----        ------- ----- ------------
_CODE_4                00044000    00002CEA =       11498. bytes (REL,CON)

        Value  Global            Value  Global            Value  Global    
        -----  ------            -----  ------            -----  ------    
     00046827  A$ScriptR |    00046828  A$ScriptR |    0004682B  A$ScriptR
     0004682C  A$ScriptR |    0004682D  A$ScriptR |    0004682E  A$ScriptR
     0004682E  C$ScriptR |    00046831  A$ScriptR |    00046834  A$ScriptR
     00046835  A$ScriptR |    00046837  A$ScriptR |    00046838  A$ScriptR
     00046839  A$ScriptR |    0004683A  A$ScriptR |    0004683B  A$ScriptR
     0004683C  A$ScriptR |    0004683F  A$ScriptR |    00046840  A$ScriptR
     00046843  A$ScriptR |    00046844  A$ScriptR |    00046845  A$ScriptR
     00046846  A$ScriptR |    00046846  C$ScriptR |    00046849  A$ScriptR
     0004684C  A$ScriptR |    0004684D  A$ScriptR |    0004684F  A$ScriptR
     00046850  A$ScriptR |    00046851  A$ScriptR |    00046852  A$ScriptR
     00046853  A$ScriptR |    00046854  A$ScriptR |    00046857  A$ScriptR
     00046858  A$ScriptR |    0004685B  A$ScriptR |    0004685C  A$ScriptR
     0004685D  A$ScriptR |    0004685E  A$ScriptR |    0004685E  C$ScriptR
     0004685F  A$ScriptR |    00046860  A$ScriptR |    00046861  A$ScriptR
     00046864  A$ScriptR |    00046866  A$ScriptR |    00046866  C$ScriptR
     00046869  A$ScriptR |    0004686A  A$ScriptR |    0004686B  A$ScriptR
     0004686E  A$ScriptR |    0004686F  A$ScriptR |    0004686F  C$ScriptR
     00046872  A$ScriptR |    00046874  A$ScriptR |    00046875  A$ScriptR
     00046877  A$ScriptR |    00046877  C$ScriptR |    00046879  A$ScriptR
     00046879  C$ScriptR |    00046879  XG$Script |    0004687A  A$ScriptR
     0004687A  C$ScriptR |    0004687A  C$ScriptR |    0004687A  G$Script_
     0004687A  _Script_S |    0004687D  A$ScriptR |    0004687E  A$ScriptR
     0004687E  C$ScriptR |    00046881  A$ScriptR |    00046882  A$ScriptR
     00046884  A$ScriptR |    00046884  C$ScriptR |    00046887  A$ScriptR
     00046888  A$ScriptR |    00046889  A$ScriptR |    0004688A  A$ScriptR
     0004688C  A$ScriptR |    0004688C  C$ScriptR |    0004688D  A$ScriptR
     0004688E  A$ScriptR |    00046891  A$ScriptR |    00046892  A$ScriptR
     00046893  A$ScriptR |    00046893  C$ScriptR |    00046895  A$ScriptR
     00046895  C$ScriptR |    00046897  A$ScriptR |    00046899  A$ScriptR
     0004689A  A$ScriptR |    0004689B  A$ScriptR |    0004689D  A$ScriptR
     0004689D  C$ScriptR |    0004689E  A$ScriptR |    0004689E  C$ScriptR
     000468A0  A$ScriptR |    000468A2  A$ScriptR |    000468A2  C$ScriptR
     000468A4  A$ScriptR |    000468A5  A$ScriptR |    000468A6  A$ScriptR
     000468A7  A$ScriptR |    000468A8  A$ScriptR |    000468AA  A$ScriptR
     000468AB  A$ScriptR |    000468AC  A$ScriptR |    000468AE  A$ScriptR
     000468AF  A$ScriptR |    000468B0  A$ScriptR |    000468B3  A$ScriptR
     000468B4  A$ScriptR |    000468B4  C$ScriptR |    000468B5  A$ScriptR
     000468B8  A$ScriptR |    000468B9  A$ScriptR |    000468BB  A$ScriptR
     000468BE  A$ScriptR |    000468BF  A$ScriptR |    000468C1  A$ScriptR
     000468C2  A$ScriptR |    000468C3  A$ScriptR |    000468C4  A$ScriptR
     000468C5  A$ScriptR |    000468C6  A$ScriptR |    000468C7  A$ScriptR
     000468C8  A$ScriptR |    000468C9  A$ScriptR |    000468C9  C$ScriptR
     000468C9  XG$Script |    000468CA  A$ScriptR |    000468CA  C$ScriptR
     000468CA  C$ScriptR |    000468CA  G$Script_ |    000468CA  _Script_R
     000468CD  A$ScriptR |    000468CE  A$ScriptR |    000468CE  C$ScriptR
     000468D0  A$ScriptR |    000468D0  C$ScriptR |    000468D2  A$ScriptR
     000468D4  A$ScriptR |    000468D4  C$ScriptR |    000468D5  A$ScriptR
     000468D7  A$ScriptR |    000468D8  A$ScriptR |    000468D9  A$ScriptR
     000468DA  A$ScriptR |    000468DB  A$ScriptR |    000468DE  A$ScriptR
     000468DF  A$ScriptR |    000468E1  A$ScriptR |    000468E1  C$ScriptR
     000468E3  A$ScriptR |    000468E3  C$ScriptR |    000468E4  A$ScriptR
ASxxxx Linker V03.00 + NoICE + sdld,  page 170.
Hexadecimal  [32-Bits]

Area                       Addr        Size        Decimal Bytes (Attributes)
--------------------       ----        ----        ------- ----- ------------
_CODE_4                00044000    00002CEA =       11498. bytes (REL,CON)

        Value  Global            Value  Global            Value  Global    
        -----  ------            -----  ------            -----  ------    
     000468E5  A$ScriptR |    000468E7  A$ScriptR |    000468E9  A$ScriptR
     000468E9  C$ScriptR |    000468E9  XG$Script |    000468EA  A$ScriptR
     000468EA  C$ScriptR |    000468EA  G$Script_ |    000468EA  _Script_A
     000468EC  A$ScriptR |    000468EC  C$ScriptR |    000468EF  A$ScriptR
     000468F0  A$ScriptR |    000468F2  A$ScriptR |    000468F3  A$ScriptR
     000468F4  A$ScriptR |    000468F5  A$ScriptR |    000468F6  A$ScriptR
     000468F7  A$ScriptR |    000468F8  A$ScriptR |    000468F9  A$ScriptR
     000468FA  A$ScriptR |    000468FB  A$ScriptR |    000468FC  A$ScriptR
     000468FF  A$ScriptR |    00046900  A$ScriptR |    00046903  A$ScriptR
     00046904  A$ScriptR |    00046906  A$ScriptR |    00046906  C$ScriptR
     00046909  A$ScriptR |    0004690A  A$ScriptR |    0004690C  A$ScriptR
     0004690D  A$ScriptR |    0004690E  A$ScriptR |    0004690F  A$ScriptR
     00046910  A$ScriptR |    00046911  A$ScriptR |    00046912  A$ScriptR
     00046913  A$ScriptR |    00046914  A$ScriptR |    00046915  A$ScriptR
     00046916  A$ScriptR |    00046918  A$ScriptR |    00046919  A$ScriptR
     0004691A  A$ScriptR |    0004691C  A$ScriptR |    0004691D  A$ScriptR
     0004691E  A$ScriptR |    00046921  A$ScriptR |    00046922  A$ScriptR
     00046923  A$ScriptR |    00046924  A$ScriptR |    00046925  A$ScriptR
     00046928  A$ScriptR |    00046929  A$ScriptR |    0004692A  A$ScriptR
     0004692D  A$ScriptR |    0004692E  A$ScriptR |    0004692F  A$ScriptR
     00046930  A$ScriptR |    00046931  A$ScriptR |    00046932  A$ScriptR
     00046933  A$ScriptR |    00046936  A$ScriptR |    00046938  A$ScriptR
     00046939  A$ScriptR |    0004693A  A$ScriptR |    0004693B  A$ScriptR
     0004693C  A$ScriptR |    0004693C  C$ScriptR |    0004693F  A$ScriptR
     00046940  A$ScriptR |    00046942  A$ScriptR |    00046943  A$ScriptR
     00046944  A$ScriptR |    00046945  A$ScriptR |    00046946  A$ScriptR
     00046947  A$ScriptR |    00046948  A$ScriptR |    00046949  A$ScriptR
     0004694A  A$ScriptR |    0004694B  A$ScriptR |    0004694C  A$ScriptR
     0004694F  A$ScriptR |    00046950  A$ScriptR |    00046953  A$ScriptR
     00046954  A$ScriptR |    00046956  A$ScriptR |    00046958  A$ScriptR
     00046958  C$ScriptR |    00046958  XG$Script |    00046959  A$ScriptR
     00046959  C$ScriptR |    00046959  G$Script_ |    00046959  _Script_A
     0004695B  A$ScriptR |    0004695B  C$ScriptR |    0004695E  A$ScriptR
     0004695F  A$ScriptR |    00046961  A$ScriptR |    00046962  A$ScriptR
     00046963  A$ScriptR |    00046964  A$ScriptR |    00046965  A$ScriptR
     00046966  A$ScriptR |    00046967  A$ScriptR |    00046968  A$ScriptR
     00046969  A$ScriptR |    0004696A  A$ScriptR |    0004696B  A$ScriptR
     0004696E  A$ScriptR |    0004696F  A$ScriptR |    00046972  A$ScriptR
     00046973  A$ScriptR |    00046975  A$ScriptR |    00046975  C$ScriptR
     00046978  A$ScriptR |    00046979  A$ScriptR |    0004697B  A$ScriptR
     0004697C  A$ScriptR |    0004697D  A$ScriptR |    0004697E  A$ScriptR
     0004697F  A$ScriptR |    00046980  A$ScriptR |    00046981  A$ScriptR
     00046982  A$ScriptR |    00046983  A$ScriptR |    00046984  A$ScriptR
     00046985  A$ScriptR |    00046987  A$ScriptR |    00046988  A$ScriptR
     00046989  A$ScriptR |    0004698B  A$ScriptR |    0004698C  A$ScriptR
     0004698D  A$ScriptR |    00046990  A$ScriptR |    00046991  A$ScriptR
     00046992  A$ScriptR |    00046993  A$ScriptR |    00046994  A$ScriptR
     00046997  A$ScriptR |    00046998  A$ScriptR |    0004699A  A$ScriptR
     0004699D  A$ScriptR |    0004699E  A$ScriptR |    000469A0  A$ScriptR
     000469A1  A$ScriptR |    000469A4  A$ScriptR |    000469A5  A$ScriptR
     000469A6  A$ScriptR |    000469A6  C$ScriptR |    000469A9  A$ScriptR
ASxxxx Linker V03.00 + NoICE + sdld,  page 171.
Hexadecimal  [32-Bits]

Area                       Addr        Size        Decimal Bytes (Attributes)
--------------------       ----        ----        ------- ----- ------------
_CODE_4                00044000    00002CEA =       11498. bytes (REL,CON)

        Value  Global            Value  Global            Value  Global    
        -----  ------            -----  ------            -----  ------    
     000469AA  A$ScriptR |    000469AB  A$ScriptR |    000469AC  A$ScriptR
     000469AD  A$ScriptR |    000469AE  A$ScriptR |    000469AF  A$ScriptR
     000469B2  A$ScriptR |    000469B4  A$ScriptR |    000469B5  A$ScriptR
     000469B6  A$ScriptR |    000469B7  A$ScriptR |    000469B8  A$ScriptR
     000469B8  C$ScriptR |    000469BB  A$ScriptR |    000469BC  A$ScriptR
     000469BE  A$ScriptR |    000469BF  A$ScriptR |    000469C0  A$ScriptR
     000469C1  A$ScriptR |    000469C2  A$ScriptR |    000469C3  A$ScriptR
     000469C4  A$ScriptR |    000469C5  A$ScriptR |    000469C6  A$ScriptR
     000469C7  A$ScriptR |    000469C8  A$ScriptR |    000469CB  A$ScriptR
     000469CC  A$ScriptR |    000469CF  A$ScriptR |    000469D0  A$ScriptR
     000469D2  A$ScriptR |    000469D4  A$ScriptR |    000469D4  C$ScriptR
     000469D4  XG$Script |    000469D5  A$ScriptR |    000469D5  C$ScriptR
     000469D5  C$ScriptR |    000469D5  G$Script_ |    000469D5  XG$Script
     000469D5  _Script_A |    000469D6  A$ScriptR |    000469D6  C$ScriptR
     000469D6  C$ScriptR |    000469D6  G$Script_ |    000469D6  _Script_T
     000469D9  A$ScriptR |    000469DA  A$ScriptR |    000469DA  C$ScriptR
     000469DB  A$ScriptR |    000469DC  A$ScriptR |    000469DE  A$ScriptR
     000469DE  C$ScriptR |    000469E1  A$ScriptR |    000469E4  A$ScriptR
     000469E4  C$ScriptR |    000469E7  A$ScriptR |    000469E9  A$ScriptR
     000469EA  A$ScriptR |    000469EA  C$ScriptR |    000469EB  A$ScriptR
     000469EC  A$ScriptR |    000469EE  A$ScriptR |    000469EE  C$ScriptR
     000469F1  A$ScriptR |    000469F4  A$ScriptR |    000469F4  C$ScriptR
     000469F7  A$ScriptR |    000469F9  A$ScriptR |    000469FA  A$ScriptR
     000469FA  C$ScriptR |    000469FD  A$ScriptR |    000469FE  A$ScriptR
     000469FE  C$ScriptR |    000469FF  A$ScriptR |    00046A01  A$ScriptR
     00046A03  A$ScriptR |    00046A03  C$ScriptR |    00046A06  A$ScriptR
     00046A07  A$ScriptR |    00046A08  A$ScriptR |    00046A08  C$ScriptR
     00046A09  A$ScriptR |    00046A0B  A$ScriptR |    00046A0C  A$ScriptR
     00046A0C  C$ScriptR |    00046A0F  A$ScriptR |    00046A12  A$ScriptR
     00046A12  C$ScriptR |    00046A15  A$ScriptR |    00046A16  A$ScriptR
     00046A16  C$ScriptR |    00046A16  XG$Script |    00046A17  A$ScriptR
     00046A17  C$ScriptR |    00046A17  C$ScriptR |    00046A17  G$Script_
     00046A17  _Script_V |    00046A1A  A$ScriptR |    00046A1B  A$ScriptR
     00046A1D  A$ScriptR |    00046A20  A$ScriptR |    00046A21  A$ScriptR
     00046A23  A$ScriptR |    00046A24  A$ScriptR |    00046A24  C$ScriptR
     00046A27  A$ScriptR |    00046A28  A$ScriptR |    00046A29  A$ScriptR
     00046A2A  A$ScriptR |    00046A2B  A$ScriptR |    00046A2B  C$ScriptR
     00046A2E  A$ScriptR |    00046A2F  A$ScriptR |    00046A2F  C$ScriptR
     00046A30  A$ScriptR |    00046A31  A$ScriptR |    00046A31  C$ScriptR
     00046A31  XG$Script |    00046A32  A$ScriptR |    00046A32  C$ScriptR
     00046A32  C$ScriptR |    00046A32  G$Script_ |    00046A32  _Script_V
     00046A35  A$ScriptR |    00046A36  A$ScriptR |    00046A38  A$ScriptR
     00046A3B  A$ScriptR |    00046A3C  A$ScriptR |    00046A3E  A$ScriptR
     00046A3F  A$ScriptR |    00046A3F  C$ScriptR |    00046A42  A$ScriptR
     00046A43  A$ScriptR |    00046A44  A$ScriptR |    00046A45  A$ScriptR
     00046A46  A$ScriptR |    00046A47  A$ScriptR |    00046A47  C$ScriptR
     00046A4A  A$ScriptR |    00046A4A  C$ScriptR |    00046A4B  A$ScriptR
     00046A4C  A$ScriptR |    00046A4D  A$ScriptR |    00046A4D  C$ScriptR
     00046A4D  XG$Script |    00046A4E  A$ScriptR |    00046A4E  C$ScriptR
     00046A4E  C$ScriptR |    00046A4E  G$Script_ |    00046A4E  _Script_S
     00046A51  A$ScriptR |    00046A52  A$ScriptR |    00046A55  A$ScriptR
ASxxxx Linker V03.00 + NoICE + sdld,  page 172.
Hexadecimal  [32-Bits]

Area                       Addr        Size        Decimal Bytes (Attributes)
--------------------       ----        ----        ------- ----- ------------
_CODE_4                00044000    00002CEA =       11498. bytes (REL,CON)

        Value  Global            Value  Global            Value  Global    
        -----  ------            -----  ------            -----  ------    
     00046A56  A$ScriptR |    00046A58  A$ScriptR |    00046A5B  A$ScriptR
     00046A5C  A$ScriptR |    00046A5E  A$ScriptR |    00046A5F  A$ScriptR
     00046A60  A$ScriptR |    00046A61  A$ScriptR |    00046A62  A$ScriptR
     00046A65  A$ScriptR |    00046A67  A$ScriptR |    00046A67  C$ScriptR
     00046A67  XG$Script |    00046A68  A$ScriptR |    00046A68  C$ScriptR
     00046A68  C$ScriptR |    00046A68  C$ScriptR |    00046A68  G$Script_
     00046A68  XG$Script |    00046A68  _Script_S |    00046A6B  A$ScriptR
     00046A6B  C$ScriptR |    00046A6B  C$ScriptR |    00046A6B  G$Script_
     00046A6B  _Script_S |    00046A6E  A$ScriptR |    00046A6F  A$ScriptR
     00046A70  A$ScriptR |    00046A73  A$ScriptR |    00046A74  A$ScriptR
     00046A74  C$ScriptR |    00046A74  XG$Script |    00046A75  A$ScriptR
     00046A75  C$ScriptR |    00046A75  C$ScriptR |    00046A75  C$ScriptR
     00046A75  G$Script_ |    00046A75  XG$Script |    00046A75  _Script_S
     00046A78  A$ScriptR |    00046A78  C$ScriptR |    00046A78  C$ScriptR
     00046A78  G$Script_ |    00046A78  _Script_S |    00046A7B  A$ScriptR
     00046A7C  A$ScriptR |    00046A7F  A$ScriptR |    00046A7F  C$ScriptR
     00046A80  A$ScriptR |    00046A83  A$ScriptR |    00046A83  C$ScriptR
     00046A86  A$ScriptR |    00046A89  A$ScriptR |    00046A89  C$ScriptR
     00046A8C  A$ScriptR |    00046A8D  A$ScriptR |    00046A8F  A$ScriptR
     00046A90  A$ScriptR |    00046A91  A$ScriptR |    00046A92  A$ScriptR
     00046A93  A$ScriptR |    00046A94  A$ScriptR |    00046A96  A$ScriptR
     00046A97  A$ScriptR |    00046A98  A$ScriptR |    00046A99  A$ScriptR
     00046A9C  A$ScriptR |    00046A9D  A$ScriptR |    00046A9E  A$ScriptR
     00046A9F  A$ScriptR |    00046A9F  C$ScriptR |    00046A9F  XG$Script
     00046AA0  A$ScriptR |    00046AA0  C$ScriptR |    00046AA0  C$ScriptR
     00046AA0  G$Script_ |    00046AA0  _Script_R |    00046AA3  A$ScriptR
     00046AA6  A$ScriptR |    00046AA6  C$ScriptR |    00046AA6  XG$Script
     00046AA7  A$ScriptR |    00046AA7  C$ScriptR |    00046AA7  C$ScriptR
     00046AA7  G$Script_ |    00046AA7  _Script_R |    00046AAA  A$ScriptR
     00046AAC  A$ScriptR |    00046AAC  C$ScriptR |    00046AAC  XG$Script
     00046AAD  A$ScriptR |    00046AAD  C$ScriptR |    00046AAD  C$ScriptR
     00046AAD  G$Script_ |    00046AAD  _Script_T |    00046AB0  A$ScriptR
     00046AB2  A$ScriptR |    00046AB2  C$ScriptR |    00046AB5  A$ScriptR
     00046AB6  A$ScriptR |    00046AB8  A$ScriptR |    00046ABB  A$ScriptR
     00046ABC  A$ScriptR |    00046ABE  A$ScriptR |    00046ABF  A$ScriptR
     00046AC0  A$ScriptR |    00046AC1  A$ScriptR |    00046AC4  A$ScriptR
     00046AC5  A$ScriptR |    00046AC6  A$ScriptR |    00046AC7  A$ScriptR
     00046ACA  A$ScriptR |    00046ACC  A$ScriptR |    00046ACC  C$ScriptR
     00046ACF  A$ScriptR |    00046AD0  A$ScriptR |    00046AD1  A$ScriptR
     00046AD4  A$ScriptR |    00046AD5  A$ScriptR |    00046AD5  C$ScriptR
     00046AD8  A$ScriptR |    00046ADA  A$ScriptR |    00046ADB  A$ScriptR
     00046ADD  A$ScriptR |    00046ADD  C$ScriptR |    00046ADD  XG$Script
     00046ADE  A$ScriptR |    00046ADE  C$ScriptR |    00046ADE  G$Script_
     00046ADE  _Script_L |    00046AE0  A$ScriptR |    00046AE0  C$ScriptR
     00046AE3  A$ScriptR |    00046AE6  A$ScriptR |    00046AE7  A$ScriptR
     00046AE9  A$ScriptR |    00046AEA  A$ScriptR |    00046AEB  A$ScriptR
     00046AEC  A$ScriptR |    00046AED  A$ScriptR |    00046AEE  A$ScriptR
     00046AEF  A$ScriptR |    00046AF0  A$ScriptR |    00046AF1  A$ScriptR
     00046AF2  A$ScriptR |    00046AF3  A$ScriptR |    00046AF4  A$ScriptR
     00046AF5  A$ScriptR |    00046AF6  A$ScriptR |    00046AF9  A$ScriptR
     00046AFA  A$ScriptR |    00046AFB  A$ScriptR |    00046AFD  A$ScriptR
ASxxxx Linker V03.00 + NoICE + sdld,  page 173.
Hexadecimal  [32-Bits]

Area                       Addr        Size        Decimal Bytes (Attributes)
--------------------       ----        ----        ------- ----- ------------
_CODE_4                00044000    00002CEA =       11498. bytes (REL,CON)

        Value  Global            Value  Global            Value  Global    
        -----  ------            -----  ------            -----  ------    
     00046AFE  A$ScriptR |    00046AFE  C$ScriptR |    00046AFF  A$ScriptR
     00046B01  A$ScriptR |    00046B02  A$ScriptR |    00046B02  C$ScriptR
     00046B03  A$ScriptR |    00046B04  A$ScriptR |    00046B05  A$ScriptR
     00046B05  C$ScriptR |    00046B08  A$ScriptR |    00046B09  A$ScriptR
     00046B0B  A$ScriptR |    00046B0E  A$ScriptR |    00046B0F  A$ScriptR
     00046B11  A$ScriptR |    00046B12  A$ScriptR |    00046B15  A$ScriptR
     00046B16  A$ScriptR |    00046B17  A$ScriptR |    00046B17  C$ScriptR
     00046B19  A$ScriptR |    00046B1B  A$ScriptR |    00046B1B  C$ScriptR
     00046B1C  A$ScriptR |    00046B1E  A$ScriptR |    00046B1E  C$ScriptR
     00046B1F  A$ScriptR |    00046B21  A$ScriptR |    00046B23  A$ScriptR
     00046B23  C$ScriptR |    00046B25  A$ScriptR |    00046B27  A$ScriptR
     00046B27  C$ScriptR |    00046B29  A$ScriptR |    00046B2B  A$ScriptR
     00046B2B  C$ScriptR |    00046B2C  A$ScriptR |    00046B2D  A$ScriptR
     00046B2E  A$ScriptR |    00046B30  A$ScriptR |    00046B30  C$ScriptR
     00046B32  A$ScriptR |    00046B34  A$ScriptR |    00046B34  C$ScriptR
     00046B36  A$ScriptR |    00046B38  A$ScriptR |    00046B38  C$ScriptR
     00046B39  A$ScriptR |    00046B3A  A$ScriptR |    00046B3B  A$ScriptR
     00046B3D  A$ScriptR |    00046B3D  C$ScriptR |    00046B3F  A$ScriptR
     00046B41  A$ScriptR |    00046B41  C$ScriptR |    00046B42  A$ScriptR
     00046B44  A$ScriptR |    00046B44  C$ScriptR |    00046B45  A$ScriptR
     00046B47  A$ScriptR |    00046B47  C$ScriptR |    00046B4A  A$ScriptR
     00046B4B  A$ScriptR |    00046B4D  A$ScriptR |    00046B4F  A$ScriptR
     00046B51  A$ScriptR |    00046B52  A$ScriptR |    00046B53  A$ScriptR
     00046B53  C$ScriptR |    00046B55  A$ScriptR |    00046B56  A$ScriptR
     00046B57  A$ScriptR |    00046B57  C$ScriptR |    00046B5A  A$ScriptR
     00046B5C  A$ScriptR |    00046B5D  A$ScriptR |    00046B5D  C$ScriptR
     00046B5E  A$ScriptR |    00046B5F  A$ScriptR |    00046B60  A$ScriptR
     00046B61  A$ScriptR |    00046B62  A$ScriptR |    00046B63  A$ScriptR
     00046B64  A$ScriptR |    00046B66  A$ScriptR |    00046B67  A$ScriptR
     00046B68  A$ScriptR |    00046B69  A$ScriptR |    00046B6A  A$ScriptR
     00046B6C  A$ScriptR |    00046B6D  A$ScriptR |    00046B6E  A$ScriptR
     00046B6F  A$ScriptR |    00046B70  A$ScriptR |    00046B71  A$ScriptR
     00046B73  A$ScriptR |    00046B75  A$ScriptR |    00046B77  A$ScriptR
     00046B79  A$ScriptR |    00046B7B  A$ScriptR |    00046B7D  A$ScriptR
     00046B7F  A$ScriptR |    00046B81  A$ScriptR |    00046B83  A$ScriptR
     00046B84  A$ScriptR |    00046B85  A$ScriptR |    00046B86  A$ScriptR
     00046B87  A$ScriptR |    00046B88  A$ScriptR |    00046B89  A$ScriptR
     00046B8B  A$ScriptR |    00046B8C  A$ScriptR |    00046B8D  A$ScriptR
     00046B8D  C$ScriptR |    00046B8E  A$ScriptR |    00046B8F  A$ScriptR
     00046B90  A$ScriptR |    00046B91  A$ScriptR |    00046B92  A$ScriptR
     00046B94  A$ScriptR |    00046B95  A$ScriptR |    00046B96  A$ScriptR
     00046B97  A$ScriptR |    00046B98  A$ScriptR |    00046B99  A$ScriptR
     00046B9A  A$ScriptR |    00046B9B  A$ScriptR |    00046B9C  A$ScriptR
     00046B9D  A$ScriptR |    00046B9E  A$ScriptR |    00046B9F  A$ScriptR
     00046BA0  A$ScriptR |    00046BA1  A$ScriptR |    00046BA2  A$ScriptR
     00046BA2  C$ScriptR |    00046BA5  A$ScriptR |    00046BA7  A$ScriptR
     00046BA8  A$ScriptR |    00046BA9  A$ScriptR |    00046BAA  A$ScriptR
     00046BAC  A$ScriptR |    00046BAD  A$ScriptR |    00046BAE  A$ScriptR
     00046BAF  A$ScriptR |    00046BB1  A$ScriptR |    00046BB2  A$ScriptR
     00046BB3  A$ScriptR |    00046BB5  A$ScriptR |    00046BB6  A$ScriptR
     00046BB7  A$ScriptR |    00046BB8  A$ScriptR |    00046BBA  A$ScriptR
ASxxxx Linker V03.00 + NoICE + sdld,  page 174.
Hexadecimal  [32-Bits]

Area                       Addr        Size        Decimal Bytes (Attributes)
--------------------       ----        ----        ------- ----- ------------
_CODE_4                00044000    00002CEA =       11498. bytes (REL,CON)

        Value  Global            Value  Global            Value  Global    
        -----  ------            -----  ------            -----  ------    
     00046BBB  A$ScriptR |    00046BBC  A$ScriptR |    00046BBE  A$ScriptR
     00046BBF  A$ScriptR |    00046BC0  A$ScriptR |    00046BC1  A$ScriptR
     00046BC3  A$ScriptR |    00046BC4  A$ScriptR |    00046BC5  A$ScriptR
     00046BC6  A$ScriptR |    00046BC8  A$ScriptR |    00046BC9  A$ScriptR
     00046BCA  A$ScriptR |    00046BCB  A$ScriptR |    00046BCC  A$ScriptR
     00046BCD  A$ScriptR |    00046BCE  A$ScriptR |    00046BCF  A$ScriptR
     00046BD1  A$ScriptR |    00046BD2  A$ScriptR |    00046BD3  A$ScriptR
     00046BD4  A$ScriptR |    00046BD5  A$ScriptR |    00046BD6  A$ScriptR
     00046BD9  A$ScriptR |    00046BDB  A$ScriptR |    00046BDD  A$ScriptR
     00046BDD  C$ScriptR |    00046BDD  XG$Script |    00046BDE  A$ScriptR
     00046BDE  C$ScriptR |    00046BDE  G$Script_ |    00046BDE  _Script_W
     00046BE0  A$ScriptR |    00046BE0  C$ScriptR |    00046BE3  A$ScriptR
     00046BE4  A$ScriptR |    00046BE6  A$ScriptR |    00046BE7  A$ScriptR
     00046BE8  A$ScriptR |    00046BE9  A$ScriptR |    00046BEA  A$ScriptR
     00046BEB  A$ScriptR |    00046BEC  A$ScriptR |    00046BED  A$ScriptR
     00046BEE  A$ScriptR |    00046BEF  A$ScriptR |    00046BF0  A$ScriptR
     00046BF3  A$ScriptR |    00046BF4  A$ScriptR |    00046BF7  A$ScriptR
     00046BF8  A$ScriptR |    00046BF9  A$ScriptR |    00046BFB  A$ScriptR
     00046BFC  A$ScriptR |    00046BFC  C$ScriptR |    00046BFF  A$ScriptR
     00046C00  A$ScriptR |    00046C01  A$ScriptR |    00046C02  A$ScriptR
     00046C03  A$ScriptR |    00046C04  A$ScriptR |    00046C06  A$ScriptR
     00046C08  A$ScriptR |    00046C0A  A$ScriptR |    00046C0B  A$ScriptR
     00046C0C  A$ScriptR |    00046C0C  C$ScriptR |    00046C0E  A$ScriptR
     00046C0E  C$ScriptR |    00046C0F  A$ScriptR |    00046C10  A$ScriptR
     00046C11  A$ScriptR |    00046C12  A$ScriptR |    00046C13  A$ScriptR
     00046C14  A$ScriptR |    00046C15  A$ScriptR |    00046C16  A$ScriptR
     00046C17  A$ScriptR |    00046C19  A$ScriptR |    00046C1A  A$ScriptR
     00046C1B  A$ScriptR |    00046C1E  A$ScriptR |    00046C20  A$ScriptR
     00046C22  A$ScriptR |    00046C22  C$ScriptR |    00046C22  XG$Script
     00046C23  A$ScriptR |    00046C23  C$ScriptR |    00046C23  C$ScriptR
     00046C23  G$Script_ |    00046C23  _Script_P |    00046C26  A$ScriptR
     00046C27  A$ScriptR |    00046C28  A$ScriptR |    00046C2A  A$ScriptR
     00046C2B  A$ScriptR |    00046C2C  A$ScriptR |    00046C2D  A$ScriptR
     00046C2F  A$ScriptR |    00046C30  A$ScriptR |    00046C31  A$ScriptR
     00046C34  A$ScriptR |    00046C36  A$ScriptR |    00046C36  C$ScriptR
     00046C36  C$ScriptR |    00046C36  XG$Script |    00046C39  A$ScriptR
     00046C39  C$ScriptR |    00046C39  C$ScriptR |    00046C39  G$Script_
     00046C39  _Script_P |    00046C3C  A$ScriptR |    00046C3D  A$ScriptR
     00046C3E  A$ScriptR |    00046C40  A$ScriptR |    00046C41  A$ScriptR
     00046C42  A$ScriptR |    00046C43  A$ScriptR |    00046C45  A$ScriptR
     00046C46  A$ScriptR |    00046C47  A$ScriptR |    00046C4A  A$ScriptR
     00046C4C  A$ScriptR |    00046C4C  C$ScriptR |    00046C4C  C$ScriptR
     00046C4C  XG$Script |    00046C4F  A$ScriptR |    00046C4F  C$ScriptR
     00046C4F  C$ScriptR |    00046C4F  G$Script_ |    00046C4F  _Script_P
     00046C52  A$ScriptR |    00046C53  A$ScriptR |    00046C54  A$ScriptR
     00046C56  A$ScriptR |    00046C57  A$ScriptR |    00046C58  A$ScriptR
     00046C59  A$ScriptR |    00046C5B  A$ScriptR |    00046C5C  A$ScriptR
     00046C5D  A$ScriptR |    00046C60  A$ScriptR |    00046C62  A$ScriptR
     00046C62  C$ScriptR |    00046C62  C$ScriptR |    00046C62  XG$Script
     00046C65  A$ScriptR |    00046C65  C$ScriptR |    00046C65  C$ScriptR
     00046C65  G$Script_ |    00046C65  _Script_A |    00046C68  A$ScriptR
ASxxxx Linker V03.00 + NoICE + sdld,  page 175.
Hexadecimal  [32-Bits]

Area                       Addr        Size        Decimal Bytes (Attributes)
--------------------       ----        ----        ------- ----- ------------
_CODE_4                00044000    00002CEA =       11498. bytes (REL,CON)

        Value  Global            Value  Global            Value  Global    
        -----  ------            -----  ------            -----  ------    
     00046C69  A$ScriptR |    00046C6A  A$ScriptR |    00046C6C  A$ScriptR
     00046C6D  A$ScriptR |    00046C6E  A$ScriptR |    00046C6F  A$ScriptR
     00046C70  A$ScriptR |    00046C71  A$ScriptR |    00046C72  A$ScriptR
     00046C73  A$ScriptR |    00046C74  A$ScriptR |    00046C75  A$ScriptR
     00046C76  A$ScriptR |    00046C79  A$ScriptR |    00046C7A  A$ScriptR
     00046C7D  A$ScriptR |    00046C7E  A$ScriptR |    00046C80  A$ScriptR
     00046C80  C$ScriptR |    00046C81  A$ScriptR |    00046C82  A$ScriptR
     00046C83  A$ScriptR |    00046C85  A$ScriptR |    00046C86  A$ScriptR
     00046C87  A$ScriptR |    00046C88  A$ScriptR |    00046C89  A$ScriptR
     00046C8A  A$ScriptR |    00046C8B  A$ScriptR |    00046C8C  A$ScriptR
     00046C8D  A$ScriptR |    00046C8E  A$ScriptR |    00046C8F  A$ScriptR
     00046C92  A$ScriptR |    00046C93  A$ScriptR |    00046C96  A$ScriptR
     00046C97  A$ScriptR |    00046C98  A$ScriptR |    00046C99  A$ScriptR
     00046C9A  A$ScriptR |    00046C9A  C$ScriptR |    00046C9B  A$ScriptR
     00046C9C  A$ScriptR |    00046C9D  A$ScriptR |    00046C9E  A$ScriptR
     00046CA1  A$ScriptR |    00046CA3  A$ScriptR |    00046CA3  C$ScriptR
     00046CA3  XG$Script |    00046CA4  A$ScriptR |    00046CA4  C$ScriptR
     00046CA4  C$ScriptR |    00046CA4  G$Script_ |    00046CA4  _Script_A
     00046CA7  A$ScriptR |    00046CAA  A$ScriptR |    00046CAB  A$ScriptR
     00046CAD  A$ScriptR |    00046CAE  A$ScriptR |    00046CAF  A$ScriptR
     00046CB0  A$ScriptR |    00046CB1  A$ScriptR |    00046CB2  A$ScriptR
     00046CB3  A$ScriptR |    00046CB4  A$ScriptR |    00046CB5  A$ScriptR
     00046CB6  A$ScriptR |    00046CB7  A$ScriptR |    00046CB8  A$ScriptR
     00046CBB  A$ScriptR |    00046CBC  A$ScriptR |    00046CBD  A$ScriptR
     00046CBE  A$ScriptR |    00046CC1  A$ScriptR |    00046CC2  A$ScriptR
     00046CC2  C$ScriptR |    00046CC2  XG$Script |    00046CC3  A$ScriptR
     00046CC3  C$ScriptR |    00046CC3  C$ScriptR |    00046CC3  G$Script_
     00046CC3  _Script_I |    00046CC6  A$ScriptR |    00046CC8  A$ScriptR
     00046CC9  A$ScriptR |    00046CC9  C$ScriptR |    00046CCC  A$ScriptR
     00046CCD  A$ScriptR |    00046CCE  A$ScriptR |    00046CCF  A$ScriptR
     00046CD2  A$ScriptR |    00046CD3  A$ScriptR |    00046CD5  A$ScriptR
     00046CD6  A$ScriptR |    00046CD7  A$ScriptR |    00046CD8  A$ScriptR
     00046CD9  A$ScriptR |    00046CDA  A$ScriptR |    00046CDD  A$ScriptR
     00046CDE  A$ScriptR |    00046CDF  A$ScriptR |    00046CE1  A$ScriptR
     00046CE2  A$ScriptR |    00046CE3  A$ScriptR |    00046CE6  A$ScriptR
     00046CE7  A$ScriptR |    00046CE8  A$ScriptR |    00046CE9  A$ScriptR
     00046CE9  C$ScriptR |    00046CE9  XG$Script
ASxxxx Linker V03.00 + NoICE + sdld,  page 176.
Hexadecimal  [32-Bits]

Area                       Addr        Size        Decimal Bytes (Attributes)
--------------------       ----        ----        ------- ----- ------------
_CODE_5                00054000    00001B2F =        6959. bytes (REL,CON)

        Value  Global            Value  Global            Value  Global    
        -----  ------            -----  ------            -----  ------    
     00054000  A$Adventu |    00054000  C$Adventu |    00054000  C$Adventu
     00054000  G$Start_A |    00054000  _Start_Ad |    00054003  A$Adventu
     00054005  A$Adventu |    00054005  C$Adventu |    00054008  A$Adventu
     0005400A  A$Adventu |    0005400A  C$Adventu |    0005400D  A$Adventu
     0005400F  A$Adventu |    0005400F  C$Adventu |    00054012  A$Adventu
     00054014  A$Adventu |    00054014  C$Adventu |    00054014  XG$Start_
     00054015  A$Adventu |    00054015  C$Adventu |    00054015  G$Update_
     00054015  _Update_A |    00054017  A$Adventu |    00054017  C$Adventu
     0005401A  A$Adventu |    0005401C  A$Adventu |    0005401F  A$Adventu
     00054020  A$Adventu |    00054020  C$Adventu |    00054020  C$Adventu
     00054023  A$Adventu |    00054025  A$Adventu |    00054027  A$Adventu
     00054027  C$Adventu |    0005402A  A$Adventu |    0005402C  A$Adventu
     0005402C  C$Adventu |    0005402F  A$Adventu |    0005402F  C$Adventu
     00054031  A$Adventu |    00054032  A$Adventu |    00054033  A$Adventu
     00054035  A$Adventu |    00054037  A$Adventu |    00054039  A$Adventu
     00054039  C$Adventu |    0005403C  A$Adventu |    0005403E  A$Adventu
     0005403E  C$Adventu |    00054041  A$Adventu |    00054041  C$Adventu
     00054043  A$Adventu |    00054044  A$Adventu |    00054045  A$Adventu
     00054048  A$Adventu |    00054049  A$Adventu |    00054049  C$Adventu
     0005404B  A$Adventu |    0005404D  A$Adventu |    0005404D  C$Adventu
     00054050  A$Adventu |    00054052  A$Adventu |    00054052  C$Adventu
     00054055  A$Adventu |    00054055  C$Adventu |    00054057  A$Adventu
     00054058  A$Adventu |    00054059  A$Adventu |    0005405B  A$Adventu
     0005405D  A$Adventu |    0005405F  A$Adventu |    0005405F  C$Adventu
     00054062  A$Adventu |    00054064  A$Adventu |    00054064  C$Adventu
     00054067  A$Adventu |    00054067  C$Adventu |    00054069  A$Adventu
     0005406A  A$Adventu |    0005406B  A$Adventu |    0005406B  C$Adventu
     0005406E  A$Adventu |    0005406F  A$Adventu |    00054070  A$Adventu
     00054072  A$Adventu |    00054073  A$Adventu |    00054075  A$Adventu
     00054075  C$Adventu |    00054076  A$Adventu |    00054078  A$Adventu
     0005407A  A$Adventu |    0005407B  A$Adventu |    0005407D  A$Adventu
     0005407D  C$Adventu |    0005407E  A$Adventu |    00054080  A$Adventu
     00054081  A$Adventu |    00054082  A$Adventu |    00054084  A$Adventu
     00054084  C$Adventu |    00054085  A$Adventu |    00054087  A$Adventu
     00054088  A$Adventu |    0005408A  A$Adventu |    0005408A  C$Adventu
     0005408B  A$Adventu |    0005408C  A$Adventu |    0005408E  A$Adventu
     0005408F  A$Adventu |    00054090  A$Adventu |    00054091  A$Adventu
     00054092  A$Adventu |    00054094  A$Adventu |    00054096  A$Adventu
     00054097  A$Adventu |    00054098  A$Adventu |    0005409A  A$Adventu
     0005409B  A$Adventu |    0005409C  A$Adventu |    0005409E  A$Adventu
     0005409E  C$Adventu |    000540A1  A$Adventu |    000540A3  A$Adventu
     000540A5  A$Adventu |    000540A5  C$Adventu |    000540A7  A$Adventu
     000540A8  A$Adventu |    000540A9  A$Adventu |    000540AB  A$Adventu
     000540AC  A$Adventu |    000540AD  A$Adventu |    000540AF  A$Adventu
     000540B0  A$Adventu |    000540B1  A$Adventu |    000540B3  A$Adventu
     000540B5  A$Adventu |    000540B6  A$Adventu |    000540B7  A$Adventu
     000540B9  A$Adventu |    000540B9  C$Adventu |    000540BC  A$Adventu
     000540BE  A$Adventu |    000540BE  C$Adventu |    000540C0  A$Adventu
     000540C1  A$Adventu |    000540C2  A$Adventu |    000540C5  A$Adventu
     000540C6  A$Adventu |    000540C8  A$Adventu |    000540C9  A$Adventu
ASxxxx Linker V03.00 + NoICE + sdld,  page 177.
Hexadecimal  [32-Bits]

Area                       Addr        Size        Decimal Bytes (Attributes)
--------------------       ----        ----        ------- ----- ------------
_CODE_5                00054000    00001B2F =        6959. bytes (REL,CON)

        Value  Global            Value  Global            Value  Global    
        -----  ------            -----  ------            -----  ------    
     000540CA  A$Adventu |    000540CC  A$Adventu |    000540CD  A$Adventu
     000540CE  A$Adventu |    000540CF  A$Adventu |    000540D0  A$Adventu
     000540D1  A$Adventu |    000540D2  A$Adventu |    000540D5  A$Adventu
     000540D6  A$Adventu |    000540D7  A$Adventu |    000540D8  A$Adventu
     000540DA  A$Adventu |    000540DB  A$Adventu |    000540DC  A$Adventu
     000540DF  A$Adventu |    000540E0  A$Adventu |    000540E2  A$Adventu
     000540E3  A$Adventu |    000540E4  A$Adventu |    000540E5  A$Adventu
     000540E6  A$Adventu |    000540E9  A$Adventu |    000540EA  A$Adventu
     000540EB  A$Adventu |    000540EC  A$Adventu |    000540ED  A$Adventu
     000540EE  A$Adventu |    000540EF  A$Adventu |    000540F0  A$Adventu
     000540F3  A$Adventu |    000540F4  A$Adventu |    000540F5  A$Adventu
     000540F6  A$Adventu |    000540F7  A$Adventu |    000540F8  A$Adventu
     000540F9  A$Adventu |    000540FA  A$Adventu |    000540FC  A$Adventu
     000540FD  A$Adventu |    000540FE  A$Adventu |    000540FF  A$Adventu
     00054101  A$Adventu |    00054102  A$Adventu |    00054104  A$Adventu
     00054105  A$Adventu |    00054107  A$Adventu |    00054108  A$Adventu
     0005410A  A$Adventu |    0005410B  A$Adventu |    0005410D  A$Adventu
     0005410E  A$Adventu |    00054110  A$Adventu |    00054110  C$Adventu
     00054113  A$Adventu |    00054114  A$Adventu |    00054115  A$Adventu
     00054116  A$Adventu |    00054119  A$Adventu |    0005411A  A$Adventu
     0005411B  A$Adventu |    0005411C  A$Adventu |    0005411E  A$Adventu
     00054120  A$Adventu |    00054122  A$Adventu |    00054124  A$Adventu
     00054126  A$Adventu |    00054128  A$Adventu |    00054128  C$Adventu
     0005412B  A$Adventu |    0005412D  A$Adventu |    0005412F  A$Adventu
     00054132  A$Adventu |    00054134  A$Adventu |    00054136  A$Adventu
     00054136  C$Adventu |    00054137  A$Adventu |    00054138  A$Adventu
     00054139  A$Adventu |    0005413A  A$Adventu |    0005413D  A$Adventu
     0005413E  A$Adventu |    0005413F  A$Adventu |    00054140  A$Adventu
     00054140  C$Adventu |    00054142  A$Adventu |    00054144  A$Adventu
     00054144  C$Adventu |    00054145  A$Adventu |    00054147  A$Adventu
     00054148  A$Adventu |    00054149  A$Adventu |    0005414A  A$Adventu
     0005414B  A$Adventu |    0005414C  A$Adventu |    0005414D  A$Adventu
     0005414E  A$Adventu |    0005414F  A$Adventu |    00054150  A$Adventu
     00054151  A$Adventu |    00054154  A$Adventu |    00054155  A$Adventu
     00054158  A$Adventu |    00054159  A$Adventu |    0005415A  A$Adventu
     0005415B  A$Adventu |    0005415E  A$Adventu |    00054160  A$Adventu
     00054161  A$Adventu |    00054164  A$Adventu |    00054166  A$Adventu
     00054167  A$Adventu |    00054169  A$Adventu |    0005416A  A$Adventu
     0005416A  C$Adventu |    0005416C  A$Adventu |    0005416D  A$Adventu
     0005416F  A$Adventu |    00054170  A$Adventu |    00054172  A$Adventu
     00054173  A$Adventu |    00054175  A$Adventu |    00054176  A$Adventu
     00054178  A$Adventu |    00054179  A$Adventu |    0005417B  A$Adventu
     0005417C  A$Adventu |    0005417E  A$Adventu |    0005417F  A$Adventu
     00054181  A$Adventu |    00054181  C$Adventu |    00054183  A$Adventu
     00054185  A$Adventu |    00054187  A$Adventu |    00054187  C$Adventu
     00054189  A$Adventu |    0005418A  A$Adventu |    0005418B  A$Adventu
     0005418D  A$Adventu |    0005418E  A$Adventu |    0005418F  A$Adventu
     00054190  A$Adventu |    00054191  A$Adventu |    00054192  A$Adventu
     00054195  A$Adventu |    00054197  A$Adventu |    00054198  A$Adventu
     00054199  A$Adventu |    0005419A  A$Adventu |    0005419C  A$Adventu
     0005419C  C$Adventu |    0005419E  A$Adventu |    0005419F  A$Adventu
ASxxxx Linker V03.00 + NoICE + sdld,  page 178.
Hexadecimal  [32-Bits]

Area                       Addr        Size        Decimal Bytes (Attributes)
--------------------       ----        ----        ------- ----- ------------
_CODE_5                00054000    00001B2F =        6959. bytes (REL,CON)

        Value  Global            Value  Global            Value  Global    
        -----  ------            -----  ------            -----  ------    
     000541A0  A$Adventu |    000541A1  A$Adventu |    000541A4  A$Adventu
     000541A5  A$Adventu |    000541A6  A$Adventu |    000541A7  A$Adventu
     000541AA  A$Adventu |    000541AB  A$Adventu |    000541AC  A$Adventu
     000541AD  A$Adventu |    000541AD  C$Adventu |    000541B0  A$Adventu
     000541B2  A$Adventu |    000541B4  A$Adventu |    000541B4  C$Adventu
     000541B7  A$Adventu |    000541B8  A$Adventu |    000541B9  A$Adventu
     000541BA  A$Adventu |    000541BC  A$Adventu |    000541BE  A$Adventu
     000541C0  A$Adventu |    000541C2  A$Adventu |    000541C4  A$Adventu
     000541C6  A$Adventu |    000541C7  A$Adventu |    000541C8  A$Adventu
     000541C9  A$Adventu |    000541CA  A$Adventu |    000541CB  A$Adventu
     000541CE  A$Adventu |    000541D0  A$Adventu |    000541D1  A$Adventu
     000541D2  A$Adventu |    000541D4  A$Adventu |    000541D4  C$Adventu
     000541D7  A$Adventu |    000541D9  A$Adventu |    000541D9  C$Adventu
     000541DC  A$Adventu |    000541DD  A$Adventu |    000541DE  A$Adventu
     000541E0  A$Adventu |    000541E1  A$Adventu |    000541E2  A$Adventu
     000541E4  A$Adventu |    000541E6  A$Adventu |    000541E8  A$Adventu
     000541EA  A$Adventu |    000541EB  A$Adventu |    000541ED  A$Adventu
     000541EF  A$Adventu |    000541F1  A$Adventu |    000541F2  A$Adventu
     000541F4  A$Adventu |    000541F4  C$Adventu |    000541F6  A$Adventu
     000541F7  A$Adventu |    000541F8  A$Adventu |    000541F9  A$Adventu
     000541FB  A$Adventu |    000541FC  A$Adventu |    000541FD  A$Adventu
     000541FE  A$Adventu |    000541FF  A$Adventu |    00054200  A$Adventu
     00054203  A$Adventu |    00054205  A$Adventu |    00054206  A$Adventu
     00054207  A$Adventu |    00054208  A$Adventu |    0005420A  A$Adventu
     0005420A  C$Adventu |    0005420C  A$Adventu |    0005420D  A$Adventu
     0005420E  A$Adventu |    0005420F  A$Adventu |    00054212  A$Adventu
     00054213  A$Adventu |    00054214  A$Adventu |    00054215  A$Adventu
     00054216  A$Adventu |    00054217  A$Adventu |    00054218  A$Adventu
     00054219  A$Adventu |    0005421C  A$Adventu |    0005421D  A$Adventu
     0005421E  A$Adventu |    0005421E  C$Adventu |    00054221  A$Adventu
     00054223  A$Adventu |    00054225  A$Adventu |    00054225  C$Adventu
     00054228  A$Adventu |    00054229  A$Adventu |    0005422A  A$Adventu
     0005422B  A$Adventu |    0005422D  A$Adventu |    0005422F  A$Adventu
     00054231  A$Adventu |    00054233  A$Adventu |    00054235  A$Adventu
     00054237  A$Adventu |    00054238  A$Adventu |    00054239  A$Adventu
     0005423A  A$Adventu |    0005423B  A$Adventu |    0005423C  A$Adventu
     0005423F  A$Adventu |    00054241  A$Adventu |    00054242  A$Adventu
     00054243  A$Adventu |    00054245  A$Adventu |    00054245  C$Adventu
     00054248  A$Adventu |    0005424A  A$Adventu |    0005424A  C$Adventu
     0005424D  A$Adventu |    0005424E  A$Adventu |    0005424F  A$Adventu
     00054250  A$Adventu |    00054251  A$Adventu |    00054252  A$Adventu
     00054253  A$Adventu |    00054254  A$Adventu |    00054257  A$Adventu
     00054258  A$Adventu |    00054259  A$Adventu |    0005425A  A$Adventu
     0005425B  A$Adventu |    0005425C  A$Adventu |    0005425D  A$Adventu
     0005425E  A$Adventu |    0005425F  A$Adventu |    00054260  A$Adventu
     00054261  A$Adventu |    00054263  A$Adventu |    00054265  A$Adventu
     00054267  A$Adventu |    00054269  A$Adventu |    0005426B  A$Adventu
     0005426D  A$Adventu |    00054270  A$Adventu |    00054271  A$Adventu
     00054273  A$Adventu |    00054274  A$Adventu |    00054275  A$Adventu
     00054276  A$Adventu |    00054277  A$Adventu |    0005427A  A$Adventu
     0005427C  A$Adventu |    0005427D  A$Adventu |    0005427D  C$Adventu
ASxxxx Linker V03.00 + NoICE + sdld,  page 179.
Hexadecimal  [32-Bits]

Area                       Addr        Size        Decimal Bytes (Attributes)
--------------------       ----        ----        ------- ----- ------------
_CODE_5                00054000    00001B2F =        6959. bytes (REL,CON)

        Value  Global            Value  Global            Value  Global    
        -----  ------            -----  ------            -----  ------    
     0005427F  A$Adventu |    00054280  A$Adventu |    00054281  A$Adventu
     00054282  A$Adventu |    00054283  A$Adventu |    00054284  A$Adventu
     00054286  A$Adventu |    00054287  A$Adventu |    00054288  A$Adventu
     00054289  A$Adventu |    0005428A  A$Adventu |    0005428B  A$Adventu
     0005428C  A$Adventu |    0005428E  A$Adventu |    0005428F  A$Adventu
     00054290  A$Adventu |    00054291  A$Adventu |    00054293  A$Adventu
     00054294  A$Adventu |    00054296  A$Adventu |    00054297  A$Adventu
     00054299  A$Adventu |    0005429A  A$Adventu |    0005429C  A$Adventu
     0005429D  A$Adventu |    0005429F  A$Adventu |    000542A0  A$Adventu
     000542A2  A$Adventu |    000542A2  C$Adventu |    000542A3  A$Adventu
     000542A4  A$Adventu |    000542A4  C$Adventu |    000542A5  A$Adventu
     000542A6  A$Adventu |    000542A6  C$Adventu |    000542A7  A$Adventu
     000542A8  A$Adventu |    000542A9  A$Adventu |    000542A9  C$Adventu
     000542AB  A$Adventu |    000542AD  A$Adventu |    000542AF  A$Adventu
     000542AF  C$Adventu |    000542B0  A$Adventu |    000542B1  A$Adventu
     000542B2  A$Adventu |    000542B3  A$Adventu |    000542B4  A$Adventu
     000542B5  A$Adventu |    000542B6  A$Adventu |    000542B7  A$Adventu
     000542B8  A$Adventu |    000542B9  A$Adventu |    000542BC  A$Adventu
     000542BE  A$Adventu |    000542BF  A$Adventu |    000542C0  A$Adventu
     000542C1  A$Adventu |    000542C3  A$Adventu |    000542C3  C$Adventu
     000542C4  A$Adventu |    000542C5  A$Adventu |    000542C7  A$Adventu
     000542C8  A$Adventu |    000542C9  A$Adventu |    000542CA  A$Adventu
     000542CD  A$Adventu |    000542CF  A$Adventu |    000542D0  A$Adventu
     000542D1  A$Adventu |    000542D3  A$Adventu |    000542D3  C$Adventu
     000542D5  A$Adventu |    000542D6  A$Adventu |    000542D7  A$Adventu
     000542D8  A$Adventu |    000542D9  A$Adventu |    000542DA  A$Adventu
     000542DB  A$Adventu |    000542DC  A$Adventu |    000542DD  A$Adventu
     000542DE  A$Adventu |    000542E1  A$Adventu |    000542E2  A$Adventu
     000542E3  A$Adventu |    000542E4  A$Adventu |    000542E4  C$Adventu
     000542E7  A$Adventu |    000542E9  A$Adventu |    000542E9  C$Adventu
     000542EC  A$Adventu |    000542ED  A$Adventu |    000542EE  A$Adventu
     000542F0  A$Adventu |    000542F1  A$Adventu |    000542F2  A$Adventu
     000542F4  A$Adventu |    000542F6  A$Adventu |    000542F8  A$Adventu
     000542FA  A$Adventu |    000542FB  A$Adventu |    000542FD  A$Adventu
     000542FF  A$Adventu |    00054301  A$Adventu |    00054302  A$Adventu
     00054304  A$Adventu |    00054304  C$Adventu |    00054306  A$Adventu
     00054307  A$Adventu |    00054308  A$Adventu |    00054309  A$Adventu
     0005430A  A$Adventu |    0005430B  A$Adventu |    0005430C  A$Adventu
     0005430D  A$Adventu |    0005430E  A$Adventu |    0005430F  A$Adventu
     00054310  A$Adventu |    00054313  A$Adventu |    00054315  A$Adventu
     00054316  A$Adventu |    00054317  A$Adventu |    00054318  A$Adventu
     0005431A  A$Adventu |    0005431A  C$Adventu |    0005431B  A$Adventu
     0005431C  A$Adventu |    0005431E  A$Adventu |    0005431F  A$Adventu
     00054320  A$Adventu |    00054321  A$Adventu |    00054324  A$Adventu
     00054326  A$Adventu |    00054327  A$Adventu |    00054328  A$Adventu
     0005432A  A$Adventu |    0005432A  C$Adventu |    0005432C  A$Adventu
     0005432D  A$Adventu |    0005432E  A$Adventu |    0005432F  A$Adventu
     00054331  A$Adventu |    00054333  A$Adventu |    00054335  A$Adventu
     00054337  A$Adventu |    00054339  A$Adventu |    0005433B  A$Adventu
     0005433E  A$Adventu |    0005433F  A$Adventu |    00054340  A$Adventu
     00054341  A$Adventu |    00054341  C$Adventu |    00054344  A$Adventu
ASxxxx Linker V03.00 + NoICE + sdld,  page 180.
Hexadecimal  [32-Bits]

Area                       Addr        Size        Decimal Bytes (Attributes)
--------------------       ----        ----        ------- ----- ------------
_CODE_5                00054000    00001B2F =        6959. bytes (REL,CON)

        Value  Global            Value  Global            Value  Global    
        -----  ------            -----  ------            -----  ------    
     00054346  A$Adventu |    00054346  C$Adventu |    00054349  A$Adventu
     0005434A  A$Adventu |    0005434C  A$Adventu |    0005434C  C$Adventu
     0005434F  A$Adventu |    00054350  A$Adventu |    00054351  A$Adventu
     00054353  A$Adventu |    00054354  A$Adventu |    00054355  A$Adventu
     00054357  A$Adventu |    00054359  A$Adventu |    0005435B  A$Adventu
     0005435D  A$Adventu |    0005435E  A$Adventu |    00054360  A$Adventu
     00054362  A$Adventu |    00054364  A$Adventu |    00054365  A$Adventu
     00054367  A$Adventu |    00054368  A$Adventu |    00054369  A$Adventu
     0005436A  A$Adventu |    0005436B  A$Adventu |    0005436D  A$Adventu
     0005436E  A$Adventu |    0005436F  A$Adventu |    0005436F  C$Adventu
     00054372  A$Adventu |    00054373  A$Adventu |    00054373  C$Adventu
     00054374  A$Adventu |    00054376  A$Adventu |    00054377  A$Adventu
     00054378  A$Adventu |    0005437A  A$Adventu |    0005437C  A$Adventu
     0005437E  A$Adventu |    00054380  A$Adventu |    00054381  A$Adventu
     00054383  A$Adventu |    00054385  A$Adventu |    00054387  A$Adventu
     00054388  A$Adventu |    0005438A  A$Adventu |    0005438B  A$Adventu
     0005438C  A$Adventu |    0005438D  A$Adventu |    0005438E  A$Adventu
     0005438F  A$Adventu |    00054391  A$Adventu |    00054392  A$Adventu
     00054393  A$Adventu |    00054395  A$Adventu |    00054395  C$Adventu
     00054398  A$Adventu |    0005439A  A$Adventu |    0005439A  C$Adventu
     0005439C  A$Adventu |    0005439D  A$Adventu |    0005439E  A$Adventu
     0005439F  A$Adventu |    000543A0  A$Adventu |    000543A3  A$Adventu
     000543A3  C$Adventu |    000543A5  A$Adventu |    000543A6  A$Adventu
     000543A7  A$Adventu |    000543A8  A$Adventu |    000543A9  A$Adventu
     000543AC  A$Adventu |    000543AC  C$Adventu |    000543AF  A$Adventu
     000543B0  A$Adventu |    000543B1  A$Adventu |    000543B2  A$Adventu
     000543B3  A$Adventu |    000543B4  A$Adventu |    000543B5  A$Adventu
     000543B6  A$Adventu |    000543B8  A$Adventu |    000543BA  A$Adventu
     000543BC  A$Adventu |    000543BE  A$Adventu |    000543C0  A$Adventu
     000543C2  A$Adventu |    000543C2  C$Adventu |    000543C5  A$Adventu
     000543C6  A$Adventu |    000543C7  A$Adventu |    000543C8  A$Adventu
     000543CA  A$Adventu |    000543CC  A$Adventu |    000543CE  A$Adventu
     000543D0  A$Adventu |    000543D2  A$Adventu |    000543D4  A$Adventu
     000543D4  C$Adventu |    000543D5  A$Adventu |    000543D6  A$Adventu
     000543D7  A$Adventu |    000543D8  A$Adventu |    000543D9  A$Adventu
     000543DC  A$Adventu |    000543DE  A$Adventu |    000543DF  A$Adventu
     000543E0  A$Adventu |    000543E0  C$Adventu |    000543E3  A$Adventu
     000543E3  C$Adventu |    000543E4  A$Adventu |    000543E5  A$Adventu
     000543E6  A$Adventu |    000543E9  A$Adventu |    000543EA  A$Adventu
     000543EB  A$Adventu |    000543EB  C$Adventu |    000543EC  A$Adventu
     000543ED  A$Adventu |    000543EF  A$Adventu |    000543F0  A$Adventu
     000543F1  A$Adventu |    000543F3  A$Adventu |    000543F3  C$Adventu
     000543F4  A$Adventu |    000543F5  A$Adventu |    000543F6  A$Adventu
     000543F7  A$Adventu |    000543FA  A$Adventu |    000543FB  A$Adventu
     000543FC  A$Adventu |    000543FD  A$Adventu |    000543FE  A$Adventu
     00054400  A$Adventu |    00054400  C$Adventu |    00054403  A$Adventu
     00054405  A$Adventu |    00054405  C$Adventu |    00054408  A$Adventu
     00054408  C$Adventu |    00054409  A$Adventu |    0005440B  A$Adventu
     0005440C  A$Adventu |    0005440D  A$Adventu |    0005440E  A$Adventu
     0005440F  A$Adventu |    00054410  A$Adventu |    00054411  A$Adventu
     00054412  A$Adventu |    00054413  A$Adventu |    00054414  A$Adventu
ASxxxx Linker V03.00 + NoICE + sdld,  page 181.
Hexadecimal  [32-Bits]

Area                       Addr        Size        Decimal Bytes (Attributes)
--------------------       ----        ----        ------- ----- ------------
_CODE_5                00054000    00001B2F =        6959. bytes (REL,CON)

        Value  Global            Value  Global            Value  Global    
        -----  ------            -----  ------            -----  ------    
     00054415  A$Adventu |    00054416  A$Adventu |    00054419  A$Adventu
     0005441A  A$Adventu |    0005441D  A$Adventu |    0005441E  A$Adventu
     0005441F  A$Adventu |    00054420  A$Adventu |    00054422  A$Adventu
     00054422  C$Adventu |    00054425  A$Adventu |    00054427  A$Adventu
     00054427  C$Adventu |    00054428  A$Adventu |    0005442A  A$Adventu
     0005442A  C$Adventu |    0005442D  A$Adventu |    0005442F  A$Adventu
     0005442F  C$Adventu |    00054432  A$Adventu |    00054433  A$Adventu
     00054436  A$Adventu |    00054436  C$Adventu |    00054439  A$Adventu
     0005443A  A$Adventu |    0005443B  A$Adventu |    0005443C  A$Adventu
     0005443E  A$Adventu |    0005443E  C$Adventu |    00054441  A$Adventu
     00054442  A$Adventu |    00054445  A$Adventu |    00054445  C$Adventu
     00054448  A$Adventu |    00054449  A$Adventu |    0005444A  A$Adventu
     0005444B  A$Adventu |    0005444E  A$Adventu |    0005444F  A$Adventu
     00054450  A$Adventu |    00054451  A$Adventu |    00054452  A$Adventu
     00054453  A$Adventu |    00054454  A$Adventu |    00054455  A$Adventu
     00054456  A$Adventu |    00054457  A$Adventu |    00054458  A$Adventu
     0005445B  A$Adventu |    0005445C  A$Adventu |    0005445D  A$Adventu
     0005445E  A$Adventu |    0005445E  C$Adventu |    00054461  A$Adventu
     00054462  A$Adventu |    00054463  A$Adventu |    00054464  A$Adventu
     00054467  A$Adventu |    00054468  A$Adventu |    00054469  A$Adventu
     0005446A  A$Adventu |    0005446B  A$Adventu |    0005446C  A$Adventu
     0005446D  A$Adventu |    0005446E  A$Adventu |    0005446F  A$Adventu
     00054470  A$Adventu |    00054471  A$Adventu |    00054474  A$Adventu
     00054475  A$Adventu |    00054476  A$Adventu |    00054477  A$Adventu
     00054479  A$Adventu |    00054479  C$Adventu |    0005447C  A$Adventu
     0005447D  A$Adventu |    0005447F  A$Adventu |    00054480  A$Adventu
     00054481  A$Adventu |    00054482  A$Adventu |    00054483  A$Adventu
     00054486  A$Adventu |    00054487  A$Adventu |    00054488  A$Adventu
     00054489  A$Adventu |    0005448A  A$Adventu |    0005448B  A$Adventu
     0005448E  A$Adventu |    00054490  A$Adventu |    00054492  A$Adventu
     00054493  A$Adventu |    00054494  A$Adventu |    00054495  A$Adventu
     00054496  A$Adventu |    00054497  A$Adventu |    00054498  A$Adventu
     0005449B  A$Adventu |    0005449C  A$Adventu |    0005449D  A$Adventu
     0005449E  A$Adventu |    0005449E  C$Adventu |    000544A1  A$Adventu
     000544A2  A$Adventu |    000544A3  A$Adventu |    000544A4  A$Adventu
     000544A7  A$Adventu |    000544AA  A$Adventu |    000544AB  A$Adventu
     000544AC  A$Adventu |    000544AD  A$Adventu |    000544AE  A$Adventu
     000544AF  A$Adventu |    000544B0  A$Adventu |    000544B3  A$Adventu
     000544B5  A$Adventu |    000544B6  A$Adventu |    000544B7  A$Adventu
     000544B8  A$Adventu |    000544B9  A$Adventu |    000544BA  A$Adventu
     000544BB  A$Adventu |    000544BC  A$Adventu |    000544BF  A$Adventu
     000544C0  A$Adventu |    000544C1  A$Adventu |    000544C2  A$Adventu
     000544C4  A$Adventu |    000544C4  C$Adventu |    000544C4  XG$Update
     000544C5  A$Platfor |    000544C5  C$Platfor |    000544C5  C$Platfor
     000544C5  G$Start_P |    000544C5  _Start_Pl |    000544C8  A$Platfor
     000544C9  A$Platfor |    000544CA  A$Platfor |    000544CB  A$Platfor
     000544CE  A$Platfor |    000544CF  A$Platfor |    000544D0  A$Platfor
     000544D1  A$Platfor |    000544D2  A$Platfor |    000544D3  A$Platfor
     000544D4  A$Platfor |    000544D5  A$Platfor |    000544D8  A$Platfor
     000544D9  A$Platfor |    000544DA  A$Platfor |    000544DA  C$Platfor
     000544DD  A$Platfor |    000544DE  A$Platfor |    000544DF  A$Platfor
ASxxxx Linker V03.00 + NoICE + sdld,  page 182.
Hexadecimal  [32-Bits]

Area                       Addr        Size        Decimal Bytes (Attributes)
--------------------       ----        ----        ------- ----- ------------
_CODE_5                00054000    00001B2F =        6959. bytes (REL,CON)

        Value  Global            Value  Global            Value  Global    
        -----  ------            -----  ------            -----  ------    
     000544E0  A$Platfor |    000544E1  A$Platfor |    000544E2  A$Platfor
     000544E3  A$Platfor |    000544E4  A$Platfor |    000544E5  A$Platfor
     000544E6  A$Platfor |    000544E9  A$Platfor |    000544EA  A$Platfor
     000544EB  A$Platfor |    000544EB  C$Platfor |    000544EE  A$Platfor
     000544F0  A$Platfor |    000544F1  A$Platfor |    000544F3  A$Platfor
     000544F3  C$Platfor |    000544F6  A$Platfor |    000544F8  A$Platfor
     000544F9  A$Platfor |    000544FB  A$Platfor |    000544FB  C$Platfor
     000544FB  C$Platfor |    000544FE  A$Platfor |    000544FF  A$Platfor
     00054501  A$Platfor |    00054501  C$Platfor |    00054504  A$Platfor
     00054506  A$Platfor |    00054506  C$Platfor |    00054509  A$Platfor
     0005450B  A$Platfor |    0005450B  C$Platfor |    0005450E  A$Platfor
     00054510  A$Platfor |    00054510  C$Platfor |    00054513  A$Platfor
     00054514  A$Platfor |    00054515  A$Platfor |    00054516  A$Platfor
     00054518  A$Platfor |    0005451A  A$Platfor |    0005451C  A$Platfor
     0005451E  A$Platfor |    00054520  A$Platfor |    00054522  A$Platfor
     00054523  A$Platfor |    00054523  C$Platfor |    00054526  A$Platfor
     00054527  A$Platfor |    00054528  A$Platfor |    00054529  A$Platfor
     0005452B  A$Platfor |    0005452D  A$Platfor |    0005452F  A$Platfor
     00054531  A$Platfor |    00054533  A$Platfor |    00054535  A$Platfor
     00054535  C$Platfor |    00054538  A$Platfor |    0005453A  A$Platfor
     0005453A  C$Platfor |    0005453B  A$Platfor |    0005453E  A$Platfor
     00054540  A$Platfor |    00054542  A$Platfor |    00054544  A$Platfor
     00054544  C$Platfor |    00054547  A$Platfor |    00054549  A$Platfor
     00054549  C$Platfor |    0005454C  A$Platfor |    0005454E  A$Platfor
     0005454E  C$Platfor |    00054551  A$Platfor |    00054553  A$Platfor
     00054553  C$Platfor |    00054556  A$Platfor |    00054558  A$Platfor
     00054558  C$Platfor |    0005455B  A$Platfor |    0005455D  A$Platfor
     0005455D  C$Platfor |    00054560  A$Platfor |    00054562  A$Platfor
     00054562  C$Platfor |    00054565  A$Platfor |    00054567  A$Platfor
     00054567  C$Platfor |    0005456A  A$Platfor |    0005456C  A$Platfor
     0005456C  C$Platfor |    0005456C  XG$Start_ |    0005456D  A$Platfor
     0005456D  C$Platfor |    0005456D  G$Update_ |    0005456D  _Update_P
     0005456F  A$Platfor |    0005456F  C$Platfor |    00054572  A$Platfor
     00054573  A$Platfor |    00054574  A$Platfor |    00054575  A$Platfor
     00054578  A$Platfor |    00054579  A$Platfor |    0005457A  A$Platfor
     0005457B  A$Platfor |    0005457C  A$Platfor |    0005457D  A$Platfor
     0005457E  A$Platfor |    0005457F  A$Platfor |    00054582  A$Platfor
     00054583  A$Platfor |    00054585  A$Platfor |    00054587  A$Platfor
     00054588  A$Platfor |    00054589  A$Platfor |    0005458A  A$Platfor
     0005458B  A$Platfor |    0005458C  A$Platfor |    0005458D  A$Platfor
     00054590  A$Platfor |    00054591  A$Platfor |    00054592  A$Platfor
     00054593  A$Platfor |    00054594  A$Platfor |    00054595  A$Platfor
     00054596  A$Platfor |    00054597  A$Platfor |    00054598  A$Platfor
     00054599  A$Platfor |    0005459C  A$Platfor |    0005459D  A$Platfor
     0005459F  A$Platfor |    000545A0  A$Platfor |    000545A2  A$Platfor
     000545A3  A$Platfor |    000545A4  A$Platfor |    000545A5  A$Platfor
     000545A6  A$Platfor |    000545A7  A$Platfor |    000545A8  A$Platfor
     000545A9  A$Platfor |    000545A9  C$Platfor |    000545AC  A$Platfor
     000545AD  A$Platfor |    000545AE  A$Platfor |    000545AF  A$Platfor
     000545B0  A$Platfor |    000545B1  A$Platfor |    000545B2  A$Platfor
     000545B3  A$Platfor |    000545B5  A$Platfor |    000545B7  A$Platfor
ASxxxx Linker V03.00 + NoICE + sdld,  page 183.
Hexadecimal  [32-Bits]

Area                       Addr        Size        Decimal Bytes (Attributes)
--------------------       ----        ----        ------- ----- ------------
_CODE_5                00054000    00001B2F =        6959. bytes (REL,CON)

        Value  Global            Value  Global            Value  Global    
        -----  ------            -----  ------            -----  ------    
     000545B9  A$Platfor |    000545BB  A$Platfor |    000545BD  A$Platfor
     000545BF  A$Platfor |    000545C1  A$Platfor |    000545C2  A$Platfor
     000545C2  C$Platfor |    000545C5  A$Platfor |    000545C6  A$Platfor
     000545C7  A$Platfor |    000545C8  A$Platfor |    000545CA  A$Platfor
     000545CC  A$Platfor |    000545CE  A$Platfor |    000545D0  A$Platfor
     000545D2  A$Platfor |    000545D4  A$Platfor |    000545D6  A$Platfor
     000545D7  A$Platfor |    000545D7  C$Platfor |    000545DA  A$Platfor
     000545DB  A$Platfor |    000545DD  A$Platfor |    000545DD  C$Platfor
     000545E0  A$Platfor |    000545E2  A$Platfor |    000545E2  C$Platfor
     000545E5  A$Platfor |    000545E7  A$Platfor |    000545E7  C$Platfor
     000545EA  A$Platfor |    000545EC  A$Platfor |    000545ED  A$Platfor
     000545EF  A$Platfor |    000545F2  A$Platfor |    000545F4  A$Platfor
     000545F5  A$Platfor |    000545F7  A$Platfor |    000545F9  A$Platfor
     000545F9  C$Platfor |    000545FC  A$Platfor |    000545FE  A$Platfor
     000545FF  A$Platfor |    00054601  A$Platfor |    00054604  A$Platfor
     00054604  C$Platfor |    00054606  A$Platfor |    00054608  A$Platfor
     0005460A  A$Platfor |    0005460A  C$Platfor |    0005460D  A$Platfor
     0005460F  A$Platfor |    00054610  A$Platfor |    00054612  A$Platfor
     00054615  A$Platfor |    00054615  C$Platfor |    00054615  C$Platfor
     00054617  A$Platfor |    00054619  A$Platfor |    0005461B  A$Platfor
     0005461B  C$Platfor |    0005461E  A$Platfor |    00054620  A$Platfor
     00054620  C$Platfor |    00054623  A$Platfor |    00054625  A$Platfor
     00054625  C$Platfor |    00054628  A$Platfor |    0005462A  A$Platfor
     0005462A  C$Platfor |    0005462D  A$Platfor |    0005462F  A$Platfor
     00054631  A$Platfor |    00054631  C$Platfor |    00054633  A$Platfor
     00054635  A$Platfor |    00054637  A$Platfor |    00054637  C$Platfor
     0005463A  A$Platfor |    0005463C  A$Platfor |    0005463C  C$Platfor
     0005463F  A$Platfor |    00054641  A$Platfor |    00054641  C$Platfor
     00054644  A$Platfor |    00054646  A$Platfor |    00054646  C$Platfor
     00054649  A$Platfor |    0005464B  A$Platfor |    0005464B  C$Platfor
     0005464E  A$Platfor |    00054650  A$Platfor |    00054651  A$Platfor
     00054653  A$Platfor |    00054656  A$Platfor |    00054656  C$Platfor
     00054659  A$Platfor |    0005465A  A$Platfor |    0005465B  A$Platfor
     0005465E  A$Platfor |    0005465F  A$Platfor |    0005465F  C$Platfor
     0005465F  C$Platfor |    00054661  A$Platfor |    00054663  A$Platfor
     00054665  A$Platfor |    00054667  A$Platfor |    00054668  A$Platfor
     0005466A  A$Platfor |    0005466B  A$Platfor |    0005466C  A$Platfor
     0005466D  A$Platfor |    0005466F  A$Platfor |    00054670  A$Platfor
     00054671  A$Platfor |    00054672  A$Platfor |    00054675  A$Platfor
     00054677  A$Platfor |    00054678  A$Platfor |    0005467A  A$Platfor
     0005467C  A$Platfor |    0005467C  C$Platfor |    0005467F  A$Platfor
     00054681  A$Platfor |    00054681  C$Platfor |    00054684  A$Platfor
     00054686  A$Platfor |    00054687  A$Platfor |    00054689  A$Platfor
     00054689  C$Platfor |    0005468C  A$Platfor |    0005468E  A$Platfor
     0005468E  C$Platfor |    00054690  A$Platfor |    00054691  A$Platfor
     00054691  C$Platfor |    00054694  A$Platfor |    00054696  A$Platfor
     00054699  A$Platfor |    00054699  C$Platfor |    0005469B  A$Platfor
     0005469E  A$Platfor |    0005469E  C$Platfor |    000546A1  A$Platfor
     000546A3  A$Platfor |    000546A6  A$Platfor |    000546A8  A$Platfor
     000546A9  A$Platfor |    000546A9  C$Platfor |    000546AB  A$Platfor
     000546AD  A$Platfor |    000546AD  C$Platfor |    000546B0  A$Platfor
ASxxxx Linker V03.00 + NoICE + sdld,  page 184.
Hexadecimal  [32-Bits]

Area                       Addr        Size        Decimal Bytes (Attributes)
--------------------       ----        ----        ------- ----- ------------
_CODE_5                00054000    00001B2F =        6959. bytes (REL,CON)

        Value  Global            Value  Global            Value  Global    
        -----  ------            -----  ------            -----  ------    
     000546B1  A$Platfor |    000546B3  A$Platfor |    000546B4  A$Platfor
     000546B5  A$Platfor |    000546B7  A$Platfor |    000546B7  C$Platfor
     000546B8  A$Platfor |    000546B9  A$Platfor |    000546BB  A$Platfor
     000546BC  A$Platfor |    000546BD  A$Platfor |    000546BF  A$Platfor
     000546C0  A$Platfor |    000546C2  A$Platfor |    000546C4  A$Platfor
     000546C6  A$Platfor |    000546C8  A$Platfor |    000546CA  A$Platfor
     000546CB  A$Platfor |    000546CD  A$Platfor |    000546CF  A$Platfor
     000546D1  A$Platfor |    000546D2  A$Platfor |    000546D4  A$Platfor
     000546D7  A$Platfor |    000546D9  A$Platfor |    000546DC  A$Platfor
     000546DE  A$Platfor |    000546DF  A$Platfor |    000546E0  A$Platfor
     000546E2  A$Platfor |    000546E3  A$Platfor |    000546E5  A$Platfor
     000546E6  A$Platfor |    000546E8  A$Platfor |    000546EA  A$Platfor
     000546EC  A$Platfor |    000546EE  A$Platfor |    000546EF  A$Platfor
     000546F1  A$Platfor |    000546F3  A$Platfor |    000546F5  A$Platfor
     000546F6  A$Platfor |    000546F8  A$Platfor |    000546FB  A$Platfor
     000546FD  A$Platfor |    00054700  A$Platfor |    00054701  A$Platfor
     00054702  A$Platfor |    00054703  A$Platfor |    00054704  A$Platfor
     00054707  A$Platfor |    00054708  A$Platfor |    00054709  A$Platfor
     0005470A  A$Platfor |    0005470C  A$Platfor |    0005470C  C$Platfor
     0005470F  A$Platfor |    00054710  A$Platfor |    00054712  A$Platfor
     00054713  A$Platfor |    00054714  A$Platfor |    00054716  A$Platfor
     00054716  C$Platfor |    00054717  A$Platfor |    00054718  A$Platfor
     0005471A  A$Platfor |    0005471B  A$Platfor |    0005471C  A$Platfor
     0005471E  A$Platfor |    0005471F  A$Platfor |    00054721  A$Platfor
     00054723  A$Platfor |    00054725  A$Platfor |    00054727  A$Platfor
     00054729  A$Platfor |    0005472A  A$Platfor |    0005472C  A$Platfor
     0005472E  A$Platfor |    00054730  A$Platfor |    00054731  A$Platfor
     00054733  A$Platfor |    00054736  A$Platfor |    00054738  A$Platfor
     0005473B  A$Platfor |    0005473D  A$Platfor |    0005473E  A$Platfor
     0005473F  A$Platfor |    00054741  A$Platfor |    00054742  A$Platfor
     00054744  A$Platfor |    00054745  A$Platfor |    00054747  A$Platfor
     00054749  A$Platfor |    0005474B  A$Platfor |    0005474D  A$Platfor
     0005474E  A$Platfor |    00054750  A$Platfor |    00054752  A$Platfor
     00054754  A$Platfor |    00054755  A$Platfor |    00054757  A$Platfor
     0005475A  A$Platfor |    0005475C  A$Platfor |    0005475F  A$Platfor
     00054760  A$Platfor |    00054761  A$Platfor |    00054762  A$Platfor
     00054763  A$Platfor |    00054766  A$Platfor |    00054767  A$Platfor
     00054768  A$Platfor |    00054769  A$Platfor |    00054769  C$Platfor
     0005476B  A$Platfor |    0005476D  A$Platfor |    00054770  A$Platfor
     00054773  A$Platfor |    00054775  A$Platfor |    00054778  A$Platfor
     00054778  C$Platfor |    0005477B  A$Platfor |    0005477D  A$Platfor
     00054780  A$Platfor |    00054780  C$Platfor |    00054781  A$Platfor
     00054784  A$Platfor |    00054784  C$Platfor |    00054787  A$Platfor
     00054789  A$Platfor |    00054789  C$Platfor |    0005478C  A$Platfor
     0005478E  A$Platfor |    0005478F  A$Platfor |    0005478F  C$Platfor
     00054791  A$Platfor |    00054793  A$Platfor |    00054793  C$Platfor
     00054796  A$Platfor |    00054797  A$Platfor |    00054799  A$Platfor
     0005479A  A$Platfor |    0005479B  A$Platfor |    0005479D  A$Platfor
     0005479D  C$Platfor |    0005479E  A$Platfor |    0005479F  A$Platfor
     000547A1  A$Platfor |    000547A2  A$Platfor |    000547A3  A$Platfor
     000547A5  A$Platfor |    000547A6  A$Platfor |    000547A8  A$Platfor
ASxxxx Linker V03.00 + NoICE + sdld,  page 185.
Hexadecimal  [32-Bits]

Area                       Addr        Size        Decimal Bytes (Attributes)
--------------------       ----        ----        ------- ----- ------------
_CODE_5                00054000    00001B2F =        6959. bytes (REL,CON)

        Value  Global            Value  Global            Value  Global    
        -----  ------            -----  ------            -----  ------    
     000547AA  A$Platfor |    000547AC  A$Platfor |    000547AE  A$Platfor
     000547B0  A$Platfor |    000547B1  A$Platfor |    000547B3  A$Platfor
     000547B5  A$Platfor |    000547B7  A$Platfor |    000547B8  A$Platfor
     000547BA  A$Platfor |    000547BD  A$Platfor |    000547BF  A$Platfor
     000547C2  A$Platfor |    000547C4  A$Platfor |    000547C5  A$Platfor
     000547C6  A$Platfor |    000547C8  A$Platfor |    000547C9  A$Platfor
     000547CB  A$Platfor |    000547CC  A$Platfor |    000547CE  A$Platfor
     000547D0  A$Platfor |    000547D2  A$Platfor |    000547D4  A$Platfor
     000547D5  A$Platfor |    000547D7  A$Platfor |    000547D9  A$Platfor
     000547DB  A$Platfor |    000547DC  A$Platfor |    000547DE  A$Platfor
     000547E1  A$Platfor |    000547E3  A$Platfor |    000547E6  A$Platfor
     000547E7  A$Platfor |    000547E8  A$Platfor |    000547E9  A$Platfor
     000547EA  A$Platfor |    000547ED  A$Platfor |    000547EE  A$Platfor
     000547EF  A$Platfor |    000547F0  A$Platfor |    000547F2  A$Platfor
     000547F2  C$Platfor |    000547F5  A$Platfor |    000547F6  A$Platfor
     000547F8  A$Platfor |    000547F9  A$Platfor |    000547FA  A$Platfor
     000547FC  A$Platfor |    000547FC  C$Platfor |    000547FD  A$Platfor
     000547FE  A$Platfor |    00054800  A$Platfor |    00054801  A$Platfor
     00054802  A$Platfor |    00054804  A$Platfor |    00054805  A$Platfor
     00054807  A$Platfor |    00054809  A$Platfor |    0005480B  A$Platfor
     0005480D  A$Platfor |    0005480F  A$Platfor |    00054810  A$Platfor
     00054812  A$Platfor |    00054814  A$Platfor |    00054816  A$Platfor
     00054817  A$Platfor |    00054819  A$Platfor |    0005481C  A$Platfor
     0005481E  A$Platfor |    00054821  A$Platfor |    00054823  A$Platfor
     00054824  A$Platfor |    00054825  A$Platfor |    00054827  A$Platfor
     00054828  A$Platfor |    0005482A  A$Platfor |    0005482B  A$Platfor
     0005482D  A$Platfor |    0005482F  A$Platfor |    00054831  A$Platfor
     00054833  A$Platfor |    00054834  A$Platfor |    00054836  A$Platfor
     00054838  A$Platfor |    0005483A  A$Platfor |    0005483B  A$Platfor
     0005483D  A$Platfor |    0005483F  A$Platfor |    00054841  A$Platfor
     00054842  A$Platfor |    00054844  A$Platfor |    00054846  A$Platfor
     00054849  A$Platfor |    0005484A  A$Platfor |    0005484B  A$Platfor
     0005484D  A$Platfor |    0005484E  A$Platfor |    0005484F  A$Platfor
     00054851  A$Platfor |    00054852  A$Platfor |    00054853  A$Platfor
     00054854  A$Platfor |    00054857  A$Platfor |    00054858  A$Platfor
     00054859  A$Platfor |    0005485A  A$Platfor |    0005485A  C$Platfor
     0005485C  A$Platfor |    0005485E  A$Platfor |    00054861  A$Platfor
     00054864  A$Platfor |    00054865  A$Platfor |    00054868  A$Platfor
     00054868  C$Platfor |    0005486B  A$Platfor |    0005486D  A$Platfor
     00054870  A$Platfor |    00054870  C$Platfor |    00054873  A$Platfor
     00054874  A$Platfor |    00054877  A$Platfor |    00054877  C$Platfor
     0005487A  A$Platfor |    0005487B  A$Platfor |    0005487D  A$Platfor
     0005487E  A$Platfor |    0005487F  A$Platfor |    00054881  A$Platfor
     00054882  A$Platfor |    00054884  A$Platfor |    00054886  A$Platfor
     00054888  A$Platfor |    0005488A  A$Platfor |    0005488C  A$Platfor
     0005488D  A$Platfor |    0005488F  A$Platfor |    00054891  A$Platfor
     00054893  A$Platfor |    00054894  A$Platfor |    00054896  A$Platfor
     00054896  C$Platfor |    00054899  A$Platfor |    0005489A  A$Platfor
     0005489C  A$Platfor |    0005489D  A$Platfor |    0005489E  A$Platfor
     000548A0  A$Platfor |    000548A0  C$Platfor |    000548A1  A$Platfor
     000548A3  A$Platfor |    000548A4  A$Platfor |    000548A5  A$Platfor
ASxxxx Linker V03.00 + NoICE + sdld,  page 186.
Hexadecimal  [32-Bits]

Area                       Addr        Size        Decimal Bytes (Attributes)
--------------------       ----        ----        ------- ----- ------------
_CODE_5                00054000    00001B2F =        6959. bytes (REL,CON)

        Value  Global            Value  Global            Value  Global    
        -----  ------            -----  ------            -----  ------    
     000548A7  A$Platfor |    000548A8  A$Platfor |    000548AA  A$Platfor
     000548AB  A$Platfor |    000548AD  A$Platfor |    000548AF  A$Platfor
     000548B1  A$Platfor |    000548B3  A$Platfor |    000548B4  A$Platfor
     000548B6  A$Platfor |    000548B8  A$Platfor |    000548BA  A$Platfor
     000548BB  A$Platfor |    000548BD  A$Platfor |    000548BD  C$Platfor
     000548C0  A$Platfor |    000548C2  A$Platfor |    000548C3  A$Platfor
     000548C5  A$Platfor |    000548C7  A$Platfor |    000548C7  C$Platfor
     000548CA  A$Platfor |    000548CC  A$Platfor |    000548CD  A$Platfor
     000548CE  A$Platfor |    000548D0  A$Platfor |    000548D1  A$Platfor
     000548D3  A$Platfor |    000548D4  A$Platfor |    000548D6  A$Platfor
     000548D8  A$Platfor |    000548DA  A$Platfor |    000548DC  A$Platfor
     000548DD  A$Platfor |    000548DF  A$Platfor |    000548E1  A$Platfor
     000548E3  A$Platfor |    000548E4  A$Platfor |    000548E6  A$Platfor
     000548E6  C$Platfor |    000548E9  A$Platfor |    000548EA  A$Platfor
     000548EC  A$Platfor |    000548ED  A$Platfor |    000548EE  A$Platfor
     000548F0  A$Platfor |    000548F0  C$Platfor |    000548F1  A$Platfor
     000548F2  A$Platfor |    000548F4  A$Platfor |    000548F5  A$Platfor
     000548F6  A$Platfor |    000548F8  A$Platfor |    000548F9  A$Platfor
     000548FB  A$Platfor |    000548FD  A$Platfor |    000548FF  A$Platfor
     00054901  A$Platfor |    00054903  A$Platfor |    00054904  A$Platfor
     00054906  A$Platfor |    00054908  A$Platfor |    0005490A  A$Platfor
     0005490B  A$Platfor |    0005490D  A$Platfor |    0005490D  C$Platfor
     00054910  A$Platfor |    00054912  A$Platfor |    00054913  A$Platfor
     00054915  A$Platfor |    00054915  C$Platfor |    00054918  A$Platfor
     00054919  A$Platfor |    0005491A  A$Platfor |    0005491B  A$Platfor
     0005491C  A$Platfor |    0005491D  A$Platfor |    00054920  A$Platfor
     00054921  A$Platfor |    00054922  A$Platfor |    00054923  A$Platfor
     00054924  A$Platfor |    00054925  A$Platfor |    00054925  C$Platfor
     00054926  A$Platfor |    00054927  A$Platfor |    00054928  A$Platfor
     00054929  A$Platfor |    0005492B  A$Platfor |    0005492D  A$Platfor
     0005492F  A$Platfor |    00054931  A$Platfor |    00054933  A$Platfor
     00054935  A$Platfor |    00054937  A$Platfor |    00054939  A$Platfor
     0005493B  A$Platfor |    0005493D  A$Platfor |    0005493F  A$Platfor
     00054941  A$Platfor |    00054943  A$Platfor |    00054945  A$Platfor
     00054947  A$Platfor |    00054948  A$Platfor |    00054948  C$Platfor
     0005494B  A$Platfor |    0005494C  A$Platfor |    0005494D  A$Platfor
     0005494E  A$Platfor |    00054950  A$Platfor |    00054952  A$Platfor
     00054954  A$Platfor |    00054956  A$Platfor |    00054958  A$Platfor
     0005495A  A$Platfor |    0005495C  A$Platfor |    0005495E  A$Platfor
     00054960  A$Platfor |    00054962  A$Platfor |    00054964  A$Platfor
     00054966  A$Platfor |    00054968  A$Platfor |    0005496A  A$Platfor
     0005496C  A$Platfor |    0005496D  A$Platfor |    0005496D  C$Platfor
     00054970  A$Platfor |    00054971  A$Platfor |    00054973  A$Platfor
     00054976  A$Platfor |    00054978  A$Platfor |    0005497A  A$Platfor
     0005497D  A$Platfor |    0005497F  A$Platfor |    00054981  A$Platfor
     00054981  C$Platfor |    00054984  A$Platfor |    00054985  A$Platfor
     00054987  A$Platfor |    00054987  C$Platfor |    00054988  A$Platfor
     00054989  A$Platfor |    0005498A  A$Platfor |    0005498B  A$Platfor
     0005498D  A$Platfor |    0005498E  A$Platfor |    0005498F  A$Platfor
     00054990  A$Platfor |    00054991  A$Platfor |    00054994  A$Platfor
     00054996  A$Platfor |    00054997  A$Platfor |    00054998  A$Platfor
ASxxxx Linker V03.00 + NoICE + sdld,  page 187.
Hexadecimal  [32-Bits]

Area                       Addr        Size        Decimal Bytes (Attributes)
--------------------       ----        ----        ------- ----- ------------
_CODE_5                00054000    00001B2F =        6959. bytes (REL,CON)

        Value  Global            Value  Global            Value  Global    
        -----  ------            -----  ------            -----  ------    
     0005499A  A$Platfor |    0005499A  C$Platfor |    0005499B  A$Platfor
     0005499C  A$Platfor |    0005499D  A$Platfor |    0005499F  A$Platfor
     000549A0  A$Platfor |    000549A1  A$Platfor |    000549A2  A$Platfor
     000549A3  A$Platfor |    000549A6  A$Platfor |    000549A8  A$Platfor
     000549A9  A$Platfor |    000549AA  A$Platfor |    000549AA  C$Platfor
     000549AB  A$Platfor |    000549AD  A$Platfor |    000549AF  A$Platfor
     000549B1  A$Platfor |    000549B1  C$Platfor |    000549B2  A$Platfor
     000549B4  A$Platfor |    000549B5  A$Platfor |    000549B6  A$Platfor
     000549B7  A$Platfor |    000549B8  A$Platfor |    000549B9  A$Platfor
     000549BA  A$Platfor |    000549BB  A$Platfor |    000549BC  A$Platfor
     000549BD  A$Platfor |    000549BE  A$Platfor |    000549C1  A$Platfor
     000549C2  A$Platfor |    000549C5  A$Platfor |    000549C6  A$Platfor
     000549C7  A$Platfor |    000549C8  A$Platfor |    000549CB  A$Platfor
     000549CD  A$Platfor |    000549CE  A$Platfor |    000549CE  C$Platfor
     000549D1  A$Platfor |    000549D3  A$Platfor |    000549D5  A$Platfor
     000549D8  A$Platfor |    000549DA  A$Platfor |    000549DC  A$Platfor
     000549DF  A$Platfor |    000549E0  A$Platfor |    000549E2  A$Platfor
     000549E5  A$Platfor |    000549E6  A$Platfor |    000549E7  A$Platfor
     000549E8  A$Platfor |    000549E9  A$Platfor |    000549EB  A$Platfor
     000549ED  A$Platfor |    000549EF  A$Platfor |    000549F1  A$Platfor
     000549F3  A$Platfor |    000549F5  A$Platfor |    000549F7  A$Platfor
     000549F9  A$Platfor |    000549FA  A$Platfor |    000549FC  A$Platfor
     000549FD  A$Platfor |    000549FF  A$Platfor |    00054A00  A$Platfor
     00054A00  C$Platfor |    00054A01  A$Platfor |    00054A03  A$Platfor
     00054A04  A$Platfor |    00054A06  A$Platfor |    00054A06  C$Platfor
     00054A07  A$Platfor |    00054A08  A$Platfor |    00054A09  A$Platfor
     00054A0B  A$Platfor |    00054A0C  A$Platfor |    00054A0D  A$Platfor
     00054A0E  A$Platfor |    00054A11  A$Platfor |    00054A13  A$Platfor
     00054A14  A$Platfor |    00054A16  A$Platfor |    00054A18  A$Platfor
     00054A18  C$Platfor |    00054A1B  A$Platfor |    00054A1C  A$Platfor
     00054A1D  A$Platfor |    00054A1E  A$Platfor |    00054A1F  A$Platfor
     00054A21  A$Platfor |    00054A23  A$Platfor |    00054A25  A$Platfor
     00054A27  A$Platfor |    00054A29  A$Platfor |    00054A2B  A$Platfor
     00054A2D  A$Platfor |    00054A2F  A$Platfor |    00054A30  A$Platfor
     00054A32  A$Platfor |    00054A34  A$Platfor |    00054A34  C$Platfor
     00054A35  A$Platfor |    00054A36  A$Platfor |    00054A37  A$Platfor
     00054A38  A$Platfor |    00054A39  A$Platfor |    00054A3A  A$Platfor
     00054A3D  A$Platfor |    00054A3F  A$Platfor |    00054A41  A$Platfor
     00054A43  A$Platfor |    00054A43  C$Platfor |    00054A46  A$Platfor
     00054A48  A$Platfor |    00054A49  A$Platfor |    00054A4B  A$Platfor
     00054A4B  C$Platfor |    00054A4E  A$Platfor |    00054A50  A$Platfor
     00054A50  C$Platfor |    00054A53  A$Platfor |    00054A54  A$Platfor
     00054A56  A$Platfor |    00054A56  C$Platfor |    00054A59  A$Platfor
     00054A5B  A$Platfor |    00054A5D  A$Platfor |    00054A60  A$Platfor
     00054A61  A$Platfor |    00054A63  A$Platfor |    00054A64  A$Platfor
     00054A65  A$Platfor |    00054A67  A$Platfor |    00054A68  A$Platfor
     00054A6A  A$Platfor |    00054A6C  A$Platfor |    00054A6E  A$Platfor
     00054A70  A$Platfor |    00054A72  A$Platfor |    00054A73  A$Platfor
     00054A75  A$Platfor |    00054A77  A$Platfor |    00054A79  A$Platfor
     00054A7A  A$Platfor |    00054A7C  A$Platfor |    00054A7C  C$Platfor
     00054A7F  A$Platfor |    00054A80  A$Platfor |    00054A81  A$Platfor
ASxxxx Linker V03.00 + NoICE + sdld,  page 188.
Hexadecimal  [32-Bits]

Area                       Addr        Size        Decimal Bytes (Attributes)
--------------------       ----        ----        ------- ----- ------------
_CODE_5                00054000    00001B2F =        6959. bytes (REL,CON)

        Value  Global            Value  Global            Value  Global    
        -----  ------            -----  ------            -----  ------    
     00054A82  A$Platfor |    00054A84  A$Platfor |    00054A85  A$Platfor
     00054A87  A$Platfor |    00054A87  C$Platfor |    00054A8A  A$Platfor
     00054A8B  A$Platfor |    00054A8C  A$Platfor |    00054A8D  A$Platfor
     00054A8F  A$Platfor |    00054A90  A$Platfor |    00054A90  C$Platfor
     00054A93  A$Platfor |    00054A94  A$Platfor |    00054A96  A$Platfor
     00054A97  A$Platfor |    00054A98  A$Platfor |    00054A9A  A$Platfor
     00054A9B  A$Platfor |    00054A9D  A$Platfor |    00054A9F  A$Platfor
     00054AA1  A$Platfor |    00054AA3  A$Platfor |    00054AA5  A$Platfor
     00054AA6  A$Platfor |    00054AA8  A$Platfor |    00054AAA  A$Platfor
     00054AAC  A$Platfor |    00054AAD  A$Platfor |    00054AAF  A$Platfor
     00054AB2  A$Platfor |    00054AB3  A$Platfor |    00054AB4  A$Platfor
     00054AB5  A$Platfor |    00054AB6  A$Platfor |    00054AB8  A$Platfor
     00054ABB  A$Platfor |    00054ABE  A$Platfor |    00054ABF  A$Platfor
     00054AC0  A$Platfor |    00054AC1  A$Platfor |    00054AC1  C$Platfor
     00054AC2  A$Platfor |    00054AC3  A$Platfor |    00054AC4  A$Platfor
     00054AC5  A$Platfor |    00054AC6  A$Platfor |    00054AC9  A$Platfor
     00054ACA  A$Platfor |    00054ACB  A$Platfor |    00054ACC  A$Platfor
     00054ACD  A$Platfor |    00054ACE  A$Platfor |    00054ACE  C$Platfor
     00054ACF  A$Platfor |    00054AD0  A$Platfor |    00054AD1  A$Platfor
     00054AD2  A$Platfor |    00054AD4  A$Platfor |    00054AD6  A$Platfor
     00054AD8  A$Platfor |    00054ADA  A$Platfor |    00054ADC  A$Platfor
     00054ADE  A$Platfor |    00054AE0  A$Platfor |    00054AE2  A$Platfor
     00054AE4  A$Platfor |    00054AE6  A$Platfor |    00054AE8  A$Platfor
     00054AEA  A$Platfor |    00054AEC  A$Platfor |    00054AEE  A$Platfor
     00054AF0  A$Platfor |    00054AF1  A$Platfor |    00054AF1  C$Platfor
     00054AF4  A$Platfor |    00054AF5  A$Platfor |    00054AF6  A$Platfor
     00054AF7  A$Platfor |    00054AF8  A$Platfor |    00054AF9  A$Platfor
     00054AFB  A$Platfor |    00054AFC  A$Platfor |    00054AFD  A$Platfor
     00054AFF  A$Platfor |    00054B00  A$Platfor |    00054B02  A$Platfor
     00054B04  A$Platfor |    00054B06  A$Platfor |    00054B08  A$Platfor
     00054B0A  A$Platfor |    00054B0C  A$Platfor |    00054B0E  A$Platfor
     00054B10  A$Platfor |    00054B12  A$Platfor |    00054B14  A$Platfor
     00054B16  A$Platfor |    00054B18  A$Platfor |    00054B1A  A$Platfor
     00054B1C  A$Platfor |    00054B1C  C$Platfor |    00054B1F  A$Platfor
     00054B20  A$Platfor |    00054B22  A$Platfor |    00054B23  A$Platfor
     00054B24  A$Platfor |    00054B26  A$Platfor |    00054B27  A$Platfor
     00054B29  A$Platfor |    00054B2B  A$Platfor |    00054B2D  A$Platfor
     00054B2F  A$Platfor |    00054B31  A$Platfor |    00054B32  A$Platfor
     00054B34  A$Platfor |    00054B36  A$Platfor |    00054B38  A$Platfor
     00054B39  A$Platfor |    00054B3B  A$Platfor |    00054B3B  C$Platfor
     00054B3C  A$Platfor |    00054B3E  A$Platfor |    00054B3F  A$Platfor
     00054B40  A$Platfor |    00054B41  A$Platfor |    00054B42  A$Platfor
     00054B43  A$Platfor |    00054B44  A$Platfor |    00054B45  A$Platfor
     00054B48  A$Platfor |    00054B4A  A$Platfor |    00054B4B  A$Platfor
     00054B4D  A$Platfor |    00054B4F  A$Platfor |    00054B4F  C$Platfor
     00054B50  A$Platfor |    00054B51  A$Platfor |    00054B52  A$Platfor
     00054B53  A$Platfor |    00054B55  A$Platfor |    00054B56  A$Platfor
     00054B57  A$Platfor |    00054B58  A$Platfor |    00054B5B  A$Platfor
     00054B5D  A$Platfor |    00054B5E  A$Platfor |    00054B60  A$Platfor
     00054B62  A$Platfor |    00054B62  C$Platfor |    00054B65  A$Platfor
     00054B67  A$Platfor |    00054B68  A$Platfor |    00054B6A  A$Platfor
ASxxxx Linker V03.00 + NoICE + sdld,  page 189.
Hexadecimal  [32-Bits]

Area                       Addr        Size        Decimal Bytes (Attributes)
--------------------       ----        ----        ------- ----- ------------
_CODE_5                00054000    00001B2F =        6959. bytes (REL,CON)

        Value  Global            Value  Global            Value  Global    
        -----  ------            -----  ------            -----  ------    
     00054B6A  C$Platfor |    00054B6C  A$Platfor |    00054B6D  A$Platfor
     00054B6F  A$Platfor |    00054B70  A$Platfor |    00054B71  A$Platfor
     00054B72  A$Platfor |    00054B73  A$Platfor |    00054B74  A$Platfor
     00054B75  A$Platfor |    00054B76  A$Platfor |    00054B77  A$Platfor
     00054B78  A$Platfor |    00054B79  A$Platfor |    00054B7A  A$Platfor
     00054B7B  A$Platfor |    00054B7E  A$Platfor |    00054B7F  A$Platfor
     00054B80  A$Platfor |    00054B80  C$Platfor |    00054B83  A$Platfor
     00054B84  A$Platfor |    00054B85  A$Platfor |    00054B86  A$Platfor
     00054B88  A$Platfor |    00054B8A  A$Platfor |    00054B8C  A$Platfor
     00054B8E  A$Platfor |    00054B90  A$Platfor |    00054B92  A$Platfor
     00054B94  A$Platfor |    00054B96  A$Platfor |    00054B98  A$Platfor
     00054B9A  A$Platfor |    00054B9C  A$Platfor |    00054B9E  A$Platfor
     00054BA0  A$Platfor |    00054BA2  A$Platfor |    00054BA4  A$Platfor
     00054BA5  A$Platfor |    00054BA5  C$Platfor |    00054BA8  A$Platfor
     00054BAA  A$Platfor |    00054BAB  A$Platfor |    00054BAC  A$Platfor
     00054BAE  A$Platfor |    00054BAF  A$Platfor |    00054BB1  A$Platfor
     00054BB2  A$Platfor |    00054BB4  A$Platfor |    00054BB6  A$Platfor
     00054BB8  A$Platfor |    00054BBA  A$Platfor |    00054BBB  A$Platfor
     00054BBD  A$Platfor |    00054BBF  A$Platfor |    00054BC1  A$Platfor
     00054BC2  A$Platfor |    00054BC4  A$Platfor |    00054BC4  C$Platfor
     00054BC6  A$Platfor |    00054BC7  A$Platfor |    00054BC8  A$Platfor
     00054BC9  A$Platfor |    00054BCA  A$Platfor |    00054BCB  A$Platfor
     00054BCC  A$Platfor |    00054BCD  A$Platfor |    00054BCE  A$Platfor
     00054BCF  A$Platfor |    00054BD2  A$Platfor |    00054BD4  A$Platfor
     00054BD5  A$Platfor |    00054BD7  A$Platfor |    00054BD9  A$Platfor
     00054BD9  C$Platfor |    00054BDA  A$Platfor |    00054BDB  A$Platfor
     00054BDC  A$Platfor |    00054BDD  A$Platfor |    00054BDE  A$Platfor
     00054BE1  A$Platfor |    00054BE3  A$Platfor |    00054BE5  A$Platfor
     00054BE7  A$Platfor |    00054BE7  C$Platfor |    00054BEA  A$Platfor
     00054BEC  A$Platfor |    00054BED  A$Platfor |    00054BEF  A$Platfor
     00054BEF  C$Platfor |    00054BF1  A$Platfor |    00054BF2  A$Platfor
     00054BF4  A$Platfor |    00054BF5  A$Platfor |    00054BF6  A$Platfor
     00054BF7  A$Platfor |    00054BF8  A$Platfor |    00054BF9  A$Platfor
     00054BFA  A$Platfor |    00054BFB  A$Platfor |    00054BFC  A$Platfor
     00054BFD  A$Platfor |    00054BFE  A$Platfor |    00054BFF  A$Platfor
     00054C02  A$Platfor |    00054C03  A$Platfor |    00054C04  A$Platfor
     00054C04  C$Platfor |    00054C07  A$Platfor |    00054C08  A$Platfor
     00054C09  A$Platfor |    00054C0A  A$Platfor |    00054C0B  A$Platfor
     00054C0D  A$Platfor |    00054C0F  A$Platfor |    00054C11  A$Platfor
     00054C13  A$Platfor |    00054C15  A$Platfor |    00054C17  A$Platfor
     00054C19  A$Platfor |    00054C1B  A$Platfor |    00054C1D  A$Platfor
     00054C1F  A$Platfor |    00054C21  A$Platfor |    00054C23  A$Platfor
     00054C25  A$Platfor |    00054C27  A$Platfor |    00054C29  A$Platfor
     00054C2A  A$Platfor |    00054C2A  C$Platfor |    00054C2C  A$Platfor
     00054C2D  A$Platfor |    00054C2E  A$Platfor |    00054C2F  A$Platfor
     00054C30  A$Platfor |    00054C31  A$Platfor |    00054C32  A$Platfor
     00054C33  A$Platfor |    00054C33  C$Platfor |    00054C34  A$Platfor
     00054C35  A$Platfor |    00054C36  A$Platfor |    00054C37  A$Platfor
     00054C39  A$Platfor |    00054C39  C$Platfor |    00054C3A  A$Platfor
     00054C3B  A$Platfor |    00054C3C  A$Platfor |    00054C3E  A$Platfor
     00054C3F  A$Platfor |    00054C40  A$Platfor |    00054C41  A$Platfor
ASxxxx Linker V03.00 + NoICE + sdld,  page 190.
Hexadecimal  [32-Bits]

Area                       Addr        Size        Decimal Bytes (Attributes)
--------------------       ----        ----        ------- ----- ------------
_CODE_5                00054000    00001B2F =        6959. bytes (REL,CON)

        Value  Global            Value  Global            Value  Global    
        -----  ------            -----  ------            -----  ------    
     00054C43  A$Platfor |    00054C44  A$Platfor |    00054C46  A$Platfor
     00054C47  A$Platfor |    00054C49  A$Platfor |    00054C4A  A$Platfor
     00054C4C  A$Platfor |    00054C4D  A$Platfor |    00054C4F  A$Platfor
     00054C50  A$Platfor |    00054C51  A$Platfor |    00054C52  A$Platfor
     00054C54  A$Platfor |    00054C55  A$Platfor |    00054C57  A$Platfor
     00054C58  A$Platfor |    00054C5A  A$Platfor |    00054C5B  A$Platfor
     00054C5D  A$Platfor |    00054C5D  C$Platfor |    00054C60  A$Platfor
     00054C61  A$Platfor |    00054C64  A$Platfor |    00054C64  C$Platfor
     00054C66  A$Platfor |    00054C67  A$Platfor |    00054C68  A$Platfor
     00054C69  A$Platfor |    00054C6A  A$Platfor |    00054C6B  A$Platfor
     00054C6C  A$Platfor |    00054C6D  A$Platfor |    00054C6E  A$Platfor
     00054C71  A$Platfor |    00054C73  A$Platfor |    00054C75  A$Platfor
     00054C77  A$Platfor |    00054C77  C$Platfor |    00054C7A  A$Platfor
     00054C7C  A$Platfor |    00054C7E  A$Platfor |    00054C7E  C$Platfor
     00054C81  A$Platfor |    00054C83  A$Platfor |    00054C83  C$Platfor
     00054C86  A$Platfor |    00054C88  A$Platfor |    00054C88  C$Platfor
     00054C8B  A$Platfor |    00054C8D  A$Platfor |    00054C8D  C$Platfor
     00054C90  A$Platfor |    00054C92  A$Platfor |    00054C94  A$Platfor
     00054C94  C$Platfor |    00054C97  A$Platfor |    00054C98  A$Platfor
     00054C99  A$Platfor |    00054C9A  A$Platfor |    00054C9B  A$Platfor
     00054C9C  A$Platfor |    00054C9F  A$Platfor |    00054CA0  A$Platfor
     00054CA1  A$Platfor |    00054CA2  A$Platfor |    00054CA3  A$Platfor
     00054CA4  A$Platfor |    00054CA5  A$Platfor |    00054CA5  C$Platfor
     00054CA8  A$Platfor |    00054CAA  A$Platfor |    00054CAB  A$Platfor
     00054CAD  A$Platfor |    00054CAD  C$Platfor |    00054CAF  A$Platfor
     00054CB0  A$Platfor |    00054CB1  A$Platfor |    00054CB2  A$Platfor
     00054CB4  A$Platfor |    00054CB5  A$Platfor |    00054CB6  A$Platfor
     00054CB7  A$Platfor |    00054CBA  A$Platfor |    00054CBC  A$Platfor
     00054CBD  A$Platfor |    00054CBD  C$Platfor |    00054CC0  A$Platfor
     00054CC1  A$Platfor |    00054CC3  A$Platfor |    00054CC4  A$Platfor
     00054CC5  A$Platfor |    00054CC7  A$Platfor |    00054CC8  A$Platfor
     00054CCA  A$Platfor |    00054CCC  A$Platfor |    00054CCE  A$Platfor
     00054CD0  A$Platfor |    00054CD2  A$Platfor |    00054CD3  A$Platfor
     00054CD5  A$Platfor |    00054CD7  A$Platfor |    00054CD9  A$Platfor
     00054CDA  A$Platfor |    00054CDD  A$Platfor |    00054CDD  C$Platfor
     00054CDF  A$Platfor |    00054CE2  A$Platfor |    00054CE4  A$Platfor
     00054CE7  A$Platfor |    00054CE7  C$Platfor |    00054CEA  A$Platfor
     00054CEC  A$Platfor |    00054CEC  C$Platfor |    00054CEF  A$Platfor
     00054CF1  A$Platfor |    00054CF2  A$Platfor |    00054CF4  A$Platfor
     00054CF4  C$Platfor |    00054CF6  A$Platfor |    00054CF7  A$Platfor
     00054CF8  A$Platfor |    00054CFB  A$Platfor |    00054CFC  A$Platfor
     00054CFD  A$Platfor |    00054D00  A$Platfor |    00054D00  C$Platfor
     00054D02  A$Platfor |    00054D03  A$Platfor |    00054D03  C$Platfor
     00054D04  A$Platfor |    00054D04  C$Platfor |    00054D07  A$Platfor
     00054D08  A$Platfor |    00054D0A  A$Platfor |    00054D0B  A$Platfor
     00054D0C  A$Platfor |    00054D0E  A$Platfor |    00054D0F  A$Platfor
     00054D11  A$Platfor |    00054D13  A$Platfor |    00054D15  A$Platfor
     00054D17  A$Platfor |    00054D19  A$Platfor |    00054D1A  A$Platfor
     00054D1C  A$Platfor |    00054D1E  A$Platfor |    00054D20  A$Platfor
     00054D21  A$Platfor |    00054D23  A$Platfor |    00054D24  A$Platfor
     00054D26  A$Platfor |    00054D27  A$Platfor |    00054D28  A$Platfor
ASxxxx Linker V03.00 + NoICE + sdld,  page 191.
Hexadecimal  [32-Bits]

Area                       Addr        Size        Decimal Bytes (Attributes)
--------------------       ----        ----        ------- ----- ------------
_CODE_5                00054000    00001B2F =        6959. bytes (REL,CON)

        Value  Global            Value  Global            Value  Global    
        -----  ------            -----  ------            -----  ------    
     00054D29  A$Platfor |    00054D2B  A$Platfor |    00054D2C  A$Platfor
     00054D2D  A$Platfor |    00054D2E  A$Platfor |    00054D31  A$Platfor
     00054D33  A$Platfor |    00054D34  A$Platfor |    00054D35  A$Platfor
     00054D36  A$Platfor |    00054D38  A$Platfor |    00054D38  C$Platfor
     00054D3B  A$Platfor |    00054D3C  A$Platfor |    00054D3D  A$Platfor
     00054D3E  A$Platfor |    00054D40  A$Platfor |    00054D42  A$Platfor
     00054D44  A$Platfor |    00054D46  A$Platfor |    00054D48  A$Platfor
     00054D4A  A$Platfor |    00054D4C  A$Platfor |    00054D4E  A$Platfor
     00054D4F  A$Platfor |    00054D51  A$Platfor |    00054D53  A$Platfor
     00054D53  C$Platfor |    00054D54  A$Platfor |    00054D56  A$Platfor
     00054D57  A$Platfor |    00054D58  A$Platfor |    00054D5B  A$Platfor
     00054D5D  A$Platfor |    00054D5E  A$Platfor |    00054D5F  A$Platfor
     00054D60  A$Platfor |    00054D62  A$Platfor |    00054D62  C$Platfor
     00054D65  A$Platfor |    00054D67  A$Platfor |    00054D67  C$Platfor
     00054D6A  A$Platfor |    00054D6C  A$Platfor |    00054D6D  A$Platfor
     00054D6F  A$Platfor |    00054D6F  C$Platfor |    00054D71  A$Platfor
     00054D72  A$Platfor |    00054D73  A$Platfor |    00054D76  A$Platfor
     00054D77  A$Platfor |    00054D78  A$Platfor |    00054D7B  A$Platfor
     00054D7B  C$Platfor |    00054D7E  A$Platfor |    00054D80  A$Platfor
     00054D80  C$Platfor |    00054D83  A$Platfor |    00054D84  A$Platfor
     00054D86  A$Platfor |    00054D87  A$Platfor |    00054D88  A$Platfor
     00054D8A  A$Platfor |    00054D8B  A$Platfor |    00054D8D  A$Platfor
     00054D8F  A$Platfor |    00054D91  A$Platfor |    00054D93  A$Platfor
     00054D95  A$Platfor |    00054D96  A$Platfor |    00054D98  A$Platfor
     00054D9A  A$Platfor |    00054D9C  A$Platfor |    00054D9D  A$Platfor
     00054D9F  A$Platfor |    00054D9F  C$Platfor |    00054DA1  A$Platfor
     00054DA2  A$Platfor |    00054DA3  A$Platfor |    00054DA4  A$Platfor
     00054DA5  A$Platfor |    00054DA6  A$Platfor |    00054DA7  A$Platfor
     00054DA8  A$Platfor |    00054DA9  A$Platfor |    00054DAA  A$Platfor
     00054DAB  A$Platfor |    00054DAE  A$Platfor |    00054DB0  A$Platfor
     00054DB1  A$Platfor |    00054DB3  A$Platfor |    00054DB5  A$Platfor
     00054DB5  C$Platfor |    00054DB8  A$Platfor |    00054DB9  A$Platfor
     00054DBA  A$Platfor |    00054DBB  A$Platfor |    00054DBC  A$Platfor
     00054DBE  A$Platfor |    00054DC0  A$Platfor |    00054DC2  A$Platfor
     00054DC4  A$Platfor |    00054DC6  A$Platfor |    00054DC8  A$Platfor
     00054DCA  A$Platfor |    00054DCC  A$Platfor |    00054DCD  A$Platfor
     00054DCF  A$Platfor |    00054DD1  A$Platfor |    00054DD1  C$Platfor
     00054DD2  A$Platfor |    00054DD5  A$Platfor |    00054DD7  A$Platfor
     00054DD9  A$Platfor |    00054DDB  A$Platfor |    00054DDB  C$Platfor
     00054DDE  A$Platfor |    00054DE0  A$Platfor |    00054DE1  A$Platfor
     00054DE3  A$Platfor |    00054DE3  C$Platfor |    00054DE5  A$Platfor
     00054DE6  A$Platfor |    00054DE7  A$Platfor |    00054DE8  A$Platfor
     00054DEB  A$Platfor |    00054DEC  A$Platfor |    00054DED  A$Platfor
     00054DEE  A$Platfor |    00054DF0  A$Platfor |    00054DF1  A$Platfor
     00054DF2  A$Platfor |    00054DF3  A$Platfor |    00054DF4  A$Platfor
     00054DF5  A$Platfor |    00054DF7  A$Platfor |    00054DF8  A$Platfor
     00054DFA  A$Platfor |    00054DFB  A$Platfor |    00054DFD  A$Platfor
     00054DFE  A$Platfor |    00054E00  A$Platfor |    00054E01  A$Platfor
     00054E02  A$Platfor |    00054E05  A$Platfor |    00054E07  A$Platfor
     00054E08  A$Platfor |    00054E0B  A$Platfor |    00054E0C  A$Platfor
     00054E0E  A$Platfor |    00054E0F  A$Platfor |    00054E11  A$Platfor
ASxxxx Linker V03.00 + NoICE + sdld,  page 192.
Hexadecimal  [32-Bits]

Area                       Addr        Size        Decimal Bytes (Attributes)
--------------------       ----        ----        ------- ----- ------------
_CODE_5                00054000    00001B2F =        6959. bytes (REL,CON)

        Value  Global            Value  Global            Value  Global    
        -----  ------            -----  ------            -----  ------    
     00054E12  A$Platfor |    00054E14  A$Platfor |    00054E15  A$Platfor
     00054E17  A$Platfor |    00054E17  C$Platfor |    00054E1A  A$Platfor
     00054E1B  A$Platfor |    00054E1C  A$Platfor |    00054E1D  A$Platfor
     00054E1E  A$Platfor |    00054E20  A$Platfor |    00054E22  A$Platfor
     00054E24  A$Platfor |    00054E26  A$Platfor |    00054E28  A$Platfor
     00054E2A  A$Platfor |    00054E2C  A$Platfor |    00054E2E  A$Platfor
     00054E2F  A$Platfor |    00054E31  A$Platfor |    00054E32  A$Platfor
     00054E33  A$Platfor |    00054E35  A$Platfor |    00054E36  A$Platfor
     00054E39  A$Platfor |    00054E3A  A$Platfor |    00054E3B  A$Platfor
     00054E3C  A$Platfor |    00054E3C  C$Platfor |    00054E3F  A$Platfor
     00054E40  A$Platfor |    00054E41  A$Platfor |    00054E42  A$Platfor
     00054E43  A$Platfor |    00054E45  A$Platfor |    00054E47  A$Platfor
     00054E49  A$Platfor |    00054E4B  A$Platfor |    00054E4D  A$Platfor
     00054E4F  A$Platfor |    00054E51  A$Platfor |    00054E53  A$Platfor
     00054E56  A$Platfor |    00054E57  A$Platfor |    00054E58  A$Platfor
     00054E59  A$Platfor |    00054E59  C$Platfor |    00054E5C  A$Platfor
     00054E5D  A$Platfor |    00054E5F  A$Platfor |    00054E60  A$Platfor
     00054E61  A$Platfor |    00054E62  A$Platfor |    00054E63  A$Platfor
     00054E64  A$Platfor |    00054E66  A$Platfor |    00054E67  A$Platfor
     00054E68  A$Platfor |    00054E6A  A$Platfor |    00054E6B  A$Platfor
     00054E6D  A$Platfor |    00054E6F  A$Platfor |    00054E71  A$Platfor
     00054E73  A$Platfor |    00054E75  A$Platfor |    00054E76  A$Platfor
     00054E78  A$Platfor |    00054E7A  A$Platfor |    00054E7C  A$Platfor
     00054E7D  A$Platfor |    00054E7F  A$Platfor |    00054E7F  C$Platfor
     00054E82  A$Platfor |    00054E83  A$Platfor |    00054E84  A$Platfor
     00054E85  A$Platfor |    00054E85  C$Platfor |    00054E88  A$Platfor
     00054E8A  A$Platfor |    00054E8B  A$Platfor |    00054E8D  A$Platfor
     00054E8D  C$Platfor |    00054E90  A$Platfor |    00054E92  A$Platfor
     00054E93  A$Platfor |    00054E95  A$Platfor |    00054E97  A$Platfor
     00054E97  C$Platfor |    00054E9A  A$Platfor |    00054E9B  A$Platfor
     00054E9D  A$Platfor |    00054E9E  A$Platfor |    00054E9F  A$Platfor
     00054EA0  A$Platfor |    00054EA2  A$Platfor |    00054EA3  A$Platfor
     00054EA5  A$Platfor |    00054EA6  A$Platfor |    00054EA7  A$Platfor
     00054EA8  A$Platfor |    00054EA9  A$Platfor |    00054EAA  A$Platfor
     00054EAB  A$Platfor |    00054EAC  A$Platfor |    00054EAE  A$Platfor
     00054EAE  C$Platfor |    00054EB1  A$Platfor |    00054EB2  A$Platfor
     00054EB3  A$Platfor |    00054EB4  A$Platfor |    00054EB4  C$Platfor
     00054EB7  A$Platfor |    00054EB9  A$Platfor |    00054EBA  A$Platfor
     00054EBC  A$Platfor |    00054EBC  C$Platfor |    00054EBF  A$Platfor
     00054EC1  A$Platfor |    00054EC2  A$Platfor |    00054EC4  A$Platfor
     00054EC4  C$Platfor |    00054EC7  A$Platfor |    00054EC8  A$Platfor
     00054EC9  A$Platfor |    00054ECA  A$Platfor |    00054ECA  C$Platfor
     00054ECC  A$Platfor |    00054ECE  A$Platfor |    00054ECE  C$Platfor
     00054ED1  A$Platfor |    00054ED2  A$Platfor |    00054ED3  A$Platfor
     00054ED4  A$Platfor |    00054ED4  C$Platfor |    00054ED7  A$Platfor
     00054ED9  A$Platfor |    00054EDA  A$Platfor |    00054EDC  A$Platfor
     00054EDC  C$Platfor |    00054EDF  A$Platfor |    00054EE1  A$Platfor
     00054EE2  A$Platfor |    00054EE4  A$Platfor |    00054EE6  A$Platfor
     00054EE6  C$Platfor |    00054EE9  A$Platfor |    00054EEA  A$Platfor
     00054EEB  A$Platfor |    00054EEC  A$Platfor |    00054EED  A$Platfor
     00054EF0  A$Platfor |    00054EF1  A$Platfor |    00054EF2  A$Platfor
ASxxxx Linker V03.00 + NoICE + sdld,  page 193.
Hexadecimal  [32-Bits]

Area                       Addr        Size        Decimal Bytes (Attributes)
--------------------       ----        ----        ------- ----- ------------
_CODE_5                00054000    00001B2F =        6959. bytes (REL,CON)

        Value  Global            Value  Global            Value  Global    
        -----  ------            -----  ------            -----  ------    
     00054EF3  A$Platfor |    00054EF4  A$Platfor |    00054EF5  A$Platfor
     00054EF7  A$Platfor |    00054EF8  A$Platfor |    00054EF9  A$Platfor
     00054EFA  A$Platfor |    00054EFB  A$Platfor |    00054EFC  A$Platfor
     00054EFD  A$Platfor |    00054EFE  A$Platfor |    00054F00  A$Platfor
     00054F00  C$Platfor |    00054F03  A$Platfor |    00054F05  A$Platfor
     00054F06  A$Platfor |    00054F07  A$Platfor |    00054F08  A$Platfor
     00054F09  A$Platfor |    00054F0A  A$Platfor |    00054F0B  A$Platfor
     00054F0B  C$Platfor |    00054F0E  A$Platfor |    00054F10  A$Platfor
     00054F11  A$Platfor |    00054F13  A$Platfor |    00054F13  C$Platfor
     00054F16  A$Platfor |    00054F18  A$Platfor |    00054F19  A$Platfor
     00054F1B  A$Platfor |    00054F1B  C$Platfor |    00054F1E  A$Platfor
     00054F20  A$Platfor |    00054F20  C$Platfor |    00054F23  A$Platfor
     00054F24  A$Platfor |    00054F26  A$Platfor |    00054F29  A$Platfor
     00054F2A  A$Platfor |    00054F2B  A$Platfor |    00054F2D  A$Platfor
     00054F30  A$Platfor |    00054F31  A$Platfor |    00054F33  A$Platfor
     00054F36  A$Platfor |    00054F37  A$Platfor |    00054F38  A$Platfor
     00054F3A  A$Platfor |    00054F3B  A$Platfor |    00054F3D  A$Platfor
     00054F3F  A$Platfor |    00054F42  A$Platfor |    00054F42  C$Platfor
     00054F45  A$Platfor |    00054F47  A$Platfor |    00054F49  A$Platfor
     00054F4C  A$Platfor |    00054F4D  A$Platfor |    00054F4E  A$Platfor
     00054F50  A$Platfor |    00054F52  A$Platfor |    00054F53  A$Platfor
     00054F55  A$Platfor |    00054F57  A$Platfor |    00054F58  A$Platfor
     00054F59  A$Platfor |    00054F5B  A$Platfor |    00054F5C  A$Platfor
     00054F5D  A$Platfor |    00054F5E  A$Platfor |    00054F5F  A$Platfor
     00054F60  A$Platfor |    00054F61  A$Platfor |    00054F62  A$Platfor
     00054F65  A$Platfor |    00054F67  A$Platfor |    00054F68  A$Platfor
     00054F69  A$Platfor |    00054F69  C$Platfor |    00054F6B  A$Platfor
     00054F6B  C$Platfor |    00054F6C  A$Platfor |    00054F6D  A$Platfor
     00054F6E  A$Platfor |    00054F71  A$Platfor |    00054F72  A$Platfor
     00054F73  A$Platfor |    00054F73  C$Platfor |    00054F74  A$Platfor
     00054F75  A$Platfor |    00054F77  A$Platfor |    00054F78  A$Platfor
     00054F79  A$Platfor |    00054F7B  A$Platfor |    00054F7E  A$Platfor
     00054F7E  C$Platfor |    00054F7F  A$Platfor |    00054F81  A$Platfor
     00054F82  A$Platfor |    00054F83  A$Platfor |    00054F84  A$Platfor
     00054F85  A$Platfor |    00054F86  A$Platfor |    00054F87  A$Platfor
     00054F88  A$Platfor |    00054F89  A$Platfor |    00054F8A  A$Platfor
     00054F8B  A$Platfor |    00054F8C  A$Platfor |    00054F8F  A$Platfor
     00054F90  A$Platfor |    00054F93  A$Platfor |    00054F94  A$Platfor
     00054F95  A$Platfor |    00054F96  A$Platfor |    00054F98  A$Platfor
     00054F98  C$Platfor |    00054F9B  A$Platfor |    00054F9D  A$Platfor
     00054F9D  C$Platfor |    00054F9E  A$Platfor |    00054FA0  A$Platfor
     00054FA0  C$Platfor |    00054FA0  XG$Update |    00054FA1  A$PointNC
     00054FA1  C$PointNC |    00054FA1  C$PointNC |    00054FA1  G$Start_P
     00054FA1  _Start_Po |    00054FA4  A$PointNC |    00054FA6  A$PointNC
     00054FA6  C$PointNC |    00054FA9  A$PointNC |    00054FAB  A$PointNC
     00054FAB  C$PointNC |    00054FAE  A$PointNC |    00054FB0  A$PointNC
     00054FB0  C$PointNC |    00054FB3  A$PointNC |    00054FB5  A$PointNC
     00054FB5  C$PointNC |    00054FB8  A$PointNC |    00054FBA  A$PointNC
     00054FBA  C$PointNC |    00054FBD  A$PointNC |    00054FBF  A$PointNC
     00054FBF  C$PointNC |    00054FC2  A$PointNC |    00054FC4  A$PointNC
     00054FC4  C$PointNC |    00054FC7  A$PointNC |    00054FC9  A$PointNC
ASxxxx Linker V03.00 + NoICE + sdld,  page 194.
Hexadecimal  [32-Bits]

Area                       Addr        Size        Decimal Bytes (Attributes)
--------------------       ----        ----        ------- ----- ------------
_CODE_5                00054000    00001B2F =        6959. bytes (REL,CON)

        Value  Global            Value  Global            Value  Global    
        -----  ------            -----  ------            -----  ------    
     00054FC9  C$PointNC |    00054FC9  XG$Start_ |    00054FCA  A$PointNC
     00054FCA  C$PointNC |    00054FCA  G$Update_ |    00054FCA  _Update_P
     00054FCC  A$PointNC |    00054FCC  C$PointNC |    00054FCF  A$PointNC
     00054FD0  A$PointNC |    00054FD1  A$PointNC |    00054FD2  A$PointNC
     00054FD4  A$PointNC |    00054FD6  A$PointNC |    00054FD8  A$PointNC
     00054FDA  A$PointNC |    00054FDC  A$PointNC |    00054FDE  A$PointNC
     00054FE0  A$PointNC |    00054FE1  A$PointNC |    00054FE1  C$PointNC
     00054FE4  A$PointNC |    00054FE5  A$PointNC |    00054FE6  A$PointNC
     00054FE7  A$PointNC |    00054FE9  A$PointNC |    00054FEB  A$PointNC
     00054FED  A$PointNC |    00054FEF  A$PointNC |    00054FF1  A$PointNC
     00054FF3  A$PointNC |    00054FF5  A$PointNC |    00054FF6  A$PointNC
     00054FF6  C$PointNC |    00054FF9  A$PointNC |    00054FFB  A$PointNC
     00054FFB  C$PointNC |    00054FFE  A$PointNC |    00055000  A$PointNC
     00055000  C$PointNC |    00055003  A$PointNC |    00055005  A$PointNC
     00055005  C$PointNC |    00055008  A$PointNC |    0005500A  A$PointNC
     0005500C  A$PointNC |    0005500F  A$PointNC |    00055010  A$PointNC
     00055011  A$PointNC |    00055012  A$PointNC |    00055015  A$PointNC
     00055016  A$PointNC |    00055017  A$PointNC |    0005501A  A$PointNC
     0005501C  A$PointNC |    0005501D  A$PointNC |    0005501E  A$PointNC
     00055020  A$PointNC |    00055020  C$PointNC |    00055023  A$PointNC
     00055025  A$PointNC |    00055025  C$PointNC |    00055028  A$PointNC
     0005502A  A$PointNC |    0005502C  A$PointNC |    0005502C  C$PointNC
     0005502F  A$PointNC |    00055030  A$PointNC |    00055032  A$PointNC
     00055035  A$PointNC |    00055036  A$PointNC |    00055038  A$PointNC
     00055039  A$PointNC |    0005503A  A$PointNC |    0005503B  A$PointNC
     0005503D  A$PointNC |    0005503E  A$PointNC |    00055041  A$PointNC
     00055042  A$PointNC |    00055043  A$PointNC |    00055044  A$PointNC
     00055045  A$PointNC |    00055046  A$PointNC |    00055049  A$PointNC
     0005504B  A$PointNC |    0005504C  A$PointNC |    0005504D  A$PointNC
     0005504F  A$PointNC |    0005504F  C$PointNC |    00055052  A$PointNC
     00055054  A$PointNC |    00055054  C$PointNC |    00055057  A$PointNC
     00055059  A$PointNC |    00055059  C$PointNC |    0005505C  A$PointNC
     0005505E  A$PointNC |    00055060  A$PointNC |    00055063  A$PointNC
     00055064  A$PointNC |    00055065  A$PointNC |    00055066  A$PointNC
     00055069  A$PointNC |    0005506A  A$PointNC |    0005506B  A$PointNC
     0005506E  A$PointNC |    00055070  A$PointNC |    00055071  A$PointNC
     00055072  A$PointNC |    00055074  A$PointNC |    00055074  C$PointNC
     00055077  A$PointNC |    00055079  A$PointNC |    00055079  C$PointNC
     0005507C  A$PointNC |    0005507E  A$PointNC |    00055080  A$PointNC
     00055080  C$PointNC |    00055083  A$PointNC |    00055085  A$PointNC
     00055087  A$PointNC |    0005508A  A$PointNC |    0005508B  A$PointNC
     0005508C  A$PointNC |    0005508D  A$PointNC |    00055090  A$PointNC
     00055091  A$PointNC |    00055092  A$PointNC |    00055093  A$PointNC
     00055094  A$PointNC |    00055095  A$PointNC |    00055098  A$PointNC
     0005509A  A$PointNC |    0005509B  A$PointNC |    0005509C  A$PointNC
     0005509E  A$PointNC |    0005509E  C$PointNC |    000550A1  A$PointNC
     000550A3  A$PointNC |    000550A3  C$PointNC |    000550A6  A$PointNC
     000550A8  A$PointNC |    000550A8  C$PointNC |    000550AA  A$PointNC
     000550AB  A$PointNC |    000550AC  A$PointNC |    000550AD  A$PointNC
     000550AE  A$PointNC |    000550AF  A$PointNC |    000550B0  A$PointNC
     000550B1  A$PointNC |    000550B2  A$PointNC |    000550B5  A$PointNC
ASxxxx Linker V03.00 + NoICE + sdld,  page 195.
Hexadecimal  [32-Bits]

Area                       Addr        Size        Decimal Bytes (Attributes)
--------------------       ----        ----        ------- ----- ------------
_CODE_5                00054000    00001B2F =        6959. bytes (REL,CON)

        Value  Global            Value  Global            Value  Global    
        -----  ------            -----  ------            -----  ------    
     000550B7  A$PointNC |    000550B8  A$PointNC |    000550B8  C$PointNC
     000550B9  A$PointNC |    000550BB  A$PointNC |    000550BC  A$PointNC
     000550BD  A$PointNC |    000550BF  A$PointNC |    000550C0  A$PointNC
     000550C1  A$PointNC |    000550C2  A$PointNC |    000550C3  A$PointNC
     000550C4  A$PointNC |    000550C5  A$PointNC |    000550C6  A$PointNC
     000550C9  A$PointNC |    000550CB  A$PointNC |    000550CC  A$PointNC
     000550CD  A$PointNC |    000550CE  A$PointNC |    000550CE  C$PointNC
     000550CF  A$PointNC |    000550D0  A$PointNC |    000550D2  A$PointNC
     000550D5  A$PointNC |    000550D6  A$PointNC |    000550D8  A$PointNC
     000550D8  C$PointNC |    000550D9  A$PointNC |    000550DB  A$PointNC
     000550DC  A$PointNC |    000550DD  A$PointNC |    000550DE  A$PointNC
     000550DF  A$PointNC |    000550E0  A$PointNC |    000550E1  A$PointNC
     000550E4  A$PointNC |    000550E5  A$PointNC |    000550E6  A$PointNC
     000550E7  A$PointNC |    000550E8  A$PointNC |    000550E9  A$PointNC
     000550EA  A$PointNC |    000550EB  A$PointNC |    000550ED  A$PointNC
     000550EE  A$PointNC |    000550F0  A$PointNC |    000550F2  A$PointNC
     000550F4  A$PointNC |    000550F5  A$PointNC |    000550F5  C$PointNC
     000550F6  A$PointNC |    000550F7  A$PointNC |    000550F9  A$PointNC
     000550FA  A$PointNC |    000550FB  A$PointNC |    000550FD  A$PointNC
     000550FD  C$PointNC |    000550FE  A$PointNC |    00055100  A$PointNC
     00055101  A$PointNC |    00055102  A$PointNC |    00055103  A$PointNC
     00055104  A$PointNC |    00055105  A$PointNC |    00055106  A$PointNC
     00055107  A$PointNC |    00055108  A$PointNC |    00055109  A$PointNC
     0005510A  A$PointNC |    0005510D  A$PointNC |    0005510E  A$PointNC
     00055111  A$PointNC |    00055112  A$PointNC |    00055113  A$PointNC
     00055114  A$PointNC |    00055116  A$PointNC |    00055117  A$PointNC
     00055119  A$PointNC |    0005511B  A$PointNC |    0005511D  A$PointNC
     0005511E  A$PointNC |    0005511E  C$PointNC |    00055121  A$PointNC
     00055121  C$PointNC |    00055121  C$PointNC |    00055122  A$PointNC
     00055123  A$PointNC |    00055124  A$PointNC |    00055126  A$PointNC
     00055127  A$PointNC |    00055128  A$PointNC |    00055129  A$PointNC
     0005512B  A$PointNC |    0005512E  A$PointNC |    0005512F  A$PointNC
     00055131  A$PointNC |    00055131  C$PointNC |    00055133  A$PointNC
     00055134  A$PointNC |    00055134  C$PointNC |    00055137  A$PointNC
     00055139  A$PointNC |    0005513B  A$PointNC |    0005513B  C$PointNC
     0005513C  A$PointNC |    0005513D  A$PointNC |    0005513D  C$PointNC
     00055140  A$PointNC |    00055142  A$PointNC |    00055142  C$PointNC
     00055145  A$PointNC |    00055147  A$PointNC |    00055149  A$PointNC
     0005514C  A$PointNC |    0005514E  A$PointNC |    00055150  A$PointNC
     00055150  C$PointNC |    00055153  A$PointNC |    00055155  A$PointNC
     00055155  C$PointNC |    00055157  A$PointNC |    00055158  A$PointNC
     00055159  A$PointNC |    0005515B  A$PointNC |    0005515B  C$PointNC
     0005515C  A$PointNC |    0005515D  A$PointNC |    00055160  A$PointNC
     00055161  A$PointNC |    00055163  A$PointNC |    00055163  C$PointNC
     00055165  A$PointNC |    00055166  A$PointNC |    00055167  A$PointNC
     00055169  A$PointNC |    00055169  C$PointNC |    0005516A  A$PointNC
     0005516B  A$PointNC |    0005516C  A$PointNC |    0005516F  A$PointNC
     00055170  A$PointNC |    00055170  C$PointNC |    00055173  A$PointNC
     00055174  A$PointNC |    00055177  A$PointNC |    00055177  C$PointNC
     0005517A  A$PointNC |    0005517B  A$PointNC |    0005517C  A$PointNC
     0005517D  A$PointNC |    0005517F  A$PointNC |    0005517F  C$PointNC
ASxxxx Linker V03.00 + NoICE + sdld,  page 196.
Hexadecimal  [32-Bits]

Area                       Addr        Size        Decimal Bytes (Attributes)
--------------------       ----        ----        ------- ----- ------------
_CODE_5                00054000    00001B2F =        6959. bytes (REL,CON)

        Value  Global            Value  Global            Value  Global    
        -----  ------            -----  ------            -----  ------    
     00055182  A$PointNC |    00055183  A$PointNC |    00055185  A$PointNC
     00055185  C$PointNC |    00055188  A$PointNC |    00055189  A$PointNC
     0005518A  A$PointNC |    0005518B  A$PointNC |    0005518E  A$PointNC
     0005518F  A$PointNC |    00055190  A$PointNC |    00055191  A$PointNC
     00055192  A$PointNC |    00055193  A$PointNC |    00055194  A$PointNC
     00055195  A$PointNC |    00055196  A$PointNC |    00055197  A$PointNC
     00055198  A$PointNC |    0005519B  A$PointNC |    0005519C  A$PointNC
     0005519D  A$PointNC |    0005519E  A$PointNC |    0005519E  C$PointNC
     000551A1  A$PointNC |    000551A2  A$PointNC |    000551A3  A$PointNC
     000551A4  A$PointNC |    000551A7  A$PointNC |    000551A8  A$PointNC
     000551A9  A$PointNC |    000551AA  A$PointNC |    000551AB  A$PointNC
     000551AC  A$PointNC |    000551AD  A$PointNC |    000551AE  A$PointNC
     000551AF  A$PointNC |    000551B0  A$PointNC |    000551B1  A$PointNC
     000551B4  A$PointNC |    000551B5  A$PointNC |    000551B6  A$PointNC
     000551B7  A$PointNC |    000551B9  A$PointNC |    000551B9  C$PointNC
     000551BC  A$PointNC |    000551BD  A$PointNC |    000551BF  A$PointNC
     000551C0  A$PointNC |    000551C1  A$PointNC |    000551C2  A$PointNC
     000551C3  A$PointNC |    000551C6  A$PointNC |    000551C7  A$PointNC
     000551C8  A$PointNC |    000551C9  A$PointNC |    000551CA  A$PointNC
     000551CB  A$PointNC |    000551CE  A$PointNC |    000551D0  A$PointNC
     000551D1  A$PointNC |    000551D2  A$PointNC |    000551D3  A$PointNC
     000551D4  A$PointNC |    000551D5  A$PointNC |    000551D8  A$PointNC
     000551D9  A$PointNC |    000551DA  A$PointNC |    000551DB  A$PointNC
     000551DB  C$PointNC |    000551DE  A$PointNC |    000551DF  A$PointNC
     000551E0  A$PointNC |    000551E1  A$PointNC |    000551E4  A$PointNC
     000551E7  A$PointNC |    000551E8  A$PointNC |    000551E9  A$PointNC
     000551EA  A$PointNC |    000551EB  A$PointNC |    000551EC  A$PointNC
     000551ED  A$PointNC |    000551F0  A$PointNC |    000551F2  A$PointNC
     000551F3  A$PointNC |    000551F4  A$PointNC |    000551F5  A$PointNC
     000551F6  A$PointNC |    000551F7  A$PointNC |    000551F8  A$PointNC
     000551F9  A$PointNC |    000551FC  A$PointNC |    000551FD  A$PointNC
     000551FE  A$PointNC |    000551FF  A$PointNC |    00055201  A$PointNC
     00055201  C$PointNC |    00055201  XG$Update |    00055202  A$Shmup$8
     00055202  C$Shmup.c |    00055202  C$Shmup.c |    00055202  G$Start_S
     00055202  _Start_Sh |    00055205  A$Shmup$8 |    00055207  A$Shmup$9
     00055207  C$Shmup.c |    0005520A  A$Shmup$9 |    0005520C  A$Shmup$9
     0005520C  C$Shmup.c |    0005520F  A$Shmup$9 |    00055211  A$Shmup$1
     00055211  C$Shmup.c |    00055214  A$Shmup$1 |    00055216  A$Shmup$1
     00055216  C$Shmup.c |    00055219  A$Shmup$1 |    0005521A  A$Shmup$1
     0005521C  A$Shmup$1 |    0005521E  A$Shmup$1 |    0005521E  C$Shmup.c
     00055221  A$Shmup$1 |    00055223  A$Shmup$1 |    00055223  C$Shmup.c
     00055226  A$Shmup$1 |    00055228  A$Shmup$1 |    00055228  C$Shmup.c
     0005522B  A$Shmup$1 |    0005522D  A$Shmup$1 |    0005522D  C$Shmup.c
     00055230  A$Shmup$1 |    00055232  A$Shmup$1 |    00055234  A$Shmup$1
     00055234  C$Shmup.c |    00055235  A$Shmup$1 |    00055237  A$Shmup$1
     00055238  A$Shmup$1 |    00055239  A$Shmup$1 |    0005523B  A$Shmup$1
     0005523D  A$Shmup$1 |    0005523F  A$Shmup$1 |    00055241  A$Shmup$1
     00055242  A$Shmup$1 |    00055244  A$Shmup$1 |    00055246  A$Shmup$1
     00055248  A$Shmup$1 |    00055249  A$Shmup$1 |    0005524B  A$Shmup$1
     0005524B  C$Shmup.c |    0005524E  A$Shmup$1 |    00055250  A$Shmup$1
     00055250  C$Shmup.c |    00055253  A$Shmup$1 |    00055255  A$Shmup$1
ASxxxx Linker V03.00 + NoICE + sdld,  page 197.
Hexadecimal  [32-Bits]

Area                       Addr        Size        Decimal Bytes (Attributes)
--------------------       ----        ----        ------- ----- ------------
_CODE_5                00054000    00001B2F =        6959. bytes (REL,CON)

        Value  Global            Value  Global            Value  Global    
        -----  ------            -----  ------            -----  ------    
     00055255  C$Shmup.c |    00055258  A$Shmup$1 |    0005525A  A$Shmup$1
     0005525C  A$Shmup$1 |    0005525C  C$Shmup.c |    0005525F  A$Shmup$1
     00055261  A$Shmup$1 |    00055263  A$Shmup$1 |    00055263  C$Shmup.c
     00055266  A$Shmup$1 |    00055268  A$Shmup$1 |    00055268  C$Shmup.c
     0005526B  A$Shmup$1 |    0005526D  A$Shmup$1 |    0005526D  C$Shmup.c
     00055270  A$Shmup$1 |    00055272  A$Shmup$1 |    00055274  A$Shmup$1
     00055274  C$Shmup.c |    00055277  A$Shmup$1 |    00055279  A$Shmup$1
     00055279  C$Shmup.c |    0005527C  A$Shmup$1 |    0005527E  A$Shmup$2
     0005527E  C$Shmup.c |    00055281  A$Shmup$2 |    00055283  A$Shmup$2
     00055283  C$Shmup.c |    00055286  A$Shmup$2 |    00055288  A$Shmup$2
     00055288  C$Shmup.c |    0005528B  A$Shmup$2 |    0005528D  A$Shmup$2
     0005528D  C$Shmup.c |    0005528D  XG$Start_ |    0005528E  A$Shmup$2
     0005528E  C$Shmup.c |    0005528E  G$Update_ |    0005528E  _Update_S
     00055290  A$Shmup$2 |    00055293  A$Shmup$2 |    00055294  A$Shmup$2
     00055295  A$Shmup$2 |    00055296  A$Shmup$2 |    00055298  A$Shmup$2
     0005529A  A$Shmup$2 |    0005529C  A$Shmup$2 |    0005529E  A$Shmup$2
     000552A0  A$Shmup$2 |    000552A2  A$Shmup$2 |    000552A4  A$Shmup$2
     000552A5  A$Shmup$2 |    000552A8  A$Shmup$2 |    000552A9  A$Shmup$2
     000552AA  A$Shmup$2 |    000552AB  A$Shmup$2 |    000552AD  A$Shmup$2
     000552AF  A$Shmup$2 |    000552B1  A$Shmup$2 |    000552B3  A$Shmup$2
     000552B5  A$Shmup$2 |    000552B7  A$Shmup$2 |    000552B9  A$Shmup$2
     000552BA  A$Shmup$2 |    000552BA  C$Shmup.c |    000552BB  A$Shmup$2
     000552BC  A$Shmup$2 |    000552BD  A$Shmup$2 |    000552BE  A$Shmup$2
     000552BF  A$Shmup$2 |    000552C0  A$Shmup$2 |    000552C2  A$Shmup$2
     000552C3  A$Shmup$2 |    000552C4  A$Shmup$2 |    000552C5  A$Shmup$2
     000552C8  A$Shmup$2 |    000552CA  A$Shmup$2 |    000552CC  A$Shmup$2
     000552CD  A$Shmup$2 |    000552CF  A$Shmup$2 |    000552D0  A$Shmup$2
     000552D1  A$Shmup$2 |    000552D1  C$Shmup.c |    000552D4  A$Shmup$2
     000552D7  A$Shmup$2 |    000552D9  A$Shmup$2 |    000552DA  A$Shmup$2
     000552DD  A$Shmup$2 |    000552DF  A$Shmup$2 |    000552E0  A$Shmup$3
     000552E0  C$Shmup.c |    000552E3  A$Shmup$3 |    000552E4  A$Shmup$3
     000552E7  A$Shmup$3 |    000552E7  C$Shmup.c |    000552E7  C$Shmup.c
     000552E9  A$Shmup$3 |    000552EB  A$Shmup$3 |    000552ED  A$Shmup$3
     000552F0  A$Shmup$3 |    000552F1  A$Shmup$3 |    000552F3  A$Shmup$3
     000552F5  A$Shmup$3 |    000552F7  A$Shmup$3 |    000552F9  A$Shmup$3
     000552FC  A$Shmup$3 |    000552FD  A$Shmup$3 |    000552FE  A$Shmup$3
     000552FF  A$Shmup$3 |    00055302  A$Shmup$3 |    00055303  A$Shmup$3
     00055304  A$Shmup$3 |    00055307  A$Shmup$3 |    00055309  A$Shmup$3
     0005530A  A$Shmup$3 |    0005530B  A$Shmup$3 |    0005530D  A$Shmup$3
     0005530D  C$Shmup.c |    0005530F  A$Shmup$3 |    00055310  A$Shmup$3
     00055311  A$Shmup$3 |    00055312  A$Shmup$3 |    00055313  A$Shmup$3
     00055315  A$Shmup$3 |    00055316  A$Shmup$3 |    00055317  A$Shmup$3
     00055318  A$Shmup$3 |    0005531B  A$Shmup$3 |    0005531D  A$Shmup$3
     0005531F  A$Shmup$3 |    00055321  A$Shmup$3 |    00055321  C$Shmup.c
     00055324  A$Shmup$3 |    00055326  A$Shmup$3 |    00055326  C$Shmup.c
     00055329  A$Shmup$3 |    0005532B  A$Shmup$3 |    0005532D  A$Shmup$3
     0005532D  C$Shmup.c |    00055330  A$Shmup$3 |    00055332  A$Shmup$3
     00055334  A$Shmup$3 |    00055337  A$Shmup$3 |    00055338  A$Shmup$3
     0005533A  A$Shmup$3 |    0005533D  A$Shmup$3 |    0005533F  A$Shmup$3
     00055341  A$Shmup$3 |    00055344  A$Shmup$3 |    00055345  A$Shmup$3
     00055347  A$Shmup$3 |    00055348  A$Shmup$3 |    00055349  A$Shmup$3
ASxxxx Linker V03.00 + NoICE + sdld,  page 198.
Hexadecimal  [32-Bits]

Area                       Addr        Size        Decimal Bytes (Attributes)
--------------------       ----        ----        ------- ----- ------------
_CODE_5                00054000    00001B2F =        6959. bytes (REL,CON)

        Value  Global            Value  Global            Value  Global    
        -----  ------            -----  ------            -----  ------    
     0005534A  A$Shmup$3 |    0005534C  A$Shmup$3 |    0005534D  A$Shmup$3
     00055350  A$Shmup$3 |    00055351  A$Shmup$3 |    00055352  A$Shmup$3
     00055353  A$Shmup$3 |    00055354  A$Shmup$3 |    00055355  A$Shmup$3
     00055358  A$Shmup$3 |    0005535A  A$Shmup$3 |    0005535B  A$Shmup$3
     0005535C  A$Shmup$3 |    0005535E  A$Shmup$3 |    0005535E  C$Shmup.c
     00055360  A$Shmup$3 |    00055361  A$Shmup$3 |    00055362  A$Shmup$3
     00055363  A$Shmup$3 |    00055364  A$Shmup$3 |    00055366  A$Shmup$4
     00055367  A$Shmup$4 |    00055368  A$Shmup$4 |    00055369  A$Shmup$4
     0005536C  A$Shmup$4 |    0005536E  A$Shmup$4 |    0005536F  A$Shmup$4
     00055370  A$Shmup$4 |    00055372  A$Shmup$4 |    00055372  C$Shmup.c
     00055375  A$Shmup$4 |    00055377  A$Shmup$4 |    00055377  C$Shmup.c
     0005537A  A$Shmup$4 |    0005537C  A$Shmup$4 |    0005537E  A$Shmup$4
     0005537E  C$Shmup.c |    00055381  A$Shmup$4 |    00055383  A$Shmup$4
     00055383  C$Shmup.c |    00055386  A$Shmup$4 |    00055388  A$Shmup$4
     0005538B  A$Shmup$4 |    0005538C  A$Shmup$4 |    0005538F  A$Shmup$4
     00055390  A$Shmup$4 |    00055392  A$Shmup$4 |    00055394  A$Shmup$4
     00055396  A$Shmup$4 |    00055398  A$Shmup$4 |    0005539A  A$Shmup$4
     0005539C  A$Shmup$4 |    0005539E  A$Shmup$4 |    000553A0  A$Shmup$4
     000553A0  C$Shmup.c |    000553A3  A$Shmup$4 |    000553A5  A$Shmup$4
     000553A5  C$Shmup.c |    000553A8  A$Shmup$4 |    000553A9  A$Shmup$4
     000553AB  A$Shmup$4 |    000553AC  A$Shmup$4 |    000553AD  A$Shmup$4
     000553AE  A$Shmup$4 |    000553AF  A$Shmup$4 |    000553AF  C$Shmup.c
     000553B2  A$Shmup$4 |    000553B3  A$Shmup$4 |    000553B5  A$Shmup$4
     000553B5  C$Shmup.c |    000553B8  A$Shmup$4 |    000553B9  A$Shmup$4
     000553BB  A$Shmup$4 |    000553BC  A$Shmup$4 |    000553BD  A$Shmup$4
     000553BE  A$Shmup$4 |    000553C0  A$Shmup$4 |    000553C1  A$Shmup$4
     000553C2  A$Shmup$4 |    000553C4  A$Shmup$4 |    000553C5  A$Shmup$4
     000553C6  A$Shmup$4 |    000553C7  A$Shmup$4 |    000553C8  A$Shmup$4
     000553CB  A$Shmup$4 |    000553CD  A$Shmup$4 |    000553CE  A$Shmup$4
     000553CF  A$Shmup$4 |    000553D1  A$Shmup$4 |    000553D1  C$Shmup.c
     000553D4  A$Shmup$4 |    000553D6  A$Shmup$5 |    000553D8  A$Shmup$5
     000553D8  C$Shmup.c |    000553DB  A$Shmup$5 |    000553DC  A$Shmup$5
     000553DE  A$Shmup$5 |    000553DF  A$Shmup$5 |    000553E0  A$Shmup$5
     000553E1  A$Shmup$5 |    000553E2  A$Shmup$5 |    000553E5  A$Shmup$5
     000553E7  A$Shmup$5 |    000553E8  A$Shmup$5 |    000553E9  A$Shmup$5
     000553EB  A$Shmup$5 |    000553EB  C$Shmup.c |    000553EE  A$Shmup$5
     000553F0  A$Shmup$5 |    000553F3  A$Shmup$5 |    000553F5  A$Shmup$5
     000553F6  A$Shmup$5 |    000553F8  A$Shmup$5 |    000553F8  C$Shmup.c
     000553FB  A$Shmup$5 |    000553FC  A$Shmup$5 |    000553FE  A$Shmup$5
     00055401  A$Shmup$5 |    00055403  A$Shmup$5 |    00055404  A$Shmup$5
     00055404  C$Shmup.c |    00055404  C$Shmup.c |    00055406  A$Shmup$5
     00055407  A$Shmup$5 |    00055408  A$Shmup$5 |    0005540A  A$Shmup$5
     0005540A  C$Shmup.c |    0005540B  A$Shmup$5 |    0005540C  A$Shmup$5
     0005540F  A$Shmup$5 |    0005540F  C$Shmup.c |    00055412  A$Shmup$5
     00055413  A$Shmup$5 |    00055414  A$Shmup$5 |    00055415  A$Shmup$5
     00055418  A$Shmup$5 |    00055419  A$Shmup$5 |    0005541A  A$Shmup$5
     0005541B  A$Shmup$5 |    0005541C  A$Shmup$5 |    0005541D  A$Shmup$5
     0005541E  A$Shmup$5 |    0005541F  A$Shmup$5 |    00055420  A$Shmup$5
     00055421  A$Shmup$5 |    00055422  A$Shmup$5 |    00055425  A$Shmup$5
     00055426  A$Shmup$5 |    00055427  A$Shmup$5 |    00055428  A$Shmup$5
     0005542B  A$Shmup$5 |    0005542B  C$Shmup.c |    0005542E  A$Shmup$5
ASxxxx Linker V03.00 + NoICE + sdld,  page 199.
Hexadecimal  [32-Bits]

Area                       Addr        Size        Decimal Bytes (Attributes)
--------------------       ----        ----        ------- ----- ------------
_CODE_5                00054000    00001B2F =        6959. bytes (REL,CON)

        Value  Global            Value  Global            Value  Global    
        -----  ------            -----  ------            -----  ------    
     0005542F  A$Shmup$5 |    00055430  A$Shmup$5 |    00055431  A$Shmup$5
     00055434  A$Shmup$5 |    00055435  A$Shmup$5 |    00055437  A$Shmup$5
     00055438  A$Shmup$5 |    00055439  A$Shmup$5 |    0005543A  A$Shmup$5
     0005543B  A$Shmup$5 |    0005543C  A$Shmup$5 |    0005543F  A$Shmup$5
     00055441  A$Shmup$5 |    00055442  A$Shmup$6 |    00055443  A$Shmup$6
     00055444  A$Shmup$6 |    00055445  A$Shmup$6 |    00055446  A$Shmup$6
     00055447  A$Shmup$6 |    00055448  A$Shmup$6 |    0005544B  A$Shmup$6
     0005544C  A$Shmup$6 |    0005544D  A$Shmup$6 |    0005544E  A$Shmup$6
     00055451  A$Shmup$6 |    00055454  A$Shmup$6 |    00055456  A$Shmup$6
     00055457  A$Shmup$6 |    00055457  C$Shmup.c |    00055457  C$Shmup.c
     00055459  A$Shmup$6 |    0005545A  A$Shmup$6 |    0005545B  A$Shmup$6
     0005545D  A$Shmup$6 |    0005545D  C$Shmup.c |    0005545E  A$Shmup$6
     0005545F  A$Shmup$6 |    00055462  A$Shmup$6 |    00055462  C$Shmup.c
     00055465  A$Shmup$6 |    00055466  A$Shmup$6 |    00055467  A$Shmup$6
     00055468  A$Shmup$6 |    0005546B  A$Shmup$6 |    0005546C  A$Shmup$6
     0005546D  A$Shmup$6 |    0005546E  A$Shmup$6 |    0005546F  A$Shmup$6
     00055470  A$Shmup$6 |    00055471  A$Shmup$6 |    00055472  A$Shmup$6
     00055473  A$Shmup$6 |    00055474  A$Shmup$6 |    00055475  A$Shmup$6
     00055478  A$Shmup$6 |    00055479  A$Shmup$6 |    0005547A  A$Shmup$6
     0005547B  A$Shmup$6 |    0005547B  C$Shmup.c |    0005547E  A$Shmup$6
     0005547F  A$Shmup$6 |    00055480  A$Shmup$6 |    00055481  A$Shmup$6
     00055484  A$Shmup$6 |    00055485  A$Shmup$6 |    00055486  A$Shmup$6
     00055487  A$Shmup$6 |    00055488  A$Shmup$6 |    00055489  A$Shmup$6
     0005548A  A$Shmup$6 |    0005548B  A$Shmup$6 |    0005548C  A$Shmup$6
     0005548D  A$Shmup$6 |    0005548E  A$Shmup$6 |    00055491  A$Shmup$6
     00055492  A$Shmup$6 |    00055493  A$Shmup$6 |    00055494  A$Shmup$6
     00055497  A$Shmup$6 |    00055497  C$Shmup.c |    0005549A  A$Shmup$6
     0005549B  A$Shmup$6 |    0005549C  A$Shmup$6 |    0005549D  A$Shmup$6
     0005549E  A$Shmup$6 |    000554A0  A$Shmup$6 |    000554A1  A$Shmup$6
     000554A2  A$Shmup$6 |    000554A3  A$Shmup$6 |    000554A6  A$Shmup$6
     000554A7  A$Shmup$6 |    000554A8  A$Shmup$6 |    000554AB  A$Shmup$6
     000554AD  A$Shmup$6 |    000554AE  A$Shmup$6 |    000554AF  A$Shmup$6
     000554B0  A$Shmup$7 |    000554B1  A$Shmup$7 |    000554B2  A$Shmup$7
     000554B3  A$Shmup$7 |    000554B4  A$Shmup$7 |    000554B7  A$Shmup$7
     000554B8  A$Shmup$7 |    000554B9  A$Shmup$7 |    000554BA  A$Shmup$7
     000554BA  C$Shmup.c |    000554BD  A$Shmup$7 |    000554BE  A$Shmup$7
     000554BF  A$Shmup$7 |    000554C0  A$Shmup$7 |    000554C3  A$Shmup$7
     000554C6  A$Shmup$7 |    000554C7  A$Shmup$7 |    000554C8  A$Shmup$7
     000554C9  A$Shmup$7 |    000554CA  A$Shmup$7 |    000554CB  A$Shmup$7
     000554CC  A$Shmup$7 |    000554CF  A$Shmup$7 |    000554D1  A$Shmup$7
     000554D2  A$Shmup$7 |    000554D3  A$Shmup$7 |    000554D4  A$Shmup$7
     000554D5  A$Shmup$7 |    000554D6  A$Shmup$7 |    000554D7  A$Shmup$7
     000554D8  A$Shmup$7 |    000554DB  A$Shmup$7 |    000554DC  A$Shmup$7
     000554DD  A$Shmup$7 |    000554DE  A$Shmup$7 |    000554E1  A$Shmup$7
     000554E1  C$Shmup.c |    000554E3  A$Shmup$7 |    000554E5  A$Shmup$7
     000554E7  A$Shmup$7 |    000554EA  A$Shmup$7 |    000554EB  A$Shmup$7
     000554ED  A$Shmup$7 |    000554EF  A$Shmup$7 |    000554F1  A$Shmup$7
     000554F3  A$Shmup$7 |    000554F6  A$Shmup$7 |    000554F7  A$Shmup$7
     000554F8  A$Shmup$7 |    000554F9  A$Shmup$7 |    000554FA  A$Shmup$7
     000554FC  A$Shmup$7 |    000554FD  A$Shmup$7 |    000554FE  A$Shmup$7
     000554FF  A$Shmup$7 |    00055501  A$Shmup$7 |    00055503  A$Shmup$7
ASxxxx Linker V03.00 + NoICE + sdld,  page 200.
Hexadecimal  [32-Bits]

Area                       Addr        Size        Decimal Bytes (Attributes)
--------------------       ----        ----        ------- ----- ------------
_CODE_5                00054000    00001B2F =        6959. bytes (REL,CON)

        Value  Global            Value  Global            Value  Global    
        -----  ------            -----  ------            -----  ------    
     00055505  A$Shmup$7 |    00055507  A$Shmup$7 |    00055508  A$Shmup$7
     0005550A  A$Shmup$7 |    0005550C  A$Shmup$7 |    0005550E  A$Shmup$7
     0005550F  A$Shmup$7 |    00055511  A$Shmup$7 |    00055513  A$Shmup$7
     00055514  A$Shmup$7 |    00055515  A$Shmup$7 |    00055516  A$Shmup$7
     00055518  A$Shmup$7 |    00055519  A$Shmup$7 |    0005551A  A$Shmup$7
     0005551B  A$Shmup$7 |    0005551E  A$Shmup$7 |    00055520  A$Shmup$7
     00055522  A$Shmup$7 |    00055524  A$Shmup$7 |    00055524  C$Shmup.c
     00055527  A$Shmup$7 |    00055529  A$Shmup$7 |    00055529  C$Shmup.c
     0005552C  A$Shmup$7 |    0005552E  A$Shmup$7 |    00055530  A$Shmup$7
     00055530  C$Shmup.c |    00055533  A$Shmup$8 |    00055534  A$Shmup$8
     00055536  A$Shmup$8 |    00055539  A$Shmup$8 |    0005553A  A$Shmup$8
     0005553C  A$Shmup$8 |    0005553F  A$Shmup$8 |    00055540  A$Shmup$8
     00055542  A$Shmup$8 |    00055545  A$Shmup$8 |    00055546  A$Shmup$8
     00055548  A$Shmup$8 |    00055549  A$Shmup$8 |    0005554A  A$Shmup$8
     0005554B  A$Shmup$8 |    0005554D  A$Shmup$8 |    0005554E  A$Shmup$8
     00055551  A$Shmup$8 |    00055552  A$Shmup$8 |    00055553  A$Shmup$8
     00055554  A$Shmup$8 |    00055555  A$Shmup$8 |    00055556  A$Shmup$8
     00055559  A$Shmup$8 |    0005555B  A$Shmup$8 |    0005555C  A$Shmup$8
     0005555D  A$Shmup$8 |    0005555F  A$Shmup$8 |    0005555F  C$Shmup.c
     00055561  A$Shmup$8 |    00055562  A$Shmup$8 |    00055564  A$Shmup$8
     00055566  A$Shmup$8 |    00055567  A$Shmup$8 |    00055568  A$Shmup$8
     00055569  A$Shmup$8 |    0005556A  A$Shmup$8 |    0005556B  A$Shmup$8
     0005556E  A$Shmup$8 |    00055570  A$Shmup$8 |    00055572  A$Shmup$8
     00055574  A$Shmup$8 |    00055574  C$Shmup.c |    00055577  A$Shmup$8
     00055579  A$Shmup$8 |    00055579  C$Shmup.c |    0005557C  A$Shmup$8
     0005557E  A$Shmup$8 |    00055580  A$Shmup$8 |    00055580  C$Shmup.c
     00055583  A$Shmup$8 |    00055585  A$Shmup$8 |    00055585  C$Shmup.c
     00055588  A$Shmup$8 |    0005558B  A$Shmup$8 |    0005558C  A$Shmup$8
     0005558C  C$Shmup.c |    0005558F  A$Shmup$8 |    00055590  A$Shmup$8
     00055590  C$Shmup.c |    00055593  A$Shmup$8 |    00055593  C$Shmup.c
     00055595  A$Shmup$8 |    00055597  A$Shmup$8 |    00055599  A$Shmup$8
     0005559B  A$Shmup$8 |    0005559D  A$Shmup$8 |    0005559F  A$Shmup$8
     000555A0  A$Shmup$8 |    000555A2  A$Shmup$8 |    000555A2  C$Shmup.c
     000555A5  A$Shmup$8 |    000555A7  A$Shmup$8 |    000555A7  C$Shmup.c
     000555AA  A$Shmup$9 |    000555AB  A$Shmup$9 |    000555AC  A$Shmup$9
     000555AD  A$Shmup$9 |    000555AD  C$Shmup.c |    000555B0  A$Shmup$9
     000555B1  A$Shmup$9 |    000555B3  A$Shmup$9 |    000555B3  C$Shmup.c
     000555B6  A$Shmup$9 |    000555B7  A$Shmup$9 |    000555B9  A$Shmup$9
     000555BA  A$Shmup$9 |    000555BB  A$Shmup$9 |    000555BC  A$Shmup$9
     000555BE  A$Shmup$9 |    000555BF  A$Shmup$9 |    000555C0  A$Shmup$9
     000555C1  A$Shmup$9 |    000555C4  A$Shmup$9 |    000555C6  A$Shmup$9
     000555C7  A$Shmup$9 |    000555C8  A$Shmup$9 |    000555CA  A$Shmup$9
     000555CA  C$Shmup.c |    000555CD  A$Shmup$9 |    000555CF  A$Shmup$9
     000555D1  A$Shmup$9 |    000555D1  C$Shmup.c |    000555D4  A$Shmup$9
     000555D5  A$Shmup$9 |    000555D6  A$Shmup$9 |    000555D9  A$Shmup$9
     000555DB  A$Shmup$9 |    000555DC  A$Shmup$9 |    000555DD  A$Shmup$9
     000555DF  A$Shmup$9 |    000555DF  C$Shmup.c |    000555E2  A$Shmup$9
     000555E4  A$Shmup$9 |    000555E4  C$Shmup.c |    000555E7  A$Shmup$9
     000555E9  A$Shmup$9 |    000555EA  A$Shmup$9 |    000555EC  A$Shmup$9
     000555EC  C$Shmup.c |    000555EF  A$Shmup$9 |    000555F0  A$Shmup$9
     000555F2  A$Shmup$9 |    000555F5  A$Shmup$9 |    000555F7  A$Shmup$9
ASxxxx Linker V03.00 + NoICE + sdld,  page 201.
Hexadecimal  [32-Bits]

Area                       Addr        Size        Decimal Bytes (Attributes)
--------------------       ----        ----        ------- ----- ------------
_CODE_5                00054000    00001B2F =        6959. bytes (REL,CON)

        Value  Global            Value  Global            Value  Global    
        -----  ------            -----  ------            -----  ------    
     000555F8  A$Shmup$9 |    000555F8  C$Shmup.c |    000555F8  C$Shmup.c
     000555FA  A$Shmup$9 |    000555FB  A$Shmup$9 |    000555FC  A$Shmup$9
     000555FE  A$Shmup$9 |    000555FE  C$Shmup.c |    000555FF  A$Shmup$9
     00055600  A$Shmup$9 |    00055603  A$Shmup$9 |    00055603  C$Shmup.c
     00055606  A$Shmup$9 |    00055607  A$Shmup$9 |    00055608  A$Shmup$9
     00055609  A$Shmup$9 |    0005560A  A$Shmup$9 |    0005560B  A$Shmup$9
     0005560C  A$Shmup$9 |    0005560F  A$Shmup$9 |    00055610  A$Shmup$9
     00055611  A$Shmup$9 |    00055612  A$Shmup$1 |    00055613  A$Shmup$1
     00055614  A$Shmup$1 |    00055615  A$Shmup$1 |    00055616  A$Shmup$1
     00055617  A$Shmup$1 |    00055618  A$Shmup$1 |    00055619  A$Shmup$1
     0005561A  A$Shmup$1 |    0005561D  A$Shmup$1 |    0005561E  A$Shmup$1
     0005561F  A$Shmup$1 |    00055620  A$Shmup$1 |    00055623  A$Shmup$1
     00055623  C$Shmup.c |    00055626  A$Shmup$1 |    00055627  A$Shmup$1
     00055628  A$Shmup$1 |    00055629  A$Shmup$1 |    0005562C  A$Shmup$1
     0005562D  A$Shmup$1 |    0005562F  A$Shmup$1 |    00055630  A$Shmup$1
     00055631  A$Shmup$1 |    00055632  A$Shmup$1 |    00055633  A$Shmup$1
     00055634  A$Shmup$1 |    00055637  A$Shmup$1 |    00055639  A$Shmup$1
     0005563A  A$Shmup$1 |    0005563B  A$Shmup$1 |    0005563C  A$Shmup$1
     0005563D  A$Shmup$1 |    0005563E  A$Shmup$1 |    0005563F  A$Shmup$1
     00055640  A$Shmup$1 |    00055643  A$Shmup$1 |    00055644  A$Shmup$1
     00055645  A$Shmup$1 |    00055646  A$Shmup$1 |    00055649  A$Shmup$1
     0005564C  A$Shmup$1 |    0005564E  A$Shmup$1 |    0005564F  A$Shmup$1
     0005564F  C$Shmup.c |    0005564F  C$Shmup.c |    0005564F  C$Shmup.c
     00055651  A$Shmup$1 |    00055652  A$Shmup$1 |    00055653  A$Shmup$1
     00055655  A$Shmup$1 |    00055655  C$Shmup.c |    00055656  A$Shmup$1
     00055657  A$Shmup$1 |    00055659  A$Shmup$1 |    00055659  C$Shmup.c
     0005565C  A$Shmup$1 |    0005565D  A$Shmup$1 |    0005565E  A$Shmup$1
     0005565F  A$Shmup$1 |    00055662  A$Shmup$1 |    00055663  A$Shmup$1
     00055664  A$Shmup$1 |    00055665  A$Shmup$1 |    00055666  A$Shmup$1
     00055667  A$Shmup$1 |    00055668  A$Shmup$1 |    00055669  A$Shmup$1
     0005566C  A$Shmup$1 |    0005566D  A$Shmup$1 |    0005566E  A$Shmup$1
     0005566F  A$Shmup$1 |    0005566F  C$Shmup.c |    00055672  A$Shmup$1
     00055673  A$Shmup$1 |    00055674  A$Shmup$1 |    00055675  A$Shmup$1
     00055678  A$Shmup$1 |    00055679  A$Shmup$1 |    0005567A  A$Shmup$1
     0005567B  A$Shmup$1 |    0005567C  A$Shmup$1 |    0005567D  A$Shmup$1
     0005567E  A$Shmup$1 |    0005567F  A$Shmup$1 |    00055680  A$Shmup$1
     00055681  A$Shmup$1 |    00055682  A$Shmup$1 |    00055685  A$Shmup$1
     00055686  A$Shmup$1 |    00055687  A$Shmup$1 |    00055688  A$Shmup$1
     0005568A  A$Shmup$1 |    0005568A  C$Shmup.c |    0005568D  A$Shmup$1
     0005568E  A$Shmup$1 |    0005568F  A$Shmup$1 |    00055690  A$Shmup$1
     00055693  A$Shmup$1 |    00055694  A$Shmup$1 |    00055696  A$Shmup$1
     00055697  A$Shmup$1 |    00055698  A$Shmup$1 |    00055699  A$Shmup$1
     0005569A  A$Shmup$1 |    0005569B  A$Shmup$1 |    0005569E  A$Shmup$1
     000556A0  A$Shmup$1 |    000556A1  A$Shmup$1 |    000556A2  A$Shmup$1
     000556A3  A$Shmup$1 |    000556A4  A$Shmup$1 |    000556A5  A$Shmup$1
     000556A6  A$Shmup$1 |    000556A7  A$Shmup$1 |    000556AA  A$Shmup$1
     000556AB  A$Shmup$1 |    000556AC  A$Shmup$1 |    000556AD  A$Shmup$1
     000556AD  C$Shmup.c |    000556B0  A$Shmup$1 |    000556B1  A$Shmup$1
     000556B2  A$Shmup$1 |    000556B3  A$Shmup$1 |    000556B6  A$Shmup$1
     000556B7  A$Shmup$1 |    000556B8  A$Shmup$1 |    000556B9  A$Shmup$1
     000556BC  A$Shmup$1 |    000556BD  A$Shmup$1 |    000556BE  A$Shmup$1
ASxxxx Linker V03.00 + NoICE + sdld,  page 202.
Hexadecimal  [32-Bits]

Area                       Addr        Size        Decimal Bytes (Attributes)
--------------------       ----        ----        ------- ----- ------------
_CODE_5                00054000    00001B2F =        6959. bytes (REL,CON)

        Value  Global            Value  Global            Value  Global    
        -----  ------            -----  ------            -----  ------    
     000556C1  A$Shmup$1 |    000556C3  A$Shmup$1 |    000556C4  A$Shmup$1
     000556C5  A$Shmup$1 |    000556C6  A$Shmup$1 |    000556C7  A$Shmup$1
     000556C8  A$Shmup$1 |    000556C9  A$Shmup$1 |    000556CA  A$Shmup$1
     000556CD  A$Shmup$1 |    000556CE  A$Shmup$1 |    000556CF  A$Shmup$1
     000556D0  A$Shmup$1 |    000556D0  C$Shmup.c |    000556D1  A$Shmup$1
     000556D2  A$Shmup$1 |    000556D3  A$Shmup$1 |    000556D6  A$Shmup$1
     000556D7  A$Shmup$1 |    000556D9  A$Shmup$1 |    000556DA  A$Shmup$1
     000556DA  C$Shmup.c |    000556DB  A$Shmup$1 |    000556DC  A$Shmup$1
     000556DE  A$Shmup$1 |    000556DF  A$Shmup$1 |    000556E0  A$Shmup$1
     000556E2  A$Shmup$1 |    000556E5  A$Shmup$1 |    000556E6  A$Shmup$1
     000556E8  A$Shmup$1 |    000556E8  C$Shmup.c |    000556EA  A$Shmup$1
     000556EB  A$Shmup$1 |    000556ED  A$Shmup$1 |    000556EE  A$Shmup$1
     000556EF  A$Shmup$1 |    000556F0  A$Shmup$1 |    000556F1  A$Shmup$1
     000556F2  A$Shmup$1 |    000556F3  A$Shmup$1 |    000556F4  A$Shmup$1
     000556F5  A$Shmup$1 |    000556F6  A$Shmup$1 |    000556F7  A$Shmup$1
     000556FA  A$Shmup$1 |    000556FB  A$Shmup$1 |    000556FC  A$Shmup$1
     000556FD  A$Shmup$1 |    000556FF  A$Shmup$1 |    00055700  A$Shmup$1
     00055701  A$Shmup$1 |    00055702  A$Shmup$1 |    00055703  A$Shmup$1
     00055704  A$Shmup$1 |    00055705  A$Shmup$1 |    00055708  A$Shmup$1
     00055709  A$Shmup$1 |    0005570A  A$Shmup$1 |    0005570B  A$Shmup$1
     0005570D  A$Shmup$1 |    0005570E  A$Shmup$1 |    0005570F  A$Shmup$1
     00055710  A$Shmup$1 |    00055711  A$Shmup$1 |    00055712  A$Shmup$1
     00055713  A$Shmup$1 |    00055714  A$Shmup$1 |    00055715  A$Shmup$1
     00055716  A$Shmup$1 |    00055718  A$Shmup$1 |    00055718  C$Shmup.c
     0005571B  A$Shmup$1 |    0005571D  A$Shmup$1 |    0005571D  C$Shmup.c
     00055720  A$Shmup$1 |    00055722  A$Shmup$1 |    00055723  A$Shmup$1
     00055724  A$Shmup$1 |    00055726  A$Shmup$1 |    00055726  C$Shmup.c
     00055729  A$Shmup$1 |    0005572B  A$Shmup$1 |    0005572B  C$Shmup.c
     0005572D  A$Shmup$1 |    0005572E  A$Shmup$1 |    0005572F  A$Shmup$1
     00055730  A$Shmup$1 |    00055733  A$Shmup$1 |    00055734  A$Shmup$1
     00055735  A$Shmup$1 |    00055736  A$Shmup$1 |    00055738  A$Shmup$1
     00055739  A$Shmup$1 |    0005573A  A$Shmup$1 |    0005573C  A$Shmup$1
     0005573D  A$Shmup$1 |    0005573E  A$Shmup$1 |    0005573F  A$Shmup$1
     00055741  A$Shmup$1 |    00055742  A$Shmup$1 |    00055743  A$Shmup$1
     00055744  A$Shmup$1 |    00055745  A$Shmup$1 |    00055748  A$Shmup$1
     0005574A  A$Shmup$1 |    0005574C  A$Shmup$1 |    0005574C  C$Shmup.c
     0005574C  XG$Update |    0005574D  A$TopDown |    0005574D  C$TopDown
     0005574D  C$TopDown |    0005574D  G$Start_T |    0005574D  _Start_To
     00055750  A$TopDown |    00055752  A$TopDown |    00055752  C$TopDown
     00055755  A$TopDown |    00055757  A$TopDown |    00055757  C$TopDown
     0005575A  A$TopDown |    0005575C  A$TopDown |    0005575C  C$TopDown
     0005575F  A$TopDown |    00055761  A$TopDown |    00055761  C$TopDown
     00055761  XG$Start_ |    00055762  A$TopDown |    00055762  C$TopDown
     00055762  G$Update_ |    00055762  _Update_T |    00055764  A$TopDown
     00055764  C$TopDown |    00055767  A$TopDown |    00055768  A$TopDown
     00055769  A$TopDown |    0005576A  A$TopDown |    0005576B  A$TopDown
     0005576C  A$TopDown |    0005576E  A$TopDown |    00055770  A$TopDown
     00055772  A$TopDown |    00055774  A$TopDown |    00055776  A$TopDown
     00055778  A$TopDown |    0005577A  A$TopDown |    0005577B  A$TopDown
     0005577B  C$TopDown |    0005577E  A$TopDown |    0005577F  A$TopDown
     00055781  A$TopDown |    00055782  A$TopDown |    00055783  A$TopDown
ASxxxx Linker V03.00 + NoICE + sdld,  page 203.
Hexadecimal  [32-Bits]

Area                       Addr        Size        Decimal Bytes (Attributes)
--------------------       ----        ----        ------- ----- ------------
_CODE_5                00054000    00001B2F =        6959. bytes (REL,CON)

        Value  Global            Value  Global            Value  Global    
        -----  ------            -----  ------            -----  ------    
     00055784  A$TopDown |    00055785  A$TopDown |    00055786  A$TopDown
     00055787  A$TopDown |    00055788  A$TopDown |    0005578A  A$TopDown
     0005578C  A$TopDown |    0005578E  A$TopDown |    00055790  A$TopDown
     00055792  A$TopDown |    00055794  A$TopDown |    00055796  A$TopDown
     00055797  A$TopDown |    00055797  C$TopDown |    00055798  A$TopDown
     0005579A  A$TopDown |    0005579D  A$TopDown |    0005579F  A$TopDown
     000557A0  A$TopDown |    000557A2  A$TopDown |    000557A5  A$TopDown
     000557A5  C$TopDown |    000557A8  A$TopDown |    000557AA  A$TopDown
     000557AA  C$TopDown |    000557AB  A$TopDown |    000557AC  A$TopDown
     000557AD  A$TopDown |    000557AF  A$TopDown |    000557B0  A$TopDown
     000557B1  A$TopDown |    000557B2  A$TopDown |    000557B3  A$TopDown
     000557B4  A$TopDown |    000557B5  A$TopDown |    000557B6  A$TopDown
     000557B9  A$TopDown |    000557BB  A$TopDown |    000557BC  A$TopDown
     000557BD  A$TopDown |    000557BD  C$TopDown |    000557C0  A$TopDown
     000557C0  C$TopDown |    000557C3  A$TopDown |    000557C4  A$TopDown
     000557C6  A$TopDown |    000557C7  A$TopDown |    000557C7  C$TopDown
     000557C7  C$TopDown |    000557C7  C$TopDown |    000557C7  C$TopDown
     000557C7  C$TopDown |    000557C8  A$TopDown |    000557CA  A$TopDown
     000557CB  A$TopDown |    000557CC  A$TopDown |    000557CD  A$TopDown
     000557CD  C$TopDown |    000557CF  A$TopDown |    000557D1  A$TopDown
     000557D4  A$TopDown |    000557D5  A$TopDown |    000557D8  A$TopDown
     000557D9  A$TopDown |    000557DB  A$TopDown |    000557DD  A$TopDown
     000557DF  A$TopDown |    000557DF  C$TopDown |    000557E1  A$TopDown
     000557E2  A$TopDown |    000557E2  C$TopDown |    000557E5  A$TopDown
     000557E7  A$TopDown |    000557E7  C$TopDown |    000557EA  A$TopDown
     000557EC  A$TopDown |    000557EC  C$TopDown |    000557EF  A$TopDown
     000557F1  A$TopDown |    000557F1  C$TopDown |    000557F2  A$TopDown
     000557F3  A$TopDown |    000557F4  A$TopDown |    000557F6  A$TopDown
     000557F7  A$TopDown |    000557F8  A$TopDown |    000557FA  A$TopDown
     000557FB  A$TopDown |    000557FC  A$TopDown |    000557FD  A$TopDown
     000557FE  A$TopDown |    000557FF  A$TopDown |    00055802  A$TopDown
     00055804  A$TopDown |    00055805  A$TopDown |    00055806  A$TopDown
     00055807  A$TopDown |    00055807  C$TopDown |    00055809  A$TopDown
     0005580A  A$TopDown |    0005580B  A$TopDown |    0005580D  A$TopDown
     0005580E  A$TopDown |    0005580F  A$TopDown |    00055810  A$TopDown
     00055811  A$TopDown |    00055812  A$TopDown |    00055813  A$TopDown
     00055814  A$TopDown |    00055817  A$TopDown |    00055819  A$TopDown
     0005581A  A$TopDown |    0005581C  A$TopDown |    0005581E  A$TopDown
     0005581E  C$TopDown |    0005581F  A$TopDown |    00055820  A$TopDown
     00055822  A$TopDown |    00055822  C$TopDown |    00055825  A$TopDown
     00055827  A$TopDown |    00055827  C$TopDown |    0005582A  A$TopDown
     0005582B  A$TopDown |    0005582E  A$TopDown |    0005582E  C$TopDown
     00055830  A$TopDown |    00055832  A$TopDown |    00055835  A$TopDown
     00055836  A$TopDown |    00055838  A$TopDown |    0005583A  A$TopDown
     0005583C  A$TopDown |    0005583C  C$TopDown |    0005583D  A$TopDown
     0005583E  A$TopDown |    00055840  A$TopDown |    00055841  A$TopDown
     00055841  C$TopDown |    00055844  A$TopDown |    00055846  A$TopDown
     00055846  C$TopDown |    00055849  A$TopDown |    0005584B  A$TopDown
     0005584B  C$TopDown |    0005584E  A$TopDown |    00055850  A$TopDown
     00055850  C$TopDown |    00055852  A$TopDown |    00055853  A$TopDown
     00055854  A$TopDown |    00055856  A$TopDown |    00055857  A$TopDown
ASxxxx Linker V03.00 + NoICE + sdld,  page 204.
Hexadecimal  [32-Bits]

Area                       Addr        Size        Decimal Bytes (Attributes)
--------------------       ----        ----        ------- ----- ------------
_CODE_5                00054000    00001B2F =        6959. bytes (REL,CON)

        Value  Global            Value  Global            Value  Global    
        -----  ------            -----  ------            -----  ------    
     00055858  A$TopDown |    0005585A  A$TopDown |    0005585B  A$TopDown
     0005585C  A$TopDown |    0005585D  A$TopDown |    0005585E  A$TopDown
     0005585F  A$TopDown |    00055862  A$TopDown |    00055864  A$TopDown
     00055866  A$TopDown |    00055867  A$TopDown |    00055867  C$TopDown
     0005586A  A$TopDown |    0005586B  A$TopDown |    0005586D  A$TopDown
     0005586E  A$TopDown |    0005586F  A$TopDown |    00055871  A$TopDown
     00055872  A$TopDown |    00055874  A$TopDown |    00055875  A$TopDown
     00055876  A$TopDown |    00055878  A$TopDown |    00055879  A$TopDown
     0005587A  A$TopDown |    0005587C  A$TopDown |    0005587D  A$TopDown
     0005587E  A$TopDown |    0005587F  A$TopDown |    00055880  A$TopDown
     00055881  A$TopDown |    00055882  A$TopDown |    00055883  A$TopDown
     00055884  A$TopDown |    00055885  A$TopDown |    00055888  A$TopDown
     0005588A  A$TopDown |    0005588C  A$TopDown |    0005588E  A$TopDown
     0005588E  C$TopDown |    00055890  A$TopDown |    00055891  A$TopDown
     00055892  A$TopDown |    00055894  A$TopDown |    00055894  C$TopDown
     00055897  A$TopDown |    00055899  A$TopDown |    00055899  C$TopDown
     0005589C  A$TopDown |    0005589E  A$TopDown |    0005589F  A$TopDown
     000558A0  A$TopDown |    000558A3  A$TopDown |    000558A3  C$TopDown
     000558A5  A$TopDown |    000558A6  A$TopDown |    000558A6  C$TopDown
     000558A8  A$TopDown |    000558AA  A$TopDown |    000558AD  A$TopDown
     000558AE  A$TopDown |    000558B0  A$TopDown |    000558B2  A$TopDown
     000558B4  A$TopDown |    000558B4  C$TopDown |    000558B5  A$TopDown
     000558B5  C$TopDown |    000558B8  A$TopDown |    000558BA  A$TopDown
     000558BA  C$TopDown |    000558BD  A$TopDown |    000558BF  A$TopDown
     000558BF  C$TopDown |    000558C2  A$TopDown |    000558C4  A$TopDown
     000558C4  C$TopDown |    000558C5  A$TopDown |    000558C6  A$TopDown
     000558C7  A$TopDown |    000558C8  A$TopDown |    000558CA  A$TopDown
     000558CB  A$TopDown |    000558CC  A$TopDown |    000558CD  A$TopDown
     000558D0  A$TopDown |    000558D2  A$TopDown |    000558D3  A$TopDown
     000558D4  A$TopDown |    000558D5  A$TopDown |    000558D5  C$TopDown
     000558D7  A$TopDown |    000558D8  A$TopDown |    000558D9  A$TopDown
     000558DB  A$TopDown |    000558DC  A$TopDown |    000558DD  A$TopDown
     000558DE  A$TopDown |    000558DF  A$TopDown |    000558E0  A$TopDown
     000558E1  A$TopDown |    000558E2  A$TopDown |    000558E3  A$TopDown
     000558E6  A$TopDown |    000558E8  A$TopDown |    000558E9  A$TopDown
     000558EB  A$TopDown |    000558ED  A$TopDown |    000558EE  A$TopDown
     000558EF  A$TopDown |    000558F1  A$TopDown |    000558F1  C$TopDown
     000558F4  A$TopDown |    000558F6  A$TopDown |    000558F6  C$TopDown
     000558F9  A$TopDown |    000558FA  A$TopDown |    000558FD  A$TopDown
     000558FD  C$TopDown |    000558FF  A$TopDown |    00055901  A$TopDown
     00055904  A$TopDown |    00055905  A$TopDown |    00055908  A$TopDown
     0005590A  A$TopDown |    0005590C  A$TopDown |    0005590C  C$TopDown
     0005590D  A$TopDown |    0005590E  A$TopDown |    00055910  A$TopDown
     00055911  A$TopDown |    00055911  C$TopDown |    00055914  A$TopDown
     00055916  A$TopDown |    00055916  C$TopDown |    00055919  A$TopDown
     0005591B  A$TopDown |    0005591B  C$TopDown |    0005591E  A$TopDown
     00055920  A$TopDown |    00055920  C$TopDown |    00055922  A$TopDown
     00055923  A$TopDown |    00055924  A$TopDown |    00055926  A$TopDown
     00055927  A$TopDown |    00055928  A$TopDown |    00055929  A$TopDown
     0005592A  A$TopDown |    0005592C  A$TopDown |    0005592D  A$TopDown
     0005592E  A$TopDown |    0005592F  A$TopDown |    00055932  A$TopDown
ASxxxx Linker V03.00 + NoICE + sdld,  page 205.
Hexadecimal  [32-Bits]

Area                       Addr        Size        Decimal Bytes (Attributes)
--------------------       ----        ----        ------- ----- ------------
_CODE_5                00054000    00001B2F =        6959. bytes (REL,CON)

        Value  Global            Value  Global            Value  Global    
        -----  ------            -----  ------            -----  ------    
     00055934  A$TopDown |    00055936  A$TopDown |    00055937  A$TopDown
     00055937  C$TopDown |    0005593A  A$TopDown |    0005593B  A$TopDown
     0005593D  A$TopDown |    0005593E  A$TopDown |    00055940  A$TopDown
     00055941  A$TopDown |    00055943  A$TopDown |    00055944  A$TopDown
     00055945  A$TopDown |    00055947  A$TopDown |    00055948  A$TopDown
     00055949  A$TopDown |    0005594B  A$TopDown |    0005594C  A$TopDown
     0005594D  A$TopDown |    0005594E  A$TopDown |    0005594F  A$TopDown
     00055950  A$TopDown |    00055952  A$TopDown |    00055953  A$TopDown
     00055954  A$TopDown |    00055955  A$TopDown |    00055958  A$TopDown
     0005595A  A$TopDown |    0005595B  A$TopDown |    0005595C  A$TopDown
     0005595E  A$TopDown |    00055960  A$TopDown |    00055961  A$TopDown
     00055962  A$TopDown |    00055964  A$TopDown |    00055964  C$TopDown
     00055965  A$TopDown |    00055966  A$TopDown |    00055967  A$TopDown
     00055969  A$TopDown |    0005596A  A$TopDown |    0005596B  A$TopDown
     0005596C  A$TopDown |    0005596D  A$TopDown |    0005596E  A$TopDown
     0005596F  A$TopDown |    00055970  A$TopDown |    00055973  A$TopDown
     00055975  A$TopDown |    00055977  A$TopDown |    00055978  A$TopDown
     00055978  C$TopDown |    00055979  A$TopDown |    0005597A  A$TopDown
     0005597C  A$TopDown |    0005597C  C$TopDown |    0005597F  A$TopDown
     00055981  A$TopDown |    00055981  C$TopDown |    00055984  A$TopDown
     00055986  A$TopDown |    00055987  A$TopDown |    00055988  A$TopDown
     00055988  C$TopDown |    00055989  A$TopDown |    0005598A  A$TopDown
     0005598B  A$TopDown |    0005598E  A$TopDown |    0005598F  A$TopDown
     00055991  A$TopDown |    00055992  A$TopDown |    00055992  C$TopDown
     00055993  A$TopDown |    00055994  A$TopDown |    00055996  A$TopDown
     00055997  A$TopDown |    00055998  A$TopDown |    0005599A  A$TopDown
     0005599A  C$TopDown |    0005599C  A$TopDown |    0005599D  A$TopDown
     0005599F  A$TopDown |    000559A0  A$TopDown |    000559A1  A$TopDown
     000559A2  A$TopDown |    000559A3  A$TopDown |    000559A4  A$TopDown
     000559A5  A$TopDown |    000559A6  A$TopDown |    000559A7  A$TopDown
     000559A8  A$TopDown |    000559A9  A$TopDown |    000559AA  A$TopDown
     000559AB  A$TopDown |    000559AD  A$TopDown |    000559AE  A$TopDown
     000559AF  A$TopDown |    000559B2  A$TopDown |    000559B3  A$TopDown
     000559B4  A$TopDown |    000559B5  A$TopDown |    000559B6  A$TopDown
     000559B7  A$TopDown |    000559B8  A$TopDown |    000559B9  A$TopDown
     000559BC  A$TopDown |    000559BD  A$TopDown |    000559BE  A$TopDown
     000559BF  A$TopDown |    000559C1  A$TopDown |    000559C1  C$TopDown
     000559C4  A$TopDown |    000559C6  A$TopDown |    000559C6  C$TopDown
     000559C9  A$TopDown |    000559CB  A$TopDown |    000559CC  A$TopDown
     000559CD  A$TopDown |    000559CD  C$TopDown |    000559D0  A$TopDown
     000559D2  A$TopDown |    000559D4  A$TopDown |    000559D7  A$TopDown
     000559D9  A$TopDown |    000559DB  A$TopDown |    000559DB  C$TopDown
     000559DC  A$TopDown |    000559DD  A$TopDown |    000559DE  A$TopDown
     000559E1  A$TopDown |    000559E2  A$TopDown |    000559E4  A$TopDown
     000559E5  A$TopDown |    000559E5  C$TopDown |    000559E6  A$TopDown
     000559E7  A$TopDown |    000559E9  A$TopDown |    000559EB  A$TopDown
     000559EC  A$TopDown |    000559EE  A$TopDown |    000559EF  A$TopDown
     000559F0  A$TopDown |    000559F1  A$TopDown |    000559F2  A$TopDown
     000559F3  A$TopDown |    000559F4  A$TopDown |    000559F5  A$TopDown
     000559F6  A$TopDown |    000559F7  A$TopDown |    000559F8  A$TopDown
     000559FA  A$TopDown |    000559FB  A$TopDown |    000559FC  A$TopDown
ASxxxx Linker V03.00 + NoICE + sdld,  page 206.
Hexadecimal  [32-Bits]

Area                       Addr        Size        Decimal Bytes (Attributes)
--------------------       ----        ----        ------- ----- ------------
_CODE_5                00054000    00001B2F =        6959. bytes (REL,CON)

        Value  Global            Value  Global            Value  Global    
        -----  ------            -----  ------            -----  ------    
     000559FE  A$TopDown |    000559FF  A$TopDown |    00055A00  A$TopDown
     00055A03  A$TopDown |    00055A04  A$TopDown |    00055A05  A$TopDown
     00055A06  A$TopDown |    00055A08  A$TopDown |    00055A08  C$TopDown
     00055A0B  A$TopDown |    00055A0C  A$TopDown |    00055A0D  A$TopDown
     00055A0E  A$TopDown |    00055A10  A$TopDown |    00055A11  A$TopDown
     00055A12  A$TopDown |    00055A15  A$TopDown |    00055A16  A$TopDown
     00055A17  A$TopDown |    00055A18  A$TopDown |    00055A1A  A$TopDown
     00055A1B  A$TopDown |    00055A1C  A$TopDown |    00055A1D  A$TopDown
     00055A1E  A$TopDown |    00055A1F  A$TopDown |    00055A20  A$TopDown
     00055A21  A$TopDown |    00055A22  A$TopDown |    00055A22  C$TopDown
     00055A25  A$TopDown |    00055A26  A$TopDown |    00055A27  A$TopDown
     00055A28  A$TopDown |    00055A2A  A$TopDown |    00055A2B  A$TopDown
     00055A2C  A$TopDown |    00055A2F  A$TopDown |    00055A30  A$TopDown
     00055A31  A$TopDown |    00055A32  A$TopDown |    00055A34  A$TopDown
     00055A35  A$TopDown |    00055A36  A$TopDown |    00055A37  A$TopDown
     00055A38  A$TopDown |    00055A39  A$TopDown |    00055A3A  A$TopDown
     00055A3B  A$TopDown |    00055A3C  A$TopDown |    00055A3C  C$TopDown
     00055A3F  A$TopDown |    00055A40  A$TopDown |    00055A42  A$TopDown
     00055A42  C$TopDown |    00055A45  A$TopDown |    00055A47  A$TopDown
     00055A47  C$TopDown |    00055A49  A$TopDown |    00055A4A  A$TopDown
     00055A4B  A$TopDown |    00055A4C  A$TopDown |    00055A4F  A$TopDown
     00055A50  A$TopDown |    00055A50  C$TopDown |    00055A53  A$TopDown
     00055A54  A$TopDown |    00055A57  A$TopDown |    00055A5A  A$TopDown
     00055A5B  A$TopDown |    00055A5B  C$TopDown |    00055A5B  C$TopDown
     00055A5B  C$TopDown |    00055A5C  A$TopDown |    00055A5D  A$TopDown
     00055A5F  A$TopDown |    00055A5F  C$TopDown |    00055A62  A$TopDown
     00055A63  A$TopDown |    00055A65  A$TopDown |    00055A65  C$TopDown
     00055A68  A$TopDown |    00055A69  A$TopDown |    00055A6A  A$TopDown
     00055A6B  A$TopDown |    00055A6E  A$TopDown |    00055A6F  A$TopDown
     00055A70  A$TopDown |    00055A71  A$TopDown |    00055A72  A$TopDown
     00055A73  A$TopDown |    00055A74  A$TopDown |    00055A75  A$TopDown
     00055A78  A$TopDown |    00055A79  A$TopDown |    00055A7A  A$TopDown
     00055A7B  A$TopDown |    00055A7B  C$TopDown |    00055A7E  A$TopDown
     00055A7F  A$TopDown |    00055A80  A$TopDown |    00055A81  A$TopDown
     00055A84  A$TopDown |    00055A85  A$TopDown |    00055A86  A$TopDown
     00055A87  A$TopDown |    00055A88  A$TopDown |    00055A89  A$TopDown
     00055A8A  A$TopDown |    00055A8B  A$TopDown |    00055A8E  A$TopDown
     00055A8F  A$TopDown |    00055A90  A$TopDown |    00055A91  A$TopDown
     00055A93  A$TopDown |    00055A93  C$TopDown |    00055A96  A$TopDown
     00055A97  A$TopDown |    00055A99  A$TopDown |    00055A9A  A$TopDown
     00055A9B  A$TopDown |    00055A9C  A$TopDown |    00055A9D  A$TopDown
     00055AA0  A$TopDown |    00055AA1  A$TopDown |    00055AA2  A$TopDown
     00055AA3  A$TopDown |    00055AA4  A$TopDown |    00055AA7  A$TopDown
     00055AA9  A$TopDown |    00055AAB  A$TopDown |    00055AAC  A$TopDown
     00055AAD  A$TopDown |    00055AAE  A$TopDown |    00055AAF  A$TopDown
     00055AB0  A$TopDown |    00055AB1  A$TopDown |    00055AB4  A$TopDown
     00055AB5  A$TopDown |    00055AB6  A$TopDown |    00055AB7  A$TopDown
     00055AB7  C$TopDown |    00055ABA  A$TopDown |    00055ABB  A$TopDown
     00055ABC  A$TopDown |    00055ABD  A$TopDown |    00055AC0  A$TopDown
     00055AC3  A$TopDown |    00055AC4  A$TopDown |    00055AC5  A$TopDown
     00055AC6  A$TopDown |    00055AC7  A$TopDown |    00055AC8  A$TopDown
ASxxxx Linker V03.00 + NoICE + sdld,  page 207.
Hexadecimal  [32-Bits]

Area                       Addr        Size        Decimal Bytes (Attributes)
--------------------       ----        ----        ------- ----- ------------
_CODE_5                00054000    00001B2F =        6959. bytes (REL,CON)

        Value  Global            Value  Global            Value  Global    
        -----  ------            -----  ------            -----  ------    
     00055AC9  A$TopDown |    00055ACC  A$TopDown |    00055ACE  A$TopDown
     00055ACF  A$TopDown |    00055AD0  A$TopDown |    00055AD1  A$TopDown
     00055AD2  A$TopDown |    00055AD3  A$TopDown |    00055AD4  A$TopDown
     00055AD5  A$TopDown |    00055AD8  A$TopDown |    00055AD9  A$TopDown
     00055ADA  A$TopDown |    00055ADB  A$TopDown |    00055ADD  A$TopDown
     00055ADD  C$TopDown |    00055ADD  XG$Update |    00055ADE  G$tileset
     00055ADE  _tileset_ |    00055AE1  G$backgro |    00055AE1  _backgrou
     00055AE7  G$backgro |    00055AE7  _backgrou |    00055AED  G$palette
     00055AED  _palette_ |    00055AFC  G$sprite_ |    00055AFC  _sprite_b
     00055B17  G$scene_b |    00055B17  _scene_ba |    00055B1D  G$collisi
     00055B1D  _collisio |    00055B23  G$avatar_ |    00055B23  _avatar_b
     00055B26  G$music_t |    00055B26  _music_tr |    00055B2C  G$music_b
     00055B2C  _music_ba
ASxxxx Linker V03.00 + NoICE + sdld,  page 208.
Hexadecimal  [32-Bits]

Area                       Addr        Size        Decimal Bytes (Attributes)
--------------------       ----        ----        ------- ----- ------------
_CODE_6                00064000    00003DD1 =       15825. bytes (REL,CON)

        Value  Global            Value  Global            Value  Global    
        -----  ------            -----  ------            -----  ------    
     00064000  G$bank_6_ |    00064000  _bank_6_d
ASxxxx Linker V03.00 + NoICE + sdld,  page 209.
Hexadecimal  [32-Bits]

Area                       Addr        Size        Decimal Bytes (Attributes)
--------------------       ----        ----        ------- ----- ------------
_CODE_7                00074000    00000C40 =        3136. bytes (REL,CON)

        Value  Global            Value  Global            Value  Global    
        -----  ------            -----  ------            -----  ------    
     00074000  G$bank_7_ |    00074000  _bank_7_d
ASxxxx Linker V03.00 + NoICE + sdld,  page 210.
Hexadecimal  [32-Bits]

Area                       Addr        Size        Decimal Bytes (Attributes)
--------------------       ----        ----        ------- ----- ------------
_CODE_9                00094000    000001CE =         462. bytes (REL,CON)

        Value  Global            Value  Global            Value  Global    
        -----  ------            -----  ------            -----  ------    
     00094000  G$earth_d |    00094000  _earth_da |    000941C0  G$earth_t
     000941C0  _earth_ti
ASxxxx Linker V03.00 + NoICE + sdld,  page 211.
Hexadecimal  [32-Bits]

Area                       Addr        Size        Decimal Bytes (Attributes)
--------------------       ----        ----        ------- ----- ------------
_CODE_8                00084000    00000C8A =        3210. bytes (REL,CON)

        Value  Global            Value  Global            Value  Global    
        -----  ------            -----  ------            -----  ------    
     00084000  G$bank_8_ |    00084000  _bank_8_d |    00084C72  G$music_t
     00084C72  _music_tr |    00084C86  G$music_t |    00084C86  _music_tr
ASxxxx Linker V03.00 + NoICE + sdld,  page 212.
Hexadecimal  [32-Bits]

Area                       Addr        Size        Decimal Bytes (Attributes)
--------------------       ----        ----        ------- ----- ------------
_SFR0                  00000000    00000001 =           1. bytes (ABS,CON)

        Value  Global            Value  Global            Value  Global    
        -----  ------            -----  ------            -----  ------    
     0000FF00  _P1_REG  
ASxxxx Linker V03.00 + NoICE + sdld,  page 213.
Hexadecimal  [32-Bits]

Area                       Addr        Size        Decimal Bytes (Attributes)
--------------------       ----        ----        ------- ----- ------------
_SFR1                  00000000    00000001 =           1. bytes (ABS,CON)

        Value  Global            Value  Global            Value  Global    
        -----  ------            -----  ------            -----  ------    
     0000FF01  _SB_REG  
ASxxxx Linker V03.00 + NoICE + sdld,  page 214.
Hexadecimal  [32-Bits]

Area                       Addr        Size        Decimal Bytes (Attributes)
--------------------       ----        ----        ------- ----- ------------
_SFR2                  00000000    00000001 =           1. bytes (ABS,CON)

        Value  Global            Value  Global            Value  Global    
        -----  ------            -----  ------            -----  ------    
     0000FF02  _SC_REG  
ASxxxx Linker V03.00 + NoICE + sdld,  page 215.
Hexadecimal  [32-Bits]

Area                       Addr        Size        Decimal Bytes (Attributes)
--------------------       ----        ----        ------- ----- ------------
_SFR3                  00000000    00000001 =           1. bytes (ABS,CON)

        Value  Global            Value  Global            Value  Global    
        -----  ------            -----  ------            -----  ------    
     0000FF04  _DIV_REG 
ASxxxx Linker V03.00 + NoICE + sdld,  page 216.
Hexadecimal  [32-Bits]

Area                       Addr        Size        Decimal Bytes (Attributes)
--------------------       ----        ----        ------- ----- ------------
_SFR4                  00000000    00000001 =           1. bytes (ABS,CON)

        Value  Global            Value  Global            Value  Global    
        -----  ------            -----  ------            -----  ------    
     0000FF05  _TIMA_REG
ASxxxx Linker V03.00 + NoICE + sdld,  page 217.
Hexadecimal  [32-Bits]

Area                       Addr        Size        Decimal Bytes (Attributes)
--------------------       ----        ----        ------- ----- ------------
_SFR5                  00000000    00000001 =           1. bytes (ABS,CON)

        Value  Global            Value  Global            Value  Global    
        -----  ------            -----  ------            -----  ------    
     0000FF06  _TMA_REG 
ASxxxx Linker V03.00 + NoICE + sdld,  page 218.
Hexadecimal  [32-Bits]

Area                       Addr        Size        Decimal Bytes (Attributes)
--------------------       ----        ----        ------- ----- ------------
_SFR6                  00000000    00000001 =           1. bytes (ABS,CON)

        Value  Global            Value  Global            Value  Global    
        -----  ------            -----  ------            -----  ------    
     0000FF07  _TAC_REG 
ASxxxx Linker V03.00 + NoICE + sdld,  page 219.
Hexadecimal  [32-Bits]

Area                       Addr        Size        Decimal Bytes (Attributes)
--------------------       ----        ----        ------- ----- ------------
_SFR7                  00000000    00000001 =           1. bytes (ABS,CON)

        Value  Global            Value  Global            Value  Global    
        -----  ------            -----  ------            -----  ------    
     0000FF0F  _IF_REG  
ASxxxx Linker V03.00 + NoICE + sdld,  page 220.
Hexadecimal  [32-Bits]

Area                       Addr        Size        Decimal Bytes (Attributes)
--------------------       ----        ----        ------- ----- ------------
_SFR8                  00000000    00000001 =           1. bytes (ABS,CON)

        Value  Global            Value  Global            Value  Global    
        -----  ------            -----  ------            -----  ------    
     0000FF10  _NR10_REG
ASxxxx Linker V03.00 + NoICE + sdld,  page 221.
Hexadecimal  [32-Bits]

Area                       Addr        Size        Decimal Bytes (Attributes)
--------------------       ----        ----        ------- ----- ------------
_SFR9                  00000000    00000001 =           1. bytes (ABS,CON)

        Value  Global            Value  Global            Value  Global    
        -----  ------            -----  ------            -----  ------    
     0000FF11  _NR11_REG
ASxxxx Linker V03.00 + NoICE + sdld,  page 222.
Hexadecimal  [32-Bits]

Area                       Addr        Size        Decimal Bytes (Attributes)
--------------------       ----        ----        ------- ----- ------------
_SFRa                  00000000    00000001 =           1. bytes (ABS,CON)

        Value  Global            Value  Global            Value  Global    
        -----  ------            -----  ------            -----  ------    
     0000FF12  _NR12_REG
ASxxxx Linker V03.00 + NoICE + sdld,  page 223.
Hexadecimal  [32-Bits]

Area                       Addr        Size        Decimal Bytes (Attributes)
--------------------       ----        ----        ------- ----- ------------
_SFRb                  00000000    00000001 =           1. bytes (ABS,CON)

        Value  Global            Value  Global            Value  Global    
        -----  ------            -----  ------            -----  ------    
     0000FF13  _NR13_REG
ASxxxx Linker V03.00 + NoICE + sdld,  page 224.
Hexadecimal  [32-Bits]

Area                       Addr        Size        Decimal Bytes (Attributes)
--------------------       ----        ----        ------- ----- ------------
_SFRc                  00000000    00000001 =           1. bytes (ABS,CON)

        Value  Global            Value  Global            Value  Global    
        -----  ------            -----  ------            -----  ------    
     0000FF14  _NR14_REG
ASxxxx Linker V03.00 + NoICE + sdld,  page 225.
Hexadecimal  [32-Bits]

Area                       Addr        Size        Decimal Bytes (Attributes)
--------------------       ----        ----        ------- ----- ------------
_SFRd                  00000000    00000001 =           1. bytes (ABS,CON)

        Value  Global            Value  Global            Value  Global    
        -----  ------            -----  ------            -----  ------    
     0000FF16  _NR21_REG
ASxxxx Linker V03.00 + NoICE + sdld,  page 226.
Hexadecimal  [32-Bits]

Area                       Addr        Size        Decimal Bytes (Attributes)
--------------------       ----        ----        ------- ----- ------------
_SFRe                  00000000    00000001 =           1. bytes (ABS,CON)

        Value  Global            Value  Global            Value  Global    
        -----  ------            -----  ------            -----  ------    
     0000FF17  _NR22_REG
ASxxxx Linker V03.00 + NoICE + sdld,  page 227.
Hexadecimal  [32-Bits]

Area                       Addr        Size        Decimal Bytes (Attributes)
--------------------       ----        ----        ------- ----- ------------
_SFRf                  00000000    00000001 =           1. bytes (ABS,CON)

        Value  Global            Value  Global            Value  Global    
        -----  ------            -----  ------            -----  ------    
     0000FF18  _NR23_REG
ASxxxx Linker V03.00 + NoICE + sdld,  page 228.
Hexadecimal  [32-Bits]

Area                       Addr        Size        Decimal Bytes (Attributes)
--------------------       ----        ----        ------- ----- ------------
_SFR10                 00000000    00000001 =           1. bytes (ABS,CON)

        Value  Global            Value  Global            Value  Global    
        -----  ------            -----  ------            -----  ------    
     0000FF19  _NR24_REG
ASxxxx Linker V03.00 + NoICE + sdld,  page 229.
Hexadecimal  [32-Bits]

Area                       Addr        Size        Decimal Bytes (Attributes)
--------------------       ----        ----        ------- ----- ------------
_SFR11                 00000000    00000001 =           1. bytes (ABS,CON)

        Value  Global            Value  Global            Value  Global    
        -----  ------            -----  ------            -----  ------    
     0000FF1A  _NR30_REG
ASxxxx Linker V03.00 + NoICE + sdld,  page 230.
Hexadecimal  [32-Bits]

Area                       Addr        Size        Decimal Bytes (Attributes)
--------------------       ----        ----        ------- ----- ------------
_SFR12                 00000000    00000001 =           1. bytes (ABS,CON)

        Value  Global            Value  Global            Value  Global    
        -----  ------            -----  ------            -----  ------    
     0000FF1B  _NR31_REG
ASxxxx Linker V03.00 + NoICE + sdld,  page 231.
Hexadecimal  [32-Bits]

Area                       Addr        Size        Decimal Bytes (Attributes)
--------------------       ----        ----        ------- ----- ------------
_SFR13                 00000000    00000001 =           1. bytes (ABS,CON)

        Value  Global            Value  Global            Value  Global    
        -----  ------            -----  ------            -----  ------    
     0000FF1C  _NR32_REG
ASxxxx Linker V03.00 + NoICE + sdld,  page 232.
Hexadecimal  [32-Bits]

Area                       Addr        Size        Decimal Bytes (Attributes)
--------------------       ----        ----        ------- ----- ------------
_SFR14                 00000000    00000001 =           1. bytes (ABS,CON)

        Value  Global            Value  Global            Value  Global    
        -----  ------            -----  ------            -----  ------    
     0000FF1D  _NR33_REG
ASxxxx Linker V03.00 + NoICE + sdld,  page 233.
Hexadecimal  [32-Bits]

Area                       Addr        Size        Decimal Bytes (Attributes)
--------------------       ----        ----        ------- ----- ------------
_SFR15                 00000000    00000001 =           1. bytes (ABS,CON)

        Value  Global            Value  Global            Value  Global    
        -----  ------            -----  ------            -----  ------    
     0000FF1E  _NR34_REG
ASxxxx Linker V03.00 + NoICE + sdld,  page 234.
Hexadecimal  [32-Bits]

Area                       Addr        Size        Decimal Bytes (Attributes)
--------------------       ----        ----        ------- ----- ------------
_SFR16                 00000000    00000001 =           1. bytes (ABS,CON)

        Value  Global            Value  Global            Value  Global    
        -----  ------            -----  ------            -----  ------    
     0000FF20  _NR41_REG
ASxxxx Linker V03.00 + NoICE + sdld,  page 235.
Hexadecimal  [32-Bits]

Area                       Addr        Size        Decimal Bytes (Attributes)
--------------------       ----        ----        ------- ----- ------------
_SFR17                 00000000    00000001 =           1. bytes (ABS,CON)

        Value  Global            Value  Global            Value  Global    
        -----  ------            -----  ------            -----  ------    
     0000FF21  _NR42_REG
ASxxxx Linker V03.00 + NoICE + sdld,  page 236.
Hexadecimal  [32-Bits]

Area                       Addr        Size        Decimal Bytes (Attributes)
--------------------       ----        ----        ------- ----- ------------
_SFR18                 00000000    00000001 =           1. bytes (ABS,CON)

        Value  Global            Value  Global            Value  Global    
        -----  ------            -----  ------            -----  ------    
     0000FF22  _NR43_REG
ASxxxx Linker V03.00 + NoICE + sdld,  page 237.
Hexadecimal  [32-Bits]

Area                       Addr        Size        Decimal Bytes (Attributes)
--------------------       ----        ----        ------- ----- ------------
_SFR19                 00000000    00000001 =           1. bytes (ABS,CON)

        Value  Global            Value  Global            Value  Global    
        -----  ------            -----  ------            -----  ------    
     0000FF23  _NR44_REG
ASxxxx Linker V03.00 + NoICE + sdld,  page 238.
Hexadecimal  [32-Bits]

Area                       Addr        Size        Decimal Bytes (Attributes)
--------------------       ----        ----        ------- ----- ------------
_SFR1a                 00000000    00000001 =           1. bytes (ABS,CON)

        Value  Global            Value  Global            Value  Global    
        -----  ------            -----  ------            -----  ------    
     0000FF24  _NR50_REG
ASxxxx Linker V03.00 + NoICE + sdld,  page 239.
Hexadecimal  [32-Bits]

Area                       Addr        Size        Decimal Bytes (Attributes)
--------------------       ----        ----        ------- ----- ------------
_SFR1b                 00000000    00000001 =           1. bytes (ABS,CON)

        Value  Global            Value  Global            Value  Global    
        -----  ------            -----  ------            -----  ------    
     0000FF25  _NR51_REG
ASxxxx Linker V03.00 + NoICE + sdld,  page 240.
Hexadecimal  [32-Bits]

Area                       Addr        Size        Decimal Bytes (Attributes)
--------------------       ----        ----        ------- ----- ------------
_SFR1c                 00000000    00000001 =           1. bytes (ABS,CON)

        Value  Global            Value  Global            Value  Global    
        -----  ------            -----  ------            -----  ------    
     0000FF26  _NR52_REG
ASxxxx Linker V03.00 + NoICE + sdld,  page 241.
Hexadecimal  [32-Bits]

Area                       Addr        Size        Decimal Bytes (Attributes)
--------------------       ----        ----        ------- ----- ------------
_SFR1d                 00000000    00000001 =           1. bytes (ABS,CON)

        Value  Global            Value  Global            Value  Global    
        -----  ------            -----  ------            -----  ------    
     0000FF40  _LCDC_REG
ASxxxx Linker V03.00 + NoICE + sdld,  page 242.
Hexadecimal  [32-Bits]

Area                       Addr        Size        Decimal Bytes (Attributes)
--------------------       ----        ----        ------- ----- ------------
_SFR1e                 00000000    00000001 =           1. bytes (ABS,CON)

        Value  Global            Value  Global            Value  Global    
        -----  ------            -----  ------            -----  ------    
     0000FF41  _STAT_REG
ASxxxx Linker V03.00 + NoICE + sdld,  page 243.
Hexadecimal  [32-Bits]

Area                       Addr        Size        Decimal Bytes (Attributes)
--------------------       ----        ----        ------- ----- ------------
_SFR1f                 00000000    00000001 =           1. bytes (ABS,CON)

        Value  Global            Value  Global            Value  Global    
        -----  ------            -----  ------            -----  ------    
     0000FF42  _SCY_REG 
ASxxxx Linker V03.00 + NoICE + sdld,  page 244.
Hexadecimal  [32-Bits]

Area                       Addr        Size        Decimal Bytes (Attributes)
--------------------       ----        ----        ------- ----- ------------
_SFR20                 00000000    00000001 =           1. bytes (ABS,CON)

        Value  Global            Value  Global            Value  Global    
        -----  ------            -----  ------            -----  ------    
     0000FF43  _SCX_REG 
ASxxxx Linker V03.00 + NoICE + sdld,  page 245.
Hexadecimal  [32-Bits]

Area                       Addr        Size        Decimal Bytes (Attributes)
--------------------       ----        ----        ------- ----- ------------
_SFR21                 00000000    00000001 =           1. bytes (ABS,CON)

        Value  Global            Value  Global            Value  Global    
        -----  ------            -----  ------            -----  ------    
     0000FF44  _LY_REG  
ASxxxx Linker V03.00 + NoICE + sdld,  page 246.
Hexadecimal  [32-Bits]

Area                       Addr        Size        Decimal Bytes (Attributes)
--------------------       ----        ----        ------- ----- ------------
_SFR22                 00000000    00000001 =           1. bytes (ABS,CON)

        Value  Global            Value  Global            Value  Global    
        -----  ------            -----  ------            -----  ------    
     0000FF45  _LYC_REG 
ASxxxx Linker V03.00 + NoICE + sdld,  page 247.
Hexadecimal  [32-Bits]

Area                       Addr        Size        Decimal Bytes (Attributes)
--------------------       ----        ----        ------- ----- ------------
_SFR23                 00000000    00000001 =           1. bytes (ABS,CON)

        Value  Global            Value  Global            Value  Global    
        -----  ------            -----  ------            -----  ------    
     0000FF46  _DMA_REG 
ASxxxx Linker V03.00 + NoICE + sdld,  page 248.
Hexadecimal  [32-Bits]

Area                       Addr        Size        Decimal Bytes (Attributes)
--------------------       ----        ----        ------- ----- ------------
_SFR24                 00000000    00000001 =           1. bytes (ABS,CON)

        Value  Global            Value  Global            Value  Global    
        -----  ------            -----  ------            -----  ------    
     0000FF47  _BGP_REG 
ASxxxx Linker V03.00 + NoICE + sdld,  page 249.
Hexadecimal  [32-Bits]

Area                       Addr        Size        Decimal Bytes (Attributes)
--------------------       ----        ----        ------- ----- ------------
_SFR25                 00000000    00000001 =           1. bytes (ABS,CON)

        Value  Global            Value  Global            Value  Global    
        -----  ------            -----  ------            -----  ------    
     0000FF48  _OBP0_REG
ASxxxx Linker V03.00 + NoICE + sdld,  page 250.
Hexadecimal  [32-Bits]

Area                       Addr        Size        Decimal Bytes (Attributes)
--------------------       ----        ----        ------- ----- ------------
_SFR26                 00000000    00000001 =           1. bytes (ABS,CON)

        Value  Global            Value  Global            Value  Global    
        -----  ------            -----  ------            -----  ------    
     0000FF49  _OBP1_REG
ASxxxx Linker V03.00 + NoICE + sdld,  page 251.
Hexadecimal  [32-Bits]

Area                       Addr        Size        Decimal Bytes (Attributes)
--------------------       ----        ----        ------- ----- ------------
_SFR27                 00000000    00000001 =           1. bytes (ABS,CON)

        Value  Global            Value  Global            Value  Global    
        -----  ------            -----  ------            -----  ------    
     0000FF4A  _WY_REG  
ASxxxx Linker V03.00 + NoICE + sdld,  page 252.
Hexadecimal  [32-Bits]

Area                       Addr        Size        Decimal Bytes (Attributes)
--------------------       ----        ----        ------- ----- ------------
_SFR28                 00000000    00000001 =           1. bytes (ABS,CON)

        Value  Global            Value  Global            Value  Global    
        -----  ------            -----  ------            -----  ------    
     0000FF4B  _WX_REG  
ASxxxx Linker V03.00 + NoICE + sdld,  page 253.
Hexadecimal  [32-Bits]

Area                       Addr        Size        Decimal Bytes (Attributes)
--------------------       ----        ----        ------- ----- ------------
_SFR29                 00000000    00000001 =           1. bytes (ABS,CON)

        Value  Global            Value  Global            Value  Global    
        -----  ------            -----  ------            -----  ------    
     0000FF4D  _KEY1_REG
ASxxxx Linker V03.00 + NoICE + sdld,  page 254.
Hexadecimal  [32-Bits]

Area                       Addr        Size        Decimal Bytes (Attributes)
--------------------       ----        ----        ------- ----- ------------
_SFR2a                 00000000    00000001 =           1. bytes (ABS,CON)

        Value  Global            Value  Global            Value  Global    
        -----  ------            -----  ------            -----  ------    
     0000FF4F  _VBK_REG 
ASxxxx Linker V03.00 + NoICE + sdld,  page 255.
Hexadecimal  [32-Bits]

Area                       Addr        Size        Decimal Bytes (Attributes)
--------------------       ----        ----        ------- ----- ------------
_SFR2b                 00000000    00000001 =           1. bytes (ABS,CON)

        Value  Global            Value  Global            Value  Global    
        -----  ------            -----  ------            -----  ------    
     0000FF51  _HDMA1_RE
ASxxxx Linker V03.00 + NoICE + sdld,  page 256.
Hexadecimal  [32-Bits]

Area                       Addr        Size        Decimal Bytes (Attributes)
--------------------       ----        ----        ------- ----- ------------
_SFR2c                 00000000    00000001 =           1. bytes (ABS,CON)

        Value  Global            Value  Global            Value  Global    
        -----  ------            -----  ------            -----  ------    
     0000FF52  _HDMA2_RE
ASxxxx Linker V03.00 + NoICE + sdld,  page 257.
Hexadecimal  [32-Bits]

Area                       Addr        Size        Decimal Bytes (Attributes)
--------------------       ----        ----        ------- ----- ------------
_SFR2d                 00000000    00000001 =           1. bytes (ABS,CON)

        Value  Global            Value  Global            Value  Global    
        -----  ------            -----  ------            -----  ------    
     0000FF53  _HDMA3_RE
ASxxxx Linker V03.00 + NoICE + sdld,  page 258.
Hexadecimal  [32-Bits]

Area                       Addr        Size        Decimal Bytes (Attributes)
--------------------       ----        ----        ------- ----- ------------
_SFR2e                 00000000    00000001 =           1. bytes (ABS,CON)

        Value  Global            Value  Global            Value  Global    
        -----  ------            -----  ------            -----  ------    
     0000FF54  _HDMA4_RE
ASxxxx Linker V03.00 + NoICE + sdld,  page 259.
Hexadecimal  [32-Bits]

Area                       Addr        Size        Decimal Bytes (Attributes)
--------------------       ----        ----        ------- ----- ------------
_SFR2f                 00000000    00000001 =           1. bytes (ABS,CON)

        Value  Global            Value  Global            Value  Global    
        -----  ------            -----  ------            -----  ------    
     0000FF55  _HDMA5_RE
ASxxxx Linker V03.00 + NoICE + sdld,  page 260.
Hexadecimal  [32-Bits]

Area                       Addr        Size        Decimal Bytes (Attributes)
--------------------       ----        ----        ------- ----- ------------
_SFR30                 00000000    00000001 =           1. bytes (ABS,CON)

        Value  Global            Value  Global            Value  Global    
        -----  ------            -----  ------            -----  ------    
     0000FF56  _RP_REG  
ASxxxx Linker V03.00 + NoICE + sdld,  page 261.
Hexadecimal  [32-Bits]

Area                       Addr        Size        Decimal Bytes (Attributes)
--------------------       ----        ----        ------- ----- ------------
_SFR31                 00000000    00000001 =           1. bytes (ABS,CON)

        Value  Global            Value  Global            Value  Global    
        -----  ------            -----  ------            -----  ------    
     0000FF68  _BCPS_REG
ASxxxx Linker V03.00 + NoICE + sdld,  page 262.
Hexadecimal  [32-Bits]

Area                       Addr        Size        Decimal Bytes (Attributes)
--------------------       ----        ----        ------- ----- ------------
_SFR32                 00000000    00000001 =           1. bytes (ABS,CON)

        Value  Global            Value  Global            Value  Global    
        -----  ------            -----  ------            -----  ------    
     0000FF69  _BCPD_REG
ASxxxx Linker V03.00 + NoICE + sdld,  page 263.
Hexadecimal  [32-Bits]

Area                       Addr        Size        Decimal Bytes (Attributes)
--------------------       ----        ----        ------- ----- ------------
_SFR33                 00000000    00000001 =           1. bytes (ABS,CON)

        Value  Global            Value  Global            Value  Global    
        -----  ------            -----  ------            -----  ------    
     0000FF6A  _OCPS_REG
ASxxxx Linker V03.00 + NoICE + sdld,  page 264.
Hexadecimal  [32-Bits]

Area                       Addr        Size        Decimal Bytes (Attributes)
--------------------       ----        ----        ------- ----- ------------
_SFR34                 00000000    00000001 =           1. bytes (ABS,CON)

        Value  Global            Value  Global            Value  Global    
        -----  ------            -----  ------            -----  ------    
     0000FF6B  _OCPD_REG
ASxxxx Linker V03.00 + NoICE + sdld,  page 265.
Hexadecimal  [32-Bits]

Area                       Addr        Size        Decimal Bytes (Attributes)
--------------------       ----        ----        ------- ----- ------------
_SFR35                 00000000    00000001 =           1. bytes (ABS,CON)

        Value  Global            Value  Global            Value  Global    
        -----  ------            -----  ------            -----  ------    
     0000FF70  _SVBK_REG
ASxxxx Linker V03.00 + NoICE + sdld,  page 266.
Hexadecimal  [32-Bits]

Area                       Addr        Size        Decimal Bytes (Attributes)
--------------------       ----        ----        ------- ----- ------------
_SFR36                 00000000    00000001 =           1. bytes (ABS,CON)

        Value  Global            Value  Global            Value  Global    
        -----  ------            -----  ------            -----  ------    
     0000FFFF  _IE_REG  
ASxxxx Linker V03.00 + NoICE + sdld,  page 267.
Hexadecimal  [32-Bits]

Area                       Addr        Size        Decimal Bytes (Attributes)
--------------------       ----        ----        ------- ----- ------------
_EMU_HEADER0           00000000    00000003 =           3. bytes (ABS,CON)

        Value  Global            Value  Global            Value  Global    
        -----  ------            -----  ------            -----  ------    
ASxxxx Linker V03.00 + NoICE + sdld,  page 268.

Files Linked                              [ module(s) ]

/Users/cmaltby/Desktop/gbdk2020/lib/small/asxxxx/gb/crt0.o
                                          [ Runtime ]
obj/main.o                                [ main ]
obj/Actor_a.o                             [  ]
obj/Camera_a.o                            [  ]
obj/Scroll_a.o                            [  ]
obj/asm.macros.o                          [  ]
obj/gbt_player.o                          [  ]
obj/gbt_player_bank1.o                    [  ]
obj/Actor.o                               [ Actor ]
obj/Actor_b.o                             [ Actor_b ]
obj/BankData.o                            [ BankData ]
obj/BankManager.o                         [ BankManager ]
obj/Camera.o                              [ Camera ]
obj/Collision.o                           [ Collision ]
obj/Core_Main.o                           [ Core_Main ]
obj/DataManager.o                         [ DataManager ]
obj/FadeManager.o                         [ FadeManager ]
obj/FadeManager_b.o                       [ FadeManager_b ]
obj/Input.o                               [ Input ]
obj/Math.o                                [ Math ]
obj/MusicManager.o                        [ MusicManager ]
obj/Palette.o                             [ Palette ]
obj/Projectiles.o                         [ Projectiles ]
obj/Projectiles_b.o                       [ Projectiles_b ]
obj/ScriptRunner.o                        [ ScriptRunner ]
obj/ScriptRunner_b.o                      [ ScriptRunner_b ]
obj/Scroll.o                              [ Scroll ]
obj/Scroll_b.o                            [ Scroll_b ]
obj/Sprite.o                              [ Sprite ]
obj/Sprite_b.o                            [ Sprite_b ]
obj/Stack.o                               [ Stack ]
obj/Trigger.o                             [ Trigger ]
obj/Trigger_b.o                           [ Trigger_b ]
obj/UI.o                                  [ UI ]
obj/UI_b.o                                [ UI_b ]
obj/Adventure.o                           [ Adventure ]
obj/Platform.o                            [ Platform ]
obj/PointNClick.o                         [ PointNClick ]
obj/Shmup.o                               [ Shmup ]
obj/TopDown.o                             [ TopDown ]
obj/bank_6.o                              [ bank_6 ]
obj/bank_7.o                              [ bank_7 ]
obj/bank_9.o                              [ bank_9 ]
obj/data_ptrs.o                           [ data_ptrs ]
obj/music_bank_8.o                        [ music_bank_8 ]


Libraries Linked                          [ object file ]

/Users/cmaltby/Desktop/gbdk2020/lib/small/asxxxx/gbz80/gbz80.lib
                                          [ crt0_rle.o ]
/Users/cmaltby/Desktop/gbdk2020/lib/small/asxxxx/gbz80/gbz80.lib
                                          [ _strcpy.o ]
/Users/cmaltby/Desktop/gbdk2020/lib/small/asxxxx/gb/gb.lib
                                          [ rand.o ]
/Users/cmaltby/Desktop/gbdk2020/lib/small/asxxxx/gb/gb.lib
                                          [ sfr.o ]
/Users/cmaltby/Desktop/gbdk2020/lib/small/asxxxx/gbz80/gbz80.lib
                                          [ div.o ]
/Users/cmaltby/Desktop/gbdk2020/lib/small/asxxxx/gbz80/gbz80.lib
                                          [ mul.o ]
/Users/cmaltby/Desktop/gbdk2020/lib/small/asxxxx/gb/gb.lib
                                          [ set_wi_t.o ]
/Users/cmaltby/Desktop/gbdk2020/lib/small/asxxxx/gb/gb.lib
                                          [ set_data.o ]
/Users/cmaltby/Desktop/gbdk2020/lib/small/asxxxx/gb/gb.lib
                                          [ pad.o ]
/Users/cmaltby/Desktop/gbdk2020/lib/small/asxxxx/gbz80/gbz80.lib
                                          [ __sdcc_call_hl.o ]
/Users/cmaltby/Desktop/gbdk2020/lib/small/asxxxx/gbz80/gbz80.lib
                                          [ _memcpy.o ]
/Users/cmaltby/Desktop/gbdk2020/lib/small/asxxxx/gbz80/gbz80.lib
                                          [ strcat.o ]
/Users/cmaltby/Desktop/gbdk2020/lib/small/asxxxx/gb/gb.lib
                                          [ bgb_emu.o ]
/Users/cmaltby/Desktop/gbdk2020/lib/small/asxxxx/gbz80/gbz80.lib
                                          [ strlen.o ]
/Users/cmaltby/Desktop/gbdk2020/lib/small/asxxxx/gb/gb.lib
                                          [ cpy_data.o ]
/Users/cmaltby/Desktop/gbdk2020/lib/small/asxxxx/gb/gb.lib
                                          [ set_xy_t.o ]

ASxxxx Linker V03.00 + NoICE + sdld,  page 269.

User Base Address Definitions

_DATA=0xc0a0
_CODE=0x0200
ASxxxx Linker V03.00 + NoICE + sdld,  page 270.

User Global Definitions

_shadow_OAM=0xC000
.STACK=0xDEFF
.refresh_OAM=0xFF80

